A000: 7E E5 D9       JMP    $E5D9
A003: 3B             RTI
A004: FF FF 7E       STU    $FF7E
A007: E7 64          STB    $4,S
A009: 00 00          NEG    <$00
A00B: 01 00          NEG    <$00
A00D: 00 01          NEG    <$01
A00F: 01 01          NEG    <$01
A011: BB 63 BB       ADDA   $63BB
A014: 89 BB          ADCA   #$BB
A016: AF BB          STX    [D,Y]
A018: D5 CF          BITB   <$CF
A01A: 04 CF          LSR    <$CF
A01C: 38 CF          XANDCC #$CF
A01E: 41             NEGA
A01F: CF 52 CF       XSTU   #$52CF
A022: BC CF C7       CMPX   $CFC7
A025: D0 55          SUBB   <$55
A027: D1 2E          CMPB   <$2E
A029: D1 3A          CMPB   <$3A
A02B: D2 BE          SBCB   <$BE
A02D: D2 D2          SBCB   <$D2
A02F: D2 D2          SBCB   <$D2
A031: D2 E5          SBCB   <$E5
A033: D3 46          ADDD   <$46
A035: D3 59          ADDD   <$59
A037: D3 59          ADDD   <$59
A039: D3 6C          ADDD   <$6C
A03B: D3 C6          ADDD   <$C6
A03D: D3 FF          ADDD   <$FF
A03F: D4 02          ANDB   <$02
A041: D4 18          ANDB   <$18
A043: D4 2B          ANDB   <$2B
A045: D4 4C          ANDB   <$4C
A047: D4 58          ANDB   <$58
A049: D5 11          BITB   <$11
A04B: D5 43          BITB   <$43
A04D: D5 C8          BITB   <$C8
A04F: D6 25          LDB    <$25
A051: D6 41          LDB    <$41
A053: D6 5C          LDB    <$5C
A055: D6 78          LDB    <$78
A057: D6 84          LDB    <$84
A059: D6 9C          LDB    <$9C
A05B: D6 CE          LDB    <$CE
A05D: D6 DA          LDB    <$DA
A05F: D6 E0          LDB    <$E0
A061: D7 06          STB    <$06
A063: D7 80          STB    <$80
A065: D8 4C          EORB   <$4C
A067: D9 44          ADCB   <$44
A069: D9 62          ADCB   <$62
A06B: D9 8C          ADCB   <$8C
A06D: DA 49          ORB    <$49
A06F: DA 7D          ORB    <$7D
A071: DA 8F          ORB    <$8F
A073: DA A2          ORB    <$A2
A075: DA B5          ORB    <$B5
A077: DA BB          ORB    <$BB
A079: DA CE          ORB    <$CE
A07B: DA D9          ORB    <$D9
A07D: DA E6          ORB    <$E6
A07F: DB 03          ADDB   <$03
A081: DC 44          LDD    <$44
A083: DC 81          LDD    <$81
A085: DC 94          LDD    <$94
A087: DC A9          LDD    <$A9
A089: 0B 04          XDEC   <$04
A08B: 00 00          NEG    <$00
A08D: 01 01          NEG    <$01
A08F: 01 01          NEG    <$01
A091: 01 01          NEG    <$01
A093: 01 01          NEG    <$01
A095: 01 01          NEG    <$01
A097: 01 01          NEG    <$01
A099: 01 01          NEG    <$01
A09B: 01 01          NEG    <$01
A09D: 01 01          NEG    <$01
A09F: 01 01          NEG    <$01
A0A1: 01 01          NEG    <$01
A0A3: 01 01          NEG    <$01
A0A5: 01 01          NEG    <$01
A0A7: 01 01          NEG    <$01
A0A9: 01 01          NEG    <$01
A0AB: 01 01          NEG    <$01
A0AD: 01 01          NEG    <$01
A0AF: 01 01          NEG    <$01
A0B1: 01 01          NEG    <$01
A0B3: 01 01          NEG    <$01
A0B5: 01 01          NEG    <$01
A0B7: 01 01          NEG    <$01
A0B9: 0B 04          XDEC   <$04
A0BB: 00 00          NEG    <$00
A0BD: 04 04          LSR    <$04
A0BF: 04 04          LSR    <$04
A0C1: 04 04          LSR    <$04
A0C3: 04 04          LSR    <$04
A0C5: 04 04          LSR    <$04
A0C7: 04 04          LSR    <$04
A0C9: 04 04          LSR    <$04
A0CB: 04 04          LSR    <$04
A0CD: 04 04          LSR    <$04
A0CF: 04 04          LSR    <$04
A0D1: 04 04          LSR    <$04
A0D3: 04 04          LSR    <$04
A0D5: 04 04          LSR    <$04
A0D7: 04 04          LSR    <$04
A0D9: 04 04          LSR    <$04
A0DB: 04 04          LSR    <$04
A0DD: 04 04          LSR    <$04
A0DF: 04 04          LSR    <$04
A0E1: 04 04          LSR    <$04
A0E3: 04 04          LSR    <$04
A0E5: 04 04          LSR    <$04
A0E7: 04 04          LSR    <$04
A0E9: 05 09          LSR    <$09
A0EB: 00 00          NEG    <$00
A0ED: 02 02          XNC    <$02
A0EF: 02 02          XNC    <$02
A0F1: 02 02          XNC    <$02
A0F3: 02 02          XNC    <$02
A0F5: 02 02          XNC    <$02
A0F7: 02 02          XNC    <$02
A0F9: 02 02          XNC    <$02
A0FB: 02 02          XNC    <$02
A0FD: 02 02          XNC    <$02
A0FF: 02 02          XNC    <$02
A101: 02 02          XNC    <$02
A103: 02 02          XNC    <$02
A105: 02 02          XNC    <$02
A107: 02 02          XNC    <$02
A109: 02 02          XNC    <$02
A10B: 02 02          XNC    <$02
A10D: 02 02          XNC    <$02
A10F: 02 02          XNC    <$02
A111: 02 02          XNC    <$02
A113: 02 02          XNC    <$02
A115: 02 02          XNC    <$02
A117: 02 02          XNC    <$02
A119: 02 05          XNC    <$05
A11B: 09 00          ROL    <$00
A11D: 00 08          NEG    <$08
A11F: 08 08          ASL    <$08
A121: 08 08          ASL    <$08
A123: 08 08          ASL    <$08
A125: 08 08          ASL    <$08
A127: 08 08          ASL    <$08
A129: 08 08          ASL    <$08
A12B: 08 08          ASL    <$08
A12D: 08 08          ASL    <$08
A12F: 08 08          ASL    <$08
A131: 08 08          ASL    <$08
A133: 08 08          ASL    <$08
A135: 08 08          ASL    <$08
A137: 08 08          ASL    <$08
A139: 08 08          ASL    <$08
A13B: 08 08          ASL    <$08
A13D: 08 08          ASL    <$08
A13F: 08 08          ASL    <$08
A141: 08 08          ASL    <$08
A143: 08 08          ASL    <$08
A145: 08 08          ASL    <$08
A147: 08 08          ASL    <$08
A149: 08 08          ASL    <$08
A14B: 0B 04          XDEC   <$04
A14D: 00 00          NEG    <$00
A14F: FE FE FE       LDU    $FEFE
A152: FE FE FE       LDU    $FEFE
A155: FE FE FE       LDU    $FEFE
A158: FE FE FE       LDU    $FEFE
A15B: FE FE FE       LDU    $FEFE
A15E: FE FE FE       LDU    $FEFE
A161: FE FE FE       LDU    $FEFE
A164: FE FE FE       LDU    $FEFE
A167: FE FE FE       LDU    $FEFE
A16A: FE FE FE       LDU    $FEFE
A16D: FE FE FE       LDU    $FEFE
A170: FE FE FE       LDU    $FEFE
A173: FE FE FE       LDU    $FEFE
A176: FE FE FE       LDU    $FEFE
A179: FE FE 0B       LDU    $FE0B
A17C: 04 00          LSR    <$00
A17E: 00 FB          NEG    <$FB
A180: FB FB FB       ADDB   $FBFB
A183: FB FB FB       ADDB   $FBFB
A186: FB FB FB       ADDB   $FBFB
A189: FB FB FB       ADDB   $FBFB
A18C: FB FB FB       ADDB   $FBFB
A18F: FB FB FB       ADDB   $FBFB
A192: FB FB FB       ADDB   $FBFB
A195: FB FB FB       ADDB   $FBFB
A198: FB FB FB       ADDB   $FBFB
A19B: FB FB FB       ADDB   $FBFB
A19E: FB FB FB       ADDB   $FBFB
A1A1: FB FB FB       ADDB   $FBFB
A1A4: FB FB FB       ADDB   $FBFB
A1A7: FB FB FB       ADDB   $FBFB
A1AA: FB 05 09       ADDB   $0509
A1AD: 00 00          NEG    <$00
A1AF: FD FD FD       STD    $FDFD
A1B2: FD FD FD       STD    $FDFD
A1B5: FD FD FD       STD    $FDFD
A1B8: FD FD FD       STD    $FDFD
A1BB: FD FD FD       STD    $FDFD
A1BE: FD FD FD       STD    $FDFD
A1C1: FD FD FD       STD    $FDFD
A1C4: FD FD FD       STD    $FDFD
A1C7: FD FD FD       STD    $FDFD
A1CA: FD FD FD       STD    $FDFD
A1CD: FD FD FD       STD    $FDFD
A1D0: FD FD FD       STD    $FDFD
A1D3: FD FD FD       STD    $FDFD
A1D6: FD FD FD       STD    $FDFD
A1D9: FD FD FD       STD    $FDFD
A1DC: 05 09          LSR    <$09
A1DE: 00 00          NEG    <$00
A1E0: F7 F7 F7       STB    $F7F7
A1E3: F7 F7 F7       STB    $F7F7
A1E6: F7 F7 F7       STB    $F7F7
A1E9: F7 F7 F7       STB    $F7F7
A1EC: F7 F7 F7       STB    $F7F7
A1EF: F7 F7 F7       STB    $F7F7
A1F2: F7 F7 F7       STB    $F7F7
A1F5: F7 F7 F7       STB    $F7F7
A1F8: F7 F7 F7       STB    $F7F7
A1FB: F7 F7 F7       STB    $F7F7
A1FE: F7 F7 F7       STB    $F7F7
A201: F7 F7 F7       STB    $F7F7
A204: F7 F7 F7       STB    $F7F7
A207: F7 F7 F7       STB    $F7F7
A20A: F7 F7 F7       STB    $F7F7
A20D: 00 10          NEG    <$10
A20F: 00 7F          NEG    <$7F
A211: 00 01          NEG    <$01
A213: 10 01 7F       NEG    <$7F
A216: 00 02          NEG    <$02
A218: 10 02 7F       XNC    <$7F
A21B: 00 03          NEG    <$03
A21D: 10 03 7F       COM    <$7F
A220: 00 00          NEG    <$00
A222: 80 00          SUBA   #$00
A224: 80 FF          SUBA   #$FF
A226: 01 80          NEG    <$80
A228: 01 80          NEG    <$80
A22A: FF 02 80       STU    $0280
A22D: 02 80          XNC    <$80
A22F: FF 03 80       STU    $0380
A232: 03 80          COM    <$80
A234: FF 00 90       STU    >$0090
A237: 00 BF          NEG    <$BF
A239: C3 01 90       ADDD   #$0190
A23C: 01 BF          NEG    <$BF
A23E: C3 02 90       ADDD   #$0290
A241: 02 BF          XNC    <$BF
A243: C3 03 90       ADDD   #$0390
A246: 03 BF          COM    <$BF
A248: C3 00 C0       ADDD   #$00C0
A24B: 00 FF          NEG    <$FF
A24D: F3 01 C0       ADDD   $01C0
A250: 01 FF          NEG    <$FF
A252: F3 02 C0       ADDD   $02C0
A255: 02 FF          XNC    <$FF
A257: F3 03 C0       ADDD   $03C0
A25A: 03 FF          COM    <$FF
A25C: F3 01 00       ADDD   $0100
A25F: 00 0B          NEG    <$0B
A261: 09 00          ROL    <$00
A263: 00 60          NEG    <$60
A265: 60 60          NEG    $0,S
A267: 60 60          NEG    $0,S
A269: 60 00          NEG    $0,X
A26B: 00 00          NEG    <$00
A26D: 60 60          NEG    $0,S
A26F: 60 60          NEG    $0,S
A271: 60 60          NEG    $0,S
A273: 60 00          NEG    $0,X
A275: 00 50          NEG    <$50
A277: 60 60          NEG    $0,S
A279: 60 60          NEG    $0,S
A27B: 50             NEGB
A27C: 60 50          NEG    -$10,U
A27E: 00 50          NEG    <$50
A280: 70 70 70       NEG    $7070
A283: 70 50 50       NEG    $5050
A286: 50             NEGB
A287: 50             NEGB
A288: 50             NEGB
A289: 70 70 70       NEG    $7070
A28C: 70 50 00       NEG    $5000
A28F: 00 50          NEG    <$50
A291: 50             NEGB
A292: 70 70 70       NEG    $7070
A295: 70 50 00       NEG    $5000
A298: 00 50          NEG    <$50
A29A: 50             NEGB
A29B: 70 70 70       NEG    $7070
A29E: 70 50 00       NEG    $5000
A2A1: 00 50          NEG    <$50
A2A3: 50             NEGB
A2A4: 70 70 70       NEG    $7070
A2A7: 70 50 00       NEG    $5000
A2AA: 00 50          NEG    <$50
A2AC: 50             NEGB
A2AD: 70 70 70       NEG    $7070
A2B0: 70 50 50       NEG    $5050
A2B3: 50             NEGB
A2B4: 00 50          NEG    <$50
A2B6: 50             NEGB
A2B7: 50             NEGB
A2B8: 50             NEGB
A2B9: 50             NEGB
A2BA: 50             NEGB
A2BB: 00 00          NEG    <$00
A2BD: 00 50          NEG    <$50
A2BF: 50             NEGB
A2C0: 50             NEGB
A2C1: 50             NEGB
A2C2: 50             NEGB
A2C3: 50             NEGB
A2C4: 00 00          NEG    <$00
A2C6: 00 0B          NEG    <$0B
A2C8: 09 00          ROL    <$00
A2CA: 00 00          NEG    <$00
A2CC: 40             NEGA
A2CD: 40             NEGA
A2CE: 00 00          NEG    <$00
A2D0: 00 40          NEG    <$40
A2D2: 40             NEGA
A2D3: 00 40          NEG    <$40
A2D5: 40             NEGA
A2D6: 40             NEGA
A2D7: 40             NEGA
A2D8: 00 40          NEG    <$40
A2DA: 40             NEGA
A2DB: 40             NEGA
A2DC: 40             NEGA
A2DD: 40             NEGA
A2DE: 40             NEGA
A2DF: 40             NEGA
A2E0: 40             NEGA
A2E1: 00 40          NEG    <$40
A2E3: 40             NEGA
A2E4: 40             NEGA
A2E5: 40             NEGA
A2E6: 00 40          NEG    <$40
A2E8: 40             NEGA
A2E9: 40             NEGA
A2EA: 00 40          NEG    <$40
A2EC: 40             NEGA
A2ED: 40             NEGA
A2EE: 00 00          NEG    <$00
A2F0: 00 00          NEG    <$00
A2F2: 00 30          NEG    <$30
A2F4: 00 00          NEG    <$00
A2F6: 00 00          NEG    <$00
A2F8: 00 40          NEG    <$40
A2FA: 40             NEGA
A2FB: 40             NEGA
A2FC: 70 40 40       NEG    $4040
A2FF: 40             NEGA
A300: 00 40          NEG    <$40
A302: 40             NEGA
A303: 40             NEGA
A304: 40             NEGA
A305: 70 40 40       NEG    $4040
A308: 40             NEGA
A309: 40             NEGA
A30A: 40             NEGA
A30B: 40             NEGA
A30C: 40             NEGA
A30D: 40             NEGA
A30E: 70 40 40       NEG    $4040
A311: 40             NEGA
A312: 40             NEGA
A313: 00 40          NEG    <$40
A315: 40             NEGA
A316: 00 00          NEG    <$00
A318: 30 40          LEAX   $0,U
A31A: 40             NEGA
A31B: 00 00          NEG    <$00
A31D: 00 00          NEG    <$00
A31F: 00 00          NEG    <$00
A321: 30 00          LEAX   $0,X
A323: 00 00          NEG    <$00
A325: 00 00          NEG    <$00
A327: 00 00          NEG    <$00
A329: 00 00          NEG    <$00
A32B: 30 00          LEAX   $0,X
A32D: 00 0B          NEG    <$0B
A32F: 07 00          ASR    <$00
A331: 00 00          NEG    <$00
A333: 00 00          NEG    <$00
A335: 10 00 00       NEG    <$00
A338: 00 00          NEG    <$00
A33A: 00 70          NEG    <$70
A33C: 10 70 00 00    NEG    >$0000
A340: 00 70          NEG    <$70
A342: 70 60 60       NEG    $6060
A345: 70 70 70       NEG    $7070
A348: 60 60          NEG    $0,S
A34A: 60 60          NEG    $0,S
A34C: 60 70          NEG    -$10,S
A34E: 70 20 60       NEG    $2060
A351: 60 60          NEG    $0,S
A353: 20 60          BRA    $A3B5
A355: 00 20          NEG    <$20
A357: 60 60          NEG    $0,S
A359: 60 20          NEG    $0,Y
A35B: 00 00          NEG    <$00
A35D: 20 20          BRA    $A37F
A35F: 20 20          BRA    $A381
A361: 20 00          BRA    $A363
A363: 00 00          NEG    <$00
A365: 20 20          BRA    $A387
A367: 20 00          BRA    $A369
A369: 00 00          NEG    <$00
A36B: 00 00          NEG    <$00
A36D: 20 00          BRA    $A36F
A36F: 00 00          NEG    <$00
A371: 00 00          NEG    <$00
A373: 00 20          NEG    <$20
A375: 00 00          NEG    <$00
A377: 00 00          NEG    <$00
A379: 00 20          NEG    <$20
A37B: 20 20          BRA    $A39D
A37D: 00 00          NEG    <$00
A37F: 07 09          ASR    <$09
A381: 00 00          NEG    <$00
A383: 40             NEGA
A384: 10             FCB    $10
A385: 10             FCB    $10
A386: 10             FCB    $10
A387: 10 00 10       NEG    <$10
A38A: 10 40          NEGA
A38C: 40             NEGA
A38D: 10 00 10       NEG    <$10
A390: 10             FCB    $10
A391: 10             FCB    $10
A392: 10 00 40       NEG    <$40
A395: 40             NEGA
A396: 10             FCB    $10
A397: 10             FCB    $10
A398: 10             FCB    $10
A399: 10             FCB    $10
A39A: 10             FCB    $10
A39B: 10             FCB    $10
A39C: 10 40          NEGA
A39E: 00 40          NEG    <$40
A3A0: 10 00 10       NEG    <$10
A3A3: 10             FCB    $10
A3A4: 10 40          NEGA
A3A6: 00 00          NEG    <$00
A3A8: 40             NEGA
A3A9: 10             FCB    $10
A3AA: 10             FCB    $10
A3AB: 10 00 10       NEG    <$10
A3AE: 40             NEGA
A3AF: 00 00          NEG    <$00
A3B1: 00 40          NEG    <$40
A3B3: 10             FCB    $10
A3B4: 10             FCB    $10
A3B5: 10 40          NEGA
A3B7: 00 00          NEG    <$00
A3B9: 00 00          NEG    <$00
A3BB: 00 40          NEG    <$40
A3BD: 40             NEGA
A3BE: 40             NEGA
A3BF: 00 00          NEG    <$00
A3C1: 00 0B          NEG    <$0B
A3C3: 07 00          ASR    <$00
A3C5: 00 00          NEG    <$00
A3C7: 00 00          NEG    <$00
A3C9: 40             NEGA
A3CA: 00 40          NEG    <$40
A3CC: 00 00          NEG    <$00
A3CE: 40             NEGA
A3CF: 00 40          NEG    <$40
A3D1: 40             NEGA
A3D2: 00 00          NEG    <$00
A3D4: 00 00          NEG    <$00
A3D6: 40             NEGA
A3D7: 40             NEGA
A3D8: 40             NEGA
A3D9: 00 00          NEG    <$00
A3DB: 00 20          NEG    <$20
A3DD: 20 10          BRA    $A3EF
A3DF: 00 10          NEG    <$10
A3E1: 00 20          NEG    <$20
A3E3: 20 00          BRA    $A3E5
A3E5: 10             FCB    $10
A3E6: 10             FCB    $10
A3E7: 10             FCB    $10
A3E8: 10 20 00 10    XLBRA  $A3FC
A3EC: 10             FCB    $10
A3ED: 10 00 10       NEG    <$10
A3F0: 20 20          BRA    $A412
A3F2: 10 00 10       NEG    <$10
A3F5: 10             FCB    $10
A3F6: 10 00 20       NEG    <$20
A3F9: 20 10          BRA    $A40B
A3FB: 10             FCB    $10
A3FC: 10 00 00       NEG    <$00
A3FF: 00 20          NEG    <$20
A401: 00 10          NEG    <$10
A403: 00 00          NEG    <$00
A405: 00 00          NEG    <$00
A407: 20 10          BRA    $A419
A409: 10 00 00       NEG    <$00
A40C: 00 00          NEG    <$00
A40E: 00 20          NEG    <$20
A410: 00 00          NEG    <$00
A412: 00 0B          NEG    <$0B
A414: 09 00          ROL    <$00
A416: 00 00          NEG    <$00
A418: 00 70          NEG    <$70
A41A: 30 60          LEAX   $0,S
A41C: 60 60          NEG    $0,S
A41E: 00 00          NEG    <$00
A420: 00 00          NEG    <$00
A422: 00 70          NEG    <$70
A424: 30 60          LEAX   $0,S
A426: 00 00          NEG    <$00
A428: 00 50          NEG    <$50
A42A: 50             NEGB
A42B: 00 70          NEG    <$70
A42D: 30 60          LEAX   $0,S
A42F: 00 50          NEG    <$50
A431: 50             NEGB
A432: 50             NEGB
A433: 50             NEGB
A434: 70 30 60       NEG    $3060
A437: 10             FCB    $10
A438: 10 50          NEGB
A43A: 50             NEGB
A43B: 50             NEGB
A43C: 00 70          NEG    <$70
A43E: 30 10          LEAX   -$10,X
A440: 10             FCB    $10
A441: 10 00 50       NEG    <$50
A444: 50             NEGB
A445: 00 70          NEG    <$70
A447: 10             FCB    $10
A448: 10             FCB    $10
A449: 10 60 00       NEG    $0,X
A44C: 50             NEGB
A44D: 50             NEGB
A44E: 00 10          NEG    <$10
A450: 10             FCB    $10
A451: 10 60 60       NEG    $0,S
A454: 00 50          NEG    <$50
A456: 00 50          NEG    <$50
A458: 50             NEGB
A459: 10 60 60       NEG    $0,S
A45C: 50             NEGB
A45D: 50             NEGB
A45E: 00 00          NEG    <$00
A460: 00 00          NEG    <$00
A462: 70 30 60       NEG    $3060
A465: 00 00          NEG    <$00
A467: 00 00          NEG    <$00
A469: 00 00          NEG    <$00
A46B: 00 30          NEG    <$30
A46D: 00 00          NEG    <$00
A46F: 00 00          NEG    <$00
A471: 00 00          NEG    <$00
A473: 70 30 60       NEG    $3060
A476: 60 60          NEG    $0,S
A478: 00 00          NEG    <$00
A47A: 0B 07          XDEC   <$07
A47C: 00 00          NEG    <$00
A47E: 00 00          NEG    <$00
A480: 60 00          NEG    $0,X
A482: 60 00          NEG    $0,X
A484: 00 00          NEG    <$00
A486: 40             NEGA
A487: 40             NEGA
A488: 40             NEGA
A489: 40             NEGA
A48A: 40             NEGA
A48B: 00 40          NEG    <$40
A48D: 00 60          NEG    <$60
A48F: 00 60          NEG    <$60
A491: 00 40          NEG    <$40
A493: 40             NEGA
A494: 00 60          NEG    <$60
A496: 00 60          NEG    <$60
A498: 00 00          NEG    <$00
A49A: 40             NEGA
A49B: 40             NEGA
A49C: 40             NEGA
A49D: 40             NEGA
A49E: 40             NEGA
A49F: 40             NEGA
A4A0: 00 00          NEG    <$00
A4A2: 40             NEGA
A4A3: 40             NEGA
A4A4: 40             NEGA
A4A5: 40             NEGA
A4A6: 40             NEGA
A4A7: 40             NEGA
A4A8: 00 00          NEG    <$00
A4AA: 60 00          NEG    $0,X
A4AC: 60 00          NEG    $0,X
A4AE: 40             NEGA
A4AF: 40             NEGA
A4B0: 00 60          NEG    <$60
A4B2: 00 60          NEG    <$60
A4B4: 00 40          NEG    <$40
A4B6: 40             NEGA
A4B7: 40             NEGA
A4B8: 40             NEGA
A4B9: 40             NEGA
A4BA: 40             NEGA
A4BB: 40             NEGA
A4BC: 40             NEGA
A4BD: 00 40          NEG    <$40
A4BF: 40             NEGA
A4C0: 40             NEGA
A4C1: 40             NEGA
A4C2: 40             NEGA
A4C3: 00 00          NEG    <$00
A4C5: 00 60          NEG    <$60
A4C7: 00 60          NEG    <$60
A4C9: 00 00          NEG    <$00
A4CB: 0A 09          DEC    <$09
A4CD: 00 00          NEG    <$00
A4CF: 00 00          NEG    <$00
A4D1: 00 00          NEG    <$00
A4D3: 00 10          NEG    <$10
A4D5: 10             FCB    $10
A4D6: 10 00 00       NEG    <$00
A4D9: 00 00          NEG    <$00
A4DB: 10             FCB    $10
A4DC: 10 50          NEGB
A4DE: 50             NEGB
A4DF: 50             NEGB
A4E0: 10 00 00       NEG    <$00
A4E3: 10 50          NEGB
A4E5: 50             NEGB
A4E6: 40             NEGA
A4E7: 40             NEGA
A4E8: 40             NEGA
A4E9: 50             NEGB
A4EA: 00 10          NEG    <$10
A4EC: 50             NEGB
A4ED: 40             NEGA
A4EE: 40             NEGA
A4EF: 00 00          NEG    <$00
A4F1: 00 40          NEG    <$40
A4F3: 00 50          NEG    <$50
A4F5: 40             NEGA
A4F6: 00 00          NEG    <$00
A4F8: 00 00          NEG    <$00
A4FA: 00 00          NEG    <$00
A4FC: 10 40          NEGA
A4FE: 00 00          NEG    <$00
A500: 00 00          NEG    <$00
A502: 00 00          NEG    <$00
A504: 00 50          NEG    <$50
A506: 00 00          NEG    <$00
A508: 00 00          NEG    <$00
A50A: 00 50          NEG    <$50
A50C: 50             NEGB
A50D: 00 40          NEG    <$40
A50F: 00 00          NEG    <$00
A511: 00 00          NEG    <$00
A513: 50             NEGB
A514: 50             NEGB
A515: 50             NEGB
A516: 50             NEGB
A517: 00 00          NEG    <$00
A519: 00 00          NEG    <$00
A51B: 00 70          NEG    <$70
A51D: 50             NEGB
A51E: 50             NEGB
A51F: 70 00 00       NEG    >$0000
A522: 00 00          NEG    <$00
A524: 00 70          NEG    <$70
A526: 70 70 70       NEG    $7070
A529: 0D 10          TST    <$10
A52B: FF 00 10       STU    >$0010
A52E: 10             FCB    $10
A52F: 10             FCB    $10
A530: 10             FCB    $10
A531: 10             FCB    $10
A532: 10             FCB    $10
A533: 10             FCB    $10
A534: 10             FCB    $10
A535: 10             FCB    $10
A536: 10             FCB    $10
A537: 10             FCB    $10
A538: 10             FCB    $10
A539: 10             FCB    $10
A53A: 10             FCB    $10
A53B: 10             FCB    $10
A53C: 10             FCB    $10
A53D: 10 00 C0       NEG    <$C0
A540: C0 00          SUBB   #$00
A542: C0 C0          SUBB   #$C0
A544: 00 00          NEG    <$00
A546: C0 C0          SUBB   #$C0
A548: 00 C0          NEG    <$C0
A54A: C0 00          SUBB   #$00
A54C: 10             FCB    $10
A54D: 10 00 C0       NEG    <$C0
A550: 00 00          NEG    <$00
A552: C0 00          SUBB   #$00
A554: C0 00          SUBB   #$00
A556: C0 00          SUBB   #$00
A558: 00 C0          NEG    <$C0
A55A: 00 00          NEG    <$00
A55C: 10             FCB    $10
A55D: 10 00 C0       NEG    <$C0
A560: C0 00          SUBB   #$00
A562: C0 00          SUBB   #$00
A564: C0 00          SUBB   #$00
A566: C0 C0          SUBB   #$C0
A568: 00 C0          NEG    <$C0
A56A: C0 00          SUBB   #$00
A56C: 10             FCB    $10
A56D: 10 00 C0       NEG    <$C0
A570: 00 00          NEG    <$00
A572: C0 C0          SUBB   #$C0
A574: 00 00          NEG    <$00
A576: C0 00          SUBB   #$00
A578: 00 C0          NEG    <$C0
A57A: 00 00          NEG    <$00
A57C: 10             FCB    $10
A57D: 10 00 C0       NEG    <$C0
A580: 00 00          NEG    <$00
A582: C0 00          SUBB   #$00
A584: C0 00          SUBB   #$00
A586: C0 C0          SUBB   #$C0
A588: 00 C0          NEG    <$C0
A58A: C0 00          SUBB   #$00
A58C: 10             FCB    $10
A58D: 10 00 00       NEG    <$00
A590: 00 00          NEG    <$00
A592: 00 00          NEG    <$00
A594: 00 00          NEG    <$00
A596: 00 00          NEG    <$00
A598: 00 00          NEG    <$00
A59A: 00 00          NEG    <$00
A59C: 10             FCB    $10
A59D: 10 00 C0       NEG    <$C0
A5A0: C0 00          SUBB   #$00
A5A2: 00 C0          NEG    <$C0
A5A4: 00 00          NEG    <$00
A5A6: C0 00          SUBB   #$00
A5A8: C0 00          SUBB   #$00
A5AA: C0 C0          SUBB   #$C0
A5AC: 10             FCB    $10
A5AD: 10 C0 00       SUBB   #$00
A5B0: 00 00          NEG    <$00
A5B2: C0 00          SUBB   #$00
A5B4: C0 00          SUBB   #$00
A5B6: C0 C0          SUBB   #$C0
A5B8: C0 00          SUBB   #$00
A5BA: C0 00          SUBB   #$00
A5BC: 10             FCB    $10
A5BD: 10 C0 00       SUBB   #$00
A5C0: C0 00          SUBB   #$00
A5C2: C0 00          SUBB   #$00
A5C4: C0 00          SUBB   #$00
A5C6: C0 00          SUBB   #$00
A5C8: C0 00          SUBB   #$00
A5CA: C0 C0          SUBB   #$C0
A5CC: 10             FCB    $10
A5CD: 10 C0 00       SUBB   #$00
A5D0: C0 00          SUBB   #$00
A5D2: C0 C0          SUBB   #$C0
A5D4: C0 00          SUBB   #$00
A5D6: C0 00          SUBB   #$00
A5D8: C0 00          SUBB   #$00
A5DA: C0 00          SUBB   #$00
A5DC: 10             FCB    $10
A5DD: 10 00 C0       NEG    <$C0
A5E0: C0 00          SUBB   #$00
A5E2: C0 00          SUBB   #$00
A5E4: C0 00          SUBB   #$00
A5E6: C0 00          SUBB   #$00
A5E8: C0 00          SUBB   #$00
A5EA: C0 C0          SUBB   #$C0
A5EC: 10             FCB    $10
A5ED: 10             FCB    $10
A5EE: 10             FCB    $10
A5EF: 10             FCB    $10
A5F0: 10             FCB    $10
A5F1: 10             FCB    $10
A5F2: 10             FCB    $10
A5F3: 10             FCB    $10
A5F4: 10             FCB    $10
A5F5: 10             FCB    $10
A5F6: 10             FCB    $10
A5F7: 10             FCB    $10
A5F8: 10             FCB    $10
A5F9: 10             FCB    $10
A5FA: 10             FCB    $10
A5FB: 10             FCB    $10
A5FC: 10 0A 06       DEC    <$06
A5FF: FF 00 00       STU    >$0000
A602: 00 70          NEG    <$70
A604: 70 00 00       NEG    >$0000
A607: 00 70          NEG    <$70
A609: 70 00 70       NEG    >$0070
A60C: 00 20          NEG    <$20
A60E: 00 70          NEG    <$70
A610: 70 70 70       NEG    $7070
A613: 20 70          BRA    $A685
A615: 70 00 70       NEG    >$0070
A618: 70 20 70       NEG    $2070
A61B: 70 70 70       NEG    $7070
A61E: 70 20 70       NEG    $2070
A621: 70 70 70       NEG    $7070
A624: 70 20 70       NEG    $2070
A627: 70 70 70       NEG    $7070
A62A: 70 20 70       NEG    $2070
A62D: 70 70 70       NEG    $7070
A630: 70 00 20       NEG    >$0020
A633: 70 70 70       NEG    $7070
A636: 00 00          NEG    <$00
A638: 00 20          NEG    <$20
A63A: 70 00 00       NEG    >$0000
A63D: 09 07          ROL    <$07
A63F: 00 00          NEG    <$00
A641: 00 00          NEG    <$00
A643: 00 70          NEG    <$70
A645: 70 00 00       NEG    >$0000
A648: 00 00          NEG    <$00
A64A: 20 70          BRA    $A6BC
A64C: 70 70 00       NEG    $7000
A64F: 00 20          NEG    <$20
A651: 70 00 70       NEG    >$0070
A654: 00 70          NEG    <$70
A656: 00 20          NEG    <$20
A658: 70 70 70       NEG    $7070
A65B: 70 70 20       NEG    $7020
A65E: 70 70 70       NEG    $7070
A661: 00 70          NEG    <$70
A663: 70 20 70       NEG    $2070
A666: 70 70 70       NEG    $7070
A669: 70 70 20       NEG    $7020
A66C: 70 70 70       NEG    $7070
A66F: 70 70 00       NEG    $7000
A672: 20 70          BRA    $A6E4
A674: 70 70 70       NEG    $7070
A677: 00 00          NEG    <$00
A679: 00 20          NEG    <$20
A67B: 70 00 00       NEG    >$0000
A67E: 00 00          NEG    <$00
A680: 08 07          ASL    <$07
A682: 00 00          NEG    <$00
A684: 00 00          NEG    <$00
A686: 70 70 70       NEG    $7070
A689: 00 00          NEG    <$00
A68B: 00 20          NEG    <$20
A68D: 70 70 70       NEG    $7070
A690: 70 00 20       NEG    >$0020
A693: 70 70 70       NEG    $7070
A696: 70 70 70       NEG    $7070
A699: 20 70          BRA    $A70B
A69B: 70 70 70       NEG    $7070
A69E: 00 70          NEG    <$70
A6A0: 20 70          BRA    $A712
A6A2: 70 00 70       NEG    >$0070
A6A5: 70 70 20       NEG    $7020
A6A8: 70 70 70       NEG    $7070
A6AB: 70 00 70       NEG    >$0070
A6AE: 00 20          NEG    <$20
A6B0: 70 70 70       NEG    $7070
A6B3: 70 00 00       NEG    >$0000
A6B6: 00 20          NEG    <$20
A6B8: 20 70          BRA    $A72A
A6BA: 00 00          NEG    <$00
A6BC: 09 07          ROL    <$07
A6BE: 00 00          NEG    <$00
A6C0: 00 70          NEG    <$70
A6C2: 70 00 00       NEG    >$0000
A6C5: 00 00          NEG    <$00
A6C7: 20 70          BRA    $A739
A6C9: 70 70 70       NEG    $7070
A6CC: 00 00          NEG    <$00
A6CE: 20 70          BRA    $A740
A6D0: 70 70 70       NEG    $7070
A6D3: 70 00 20       NEG    >$0020
A6D6: 70 70 70       NEG    $7070
A6D9: 70 70 70       NEG    $7070
A6DC: 20 70          BRA    $A74E
A6DE: 70 70 00       NEG    $7000
A6E1: 70 70 00       NEG    $7000
A6E4: 20 70          BRA    $A756
A6E6: 70 70 70       NEG    $7070
A6E9: 70 00 20       NEG    >$0020
A6EC: 70 00 70       NEG    >$0070
A6EF: 00 70          NEG    <$70
A6F1: 00 00          NEG    <$00
A6F3: 20 70          BRA    $A765
A6F5: 70 70 00       NEG    $7000
A6F8: 00 00          NEG    <$00
A6FA: 00 20          NEG    <$20
A6FC: 70 00 00       NEG    >$0000
A6FF: 0A 06          DEC    <$06
A701: 01 00          NEG    <$00
A703: 00 00          NEG    <$00
A705: 70 70 00       NEG    $7000
A708: 00 00          NEG    <$00
A70A: 20 70          BRA    $A77C
A70C: 70 70 00       NEG    $7000
A70F: 20 70          BRA    $A781
A711: 70 70 70       NEG    $7070
A714: 70 20 70       NEG    $2070
A717: 70 70 70       NEG    $7070
A71A: 70 20 70       NEG    $2070
A71D: 70 70 70       NEG    $7070
A720: 70 20 70       NEG    $2070
A723: 70 70 70       NEG    $7070
A726: 70 20 70       NEG    $2070
A729: 00 70          NEG    <$70
A72B: 70 70 20       NEG    $7020
A72E: 70 70 70       NEG    $7070
A731: 00 70          NEG    <$70
A733: 00 20          NEG    <$20
A735: 00 70          NEG    <$70
A737: 70 00 00       NEG    >$0000
A73A: 00 20          NEG    <$20
A73C: 70 00 00       NEG    >$0000
A73F: 09 07          ROL    <$07
A741: 00 00          NEG    <$00
A743: 00 00          NEG    <$00
A745: 00 00          NEG    <$00
A747: 70 70 00       NEG    $7000
A74A: 00 00          NEG    <$00
A74C: 70 70 70       NEG    $7070
A74F: 70 70 00       NEG    $7000
A752: 20 70          BRA    $A7C4
A754: 70 70 70       NEG    $7070
A757: 70 20 70       NEG    $2070
A75A: 70 70 70       NEG    $7070
A75D: 70 70 20       NEG    $7020
A760: 70 00 70       NEG    >$0070
A763: 70 70 70       NEG    $7070
A766: 20 70          BRA    $A7D8
A768: 70 70 70       NEG    $7070
A76B: 70 00 20       NEG    >$0020
A76E: 00 70          NEG    <$70
A770: 00 70          NEG    <$70
A772: 70 00 00       NEG    >$0000
A775: 20 70          BRA    $A7E7
A777: 70 70 00       NEG    $7000
A77A: 00 00          NEG    <$00
A77C: 00 20          NEG    <$20
A77E: 70 00 00       NEG    >$0000
A781: 00 08          NEG    <$08
A783: 07 00          ASR    <$00
A785: 00 00          NEG    <$00
A787: 00 70          NEG    <$70
A789: 70 70 00       NEG    $7000
A78C: 00 00          NEG    <$00
A78E: 20 70          BRA    $A800
A790: 70 70 70       NEG    $7070
A793: 00 20          NEG    <$20
A795: 00 70          NEG    <$70
A797: 70 70 70       NEG    $7070
A79A: 70 20 70       NEG    $2070
A79D: 70 00 70       NEG    >$0070
A7A0: 70 70 20       NEG    $7020
A7A3: 00 70          NEG    <$70
A7A5: 70 70 70       NEG    $7070
A7A8: 70 20 70       NEG    $2070
A7AB: 70 70 70       NEG    $7070
A7AE: 70 70 00       NEG    $7000
A7B1: 20 70          BRA    $A823
A7B3: 70 70 70       NEG    $7070
A7B6: 00 00          NEG    <$00
A7B8: 00 20          NEG    <$20
A7BA: 20 70          BRA    $A82C
A7BC: 00 00          NEG    <$00
A7BE: 09 07          ROL    <$07
A7C0: 00 00          NEG    <$00
A7C2: 00 00          NEG    <$00
A7C4: 70 70 00       NEG    $7000
A7C7: 00 00          NEG    <$00
A7C9: 00 20          NEG    <$20
A7CB: 70 70 70       NEG    $7070
A7CE: 00 00          NEG    <$00
A7D0: 20 00          BRA    $A7D2
A7D2: 70 00 70       NEG    >$0070
A7D5: 70 00 20       NEG    >$0020
A7D8: 70 70 70       NEG    $7070
A7DB: 70 70 00       NEG    $7000
A7DE: 20 70          BRA    $A850
A7E0: 00 70          NEG    <$70
A7E2: 70 70 70       NEG    $7070
A7E5: 20 70          BRA    $A857
A7E7: 70 70 70       NEG    $7070
A7EA: 70 70 00       NEG    $7000
A7ED: 20 70          BRA    $A85F
A7EF: 70 70 70       NEG    $7070
A7F2: 70 00 00       NEG    >$0000
A7F5: 20 20          BRA    $A817
A7F7: 70 70 70       NEG    $7070
A7FA: 00 00          NEG    <$00
A7FC: 00 00          NEG    <$00
A7FE: 20 70          BRA    $A870
A800: 00 08          NEG    <$08
A802: 07 00          ASR    <$00
A804: FE 00 00       LDU    >$0000
A807: 60 00          NEG    $0,X
A809: 00 00          NEG    <$00
A80B: 00 00          NEG    <$00
A80D: 20 60          BRA    $A86F
A80F: 00 00          NEG    <$00
A811: 00 00          NEG    <$00
A813: 00 20          NEG    <$20
A815: 60 60          NEG    $0,S
A817: 60 00          NEG    $0,X
A819: 00 20          NEG    <$20
A81B: 70 70 70       NEG    $7070
A81E: 60 00          NEG    $0,X
A820: 00 20          NEG    <$20
A822: 70 70 70       NEG    $7070
A825: 60 60          NEG    $0,S
A827: 60 20          NEG    $0,Y
A829: 70 70 70       NEG    $7070
A82C: 70 70 00       NEG    $7000
A82F: 20 70          BRA    $A8A1
A831: 70 70 70       NEG    $7070
A834: 00 00          NEG    <$00
A836: 00 20          NEG    <$20
A838: 70 00 00       NEG    >$0000
A83B: 00 00          NEG    <$00
A83D: 08 06          ASL    <$06
A83F: 00 02          NEG    <$02
A841: 00 00          NEG    <$00
A843: 00 60          NEG    <$60
A845: 00 00          NEG    <$00
A847: 00 00          NEG    <$00
A849: 00 60          NEG    <$60
A84B: 70 00 00       NEG    >$0000
A84E: 60 60          NEG    $0,S
A850: 60 70          NEG    -$10,S
A852: 70 00 60       NEG    >$0060
A855: 70 00 70       NEG    >$0070
A858: 70 60 60       NEG    $6060
A85B: 70 70 70       NEG    $7070
A85E: 70 60 70       NEG    $6070
A861: 00 70          NEG    <$70
A863: 00 70          NEG    <$70
A865: 00 20          NEG    <$20
A867: 70 70 70       NEG    $7070
A86A: 00 00          NEG    <$00
A86C: 00 20          NEG    <$20
A86E: 70 00 00       NEG    >$0000
A871: 02 08          XNC    <$08
A873: 01 04          NEG    <$04
A875: 01 04          NEG    <$04
A877: 02 08          XNC    <$08
A879: FF FC FD       STU    $FCFD
A87C: FD FE 00       STD    $FE00
A87F: FE 03 00       LDU    $0300
A882: 04 05          LSR    <$05
A884: 01 03          NEG    <$03
A886: 02 00          XNC    <$00
A888: 02 FD          XNC    <$FD
A88A: 02 FB          XNC    <$FB
A88C: 01 05          NEG    <$05
A88E: 00 02          NEG    <$02
A890: FF FF FF       STU    $FFFF
A893: FC FF FB       LDD    $FFFB
A896: 00 FF          NEG    <$FF
A898: FC 01 FD       LDD    $01FD
A89B: 02 00          XNC    <$00
A89D: 02 03          XNC    <$03
A89F: 00 04          NEG    <$04
A8A1: 04 00          LSR    <$00
A8A3: 00 00          NEG    <$00
A8A5: 00 00          NEG    <$00
A8A7: 04 00          LSR    <$00
A8A9: 0D 0B          TST    <$0B
A8AB: 00 00          NEG    <$00
A8AD: 00 00          NEG    <$00
A8AF: 00 00          NEG    <$00
A8B1: 00 60          NEG    <$60
A8B3: 00 00          NEG    <$00
A8B5: 00 00          NEG    <$00
A8B7: 00 00          NEG    <$00
A8B9: 60 00          NEG    $0,X
A8BB: 00 00          NEG    <$00
A8BD: 60 00          NEG    $0,X
A8BF: 00 00          NEG    <$00
A8C1: 60 00          NEG    $0,X
A8C3: 00 00          NEG    <$00
A8C5: 60 00          NEG    $0,X
A8C7: 00 60          NEG    <$60
A8C9: 00 00          NEG    <$00
A8CB: 60 00          NEG    $0,X
A8CD: 00 00          NEG    <$00
A8CF: 00 00          NEG    <$00
A8D1: 60 00          NEG    $0,X
A8D3: 00 00          NEG    <$00
A8D5: 60 00          NEG    $0,X
A8D7: 00 00          NEG    <$00
A8D9: 00 00          NEG    <$00
A8DB: 00 00          NEG    <$00
A8DD: 00 00          NEG    <$00
A8DF: 00 00          NEG    <$00
A8E1: 00 00          NEG    <$00
A8E3: 00 00          NEG    <$00
A8E5: 00 00          NEG    <$00
A8E7: 00 00          NEG    <$00
A8E9: 00 00          NEG    <$00
A8EB: 00 00          NEG    <$00
A8ED: 00 00          NEG    <$00
A8EF: 60 60          NEG    $0,S
A8F1: 60 00          NEG    $0,X
A8F3: 00 00          NEG    <$00
A8F5: 00 00          NEG    <$00
A8F7: 60 60          NEG    $0,S
A8F9: 60 00          NEG    $0,X
A8FB: 00 00          NEG    <$00
A8FD: 00 00          NEG    <$00
A8FF: 00 00          NEG    <$00
A901: 00 00          NEG    <$00
A903: 00 00          NEG    <$00
A905: 00 00          NEG    <$00
A907: 00 00          NEG    <$00
A909: 00 00          NEG    <$00
A90B: 00 00          NEG    <$00
A90D: 00 00          NEG    <$00
A90F: 00 00          NEG    <$00
A911: 00 00          NEG    <$00
A913: 60 00          NEG    $0,X
A915: 00 00          NEG    <$00
A917: 60 00          NEG    $0,X
A919: 00 00          NEG    <$00
A91B: 00 00          NEG    <$00
A91D: 60 00          NEG    $0,X
A91F: 00 60          NEG    <$60
A921: 00 00          NEG    <$00
A923: 60 00          NEG    $0,X
A925: 00 00          NEG    <$00
A927: 60 00          NEG    $0,X
A929: 00 00          NEG    <$00
A92B: 60 00          NEG    $0,X
A92D: 00 00          NEG    <$00
A92F: 60 00          NEG    $0,X
A931: 00 00          NEG    <$00
A933: 00 00          NEG    <$00
A935: 00 60          NEG    <$60
A937: 00 00          NEG    <$00
A939: 00 00          NEG    <$00
A93B: 00 09          NEG    <$09
A93D: 07 00          ASR    <$00
A93F: 00 00          NEG    <$00
A941: 00 00          NEG    <$00
A943: 60 00          NEG    $0,X
A945: 00 00          NEG    <$00
A947: 60 00          NEG    $0,X
A949: 00 60          NEG    <$60
A94B: 00 00          NEG    <$00
A94D: 60 00          NEG    $0,X
A94F: 60 00          NEG    $0,X
A951: 60 00          NEG    $0,X
A953: 60 00          NEG    $0,X
A955: 00 00          NEG    <$00
A957: 00 00          NEG    <$00
A959: 00 00          NEG    <$00
A95B: 00 60          NEG    <$60
A95D: 60 00          NEG    $0,X
A95F: 00 00          NEG    <$00
A961: 60 60          NEG    $0,S
A963: 00 00          NEG    <$00
A965: 00 00          NEG    <$00
A967: 00 00          NEG    <$00
A969: 00 00          NEG    <$00
A96B: 60 00          NEG    $0,X
A96D: 60 00          NEG    $0,X
A96F: 60 00          NEG    $0,X
A971: 60 00          NEG    $0,X
A973: 00 60          NEG    <$60
A975: 00 00          NEG    <$00
A977: 60 00          NEG    $0,X
A979: 00 00          NEG    <$00
A97B: 60 00          NEG    $0,X
A97D: 00 00          NEG    <$00
A97F: 07 05          ASR    <$05
A981: 00 00          NEG    <$00
A983: 50             NEGB
A984: 00 50          NEG    <$50
A986: 00 50          NEG    <$50
A988: 00 50          NEG    <$50
A98A: 50             NEGB
A98B: 50             NEGB
A98C: 00 00          NEG    <$00
A98E: 50             NEGB
A98F: 50             NEGB
A990: 50             NEGB
A991: 00 50          NEG    <$50
A993: 50             NEGB
A994: 00 50          NEG    <$50
A996: 50             NEGB
A997: 00 50          NEG    <$50
A999: 50             NEGB
A99A: 50             NEGB
A99B: 00 00          NEG    <$00
A99D: 50             NEGB
A99E: 50             NEGB
A99F: 50             NEGB
A9A0: 00 50          NEG    <$50
A9A2: 00 50          NEG    <$50
A9A4: 00 50          NEG    <$50
A9A6: 05 03          LSR    <$03
A9A8: 00 00          NEG    <$00
A9AA: 00 10          NEG    <$10
A9AC: 00 10          NEG    <$10
A9AE: 10             FCB    $10
A9AF: 10             FCB    $10
A9B0: 10             FCB    $10
A9B1: 10             FCB    $10
A9B2: 10             FCB    $10
A9B3: 10             FCB    $10
A9B4: 10             FCB    $10
A9B5: 10 00 10       NEG    <$10
A9B8: 00 08          NEG    <$08
A9BA: 05 70          LSR    <$70
A9BC: C8 C8          EORB   #$C8
A9BE: C8 C8          EORB   #$C8
A9C0: C8 C8          EORB   #$C8
A9C2: 70 08 04       NEG    $0804
A9C5: 60 E0          NEG    ,S+
A9C7: 60 60          NEG    $0,S
A9C9: 60 60          NEG    $0,S
A9CB: 60 F0          NEG    [,--W]
A9CD: 08 05          ASL    <$05
A9CF: 70 98 18       NEG    $9818
A9D2: 30 60          LEAX   $0,S
A9D4: C0 C0          SUBB   #$C0
A9D6: F8 08 05       EORB   $0805
A9D9: 70 98 18       NEG    $9818
A9DC: 30 18          LEAX   -$8,X
A9DE: 18             X18
A9DF: 98 70          EORA   <$70
A9E1: 08 05          ASL    <$05
A9E3: C0 D0          SUBB   #$D0
A9E5: D0 D0          SUBB   <$D0
A9E7: D0 F8          SUBB   <$F8
A9E9: 10             FCB    $10
A9EA: 10 08 05       ASL    <$05
A9ED: F8 C0 C0       EORB   $C0C0
A9F0: F0 08 08       SUBB   $0808
A9F3: C8 70          EORB   #$70
A9F5: 08 05          ASL    <$05
A9F7: 30 60          LEAX   $0,S
A9F9: C0 F0          SUBB   #$F0
A9FB: C8 C8          EORB   #$C8
A9FD: C8 70          EORB   #$70
A9FF: 08 05          ASL    <$05
AA01: F8 18 18       EORB   $1818
AA04: 30 30          LEAX   -$10,Y
AA06: 60 60          NEG    $0,S
AA08: 60 08          NEG    $8,X
AA0A: 05 70          LSR    <$70
AA0C: C8 C8          EORB   #$C8
AA0E: 70 C8 C8       NEG    $C8C8
AA11: C8 70          EORB   #$70
AA13: 08 05          ASL    <$05
AA15: 70 98 98       NEG    $9898
AA18: 98 78          EORA   <$78
AA1A: 18             X18
AA1B: 30 60          LEAX   $0,S
AA1D: 03 03          COM    <$03
AA1F: A0 A0          SUBA   ,Y+
AA21: A0 07          SUBA   $7,X
AA23: 05 00          LSR    <$00
AA25: 50             NEGB
AA26: F8 50 50       EORB   $5050
AA29: F8 50 08       EORB   $5008
AA2C: 05 20          LSR    <$20
AA2E: 78 A0 70       ASL    $A070
AA31: 28 28          BVC    $AA5B
AA33: F0 20 08       SUBB   $2008
AA36: 05 C8          LSR    <$C8
AA38: C8 10          EORB   #$10
AA3A: 20 20          BRA    $AA5C
AA3C: 40             NEGA
AA3D: 98 98          EORA   <$98
AA3F: 08 05          ASL    <$05
AA41: 20 78          BRA    $AABB
AA43: 80 70          SUBA   #$70
AA45: 80 88          SUBA   #$88
AA47: 70 20 08       NEG    $2008
AA4A: 03 20          COM    <$20
AA4C: 40             NEGA
AA4D: 80 80          SUBA   #$80
AA4F: 80 80          SUBA   #$80
AA51: 40             NEGA
AA52: 20 08          BRA    $AA5C
AA54: 03 80          COM    <$80
AA56: 40             NEGA
AA57: 20 20          BRA    $AA79
AA59: 20 20          BRA    $AA7B
AA5B: 40             NEGA
AA5C: 80 08          SUBA   #$08
AA5E: 05 00          LSR    <$00
AA60: 20 A8          BRA    $AA0A
AA62: 70 F8 70       NEG    $F870
AA65: A8 20          EORA   $0,Y
AA67: 07 05          ASR    <$05
AA69: 00 00          NEG    <$00
AA6B: 20 20          BRA    $AA8D
AA6D: F8 20 20       EORB   $2020
AA70: 05 05          LSR    <$05
AA72: 00 00          NEG    <$00
AA74: 00 00          NEG    <$00
AA76: F8 08 05       EORB   $0805
AA79: 08 08          ASL    <$08
AA7B: 10 20 20 40    XLBRA  $CABF
AA7F: 80 80          SUBA   #$80
AA81: 08 04          ASL    <$04
AA83: 00 10          NEG    <$10
AA85: 20 40          BRA    $AAC7
AA87: 80 40          SUBA   #$40
AA89: 20 10          BRA    $AA9B
AA8B: 06 05          ROR    <$05
AA8D: 00 00          NEG    <$00
AA8F: 00 F8          NEG    <$F8
AA91: 00 F8          NEG    <$F8
AA93: 08 04          ASL    <$04
AA95: 00 80          NEG    <$80
AA97: 40             NEGA
AA98: 20 10          BRA    $AAAA
AA9A: 20 40          BRA    $AADC
AA9C: 80 08          SUBA   #$08
AA9E: 05 70          LSR    <$70
AAA0: 88 08          EORA   #$08
AAA2: 10 20 20 00    XLBRA  $CAA6
AAA6: 20 08          BRA    $AAB0
AAA8: 05 00          LSR    <$00
AAAA: 70 88 B8       NEG    $88B8
AAAD: A8 B8 80       EORA   [-$80,Y]
AAB0: 78 08 04       ASL    $0804
AAB3: F0 C0 C0       SUBB   $C0C0
AAB6: C0 C0          SUBB   #$C0
AAB8: C0 C0          SUBB   #$C0
AABA: F0 08 05       SUBB   $0805
AABD: 80 80          SUBA   #$80
AABF: 40             NEGA
AAC0: 20 20          BRA    $AAE2
AAC2: 10 08 08       ASL    <$08
AAC5: 08 04          ASL    <$04
AAC7: F0 30 30       SUBB   $3030
AACA: 30 30          LEAX   -$10,Y
AACC: 30 30          LEAX   -$10,Y
AACE: F0 03 05       SUBB   $0305
AAD1: 20 50          BRA    $AB23
AAD3: 88 08          EORA   #$08
AAD5: 05 00          LSR    <$00
AAD7: 00 00          NEG    <$00
AAD9: 00 00          NEG    <$00
AADB: 00 00          NEG    <$00
AADD: F8 08 05       EORB   $0805
AAE0: 20 70          BRA    $AB52
AAE2: 50             NEGB
AAE3: C8 C8          EORB   #$C8
AAE5: F8 C8 C8       EORB   $C8C8
AAE8: 07 07          ASR    <$07
AAEA: 1E 06          EXG    D,inv
AAEC: 0A 12          DEC    <$12
AAEE: 22 40          BHI    $AB30
AAF0: 80 08          SUBA   #$08
AAF2: 05 F0          LSR    <$F0
AAF4: C8 C8          EORB   #$C8
AAF6: F0 C8 C8       SUBB   $C8C8
AAF9: C8 F0          EORB   #$F0
AAFB: 07 03          ASR    <$03
AAFD: 00 60          NEG    <$60
AAFF: 60 00          NEG    $0,X
AB01: 00 60          NEG    <$60
AB03: 60 0A          NEG    $A,X
AB05: 02 00          XNC    <$00
AB07: 00 00          NEG    <$00
AB09: 00 00          NEG    <$00
AB0B: 00 C0          NEG    <$C0
AB0D: C0 40          SUBB   #$40
AB0F: 80 08          SUBA   #$08
AB11: 05 70          LSR    <$70
AB13: C8 C0          EORB   #$C0
AB15: C0 C0          SUBB   #$C0
AB17: C0 C8          SUBB   #$C8
AB19: 70 0F 07       NEG    $0F07
AB1C: 38 7C          XANDCC #$7C
AB1E: 7C EE C6       INC    $EEC6
AB21: C6 C6          LDB    #$C6
AB23: C6 C6          LDB    #$C6
AB25: C6 C6          LDB    #$C6
AB27: EE 7C          LDU    -$4,S
AB29: 7C 38 0F       INC    $380F
AB2C: 07 18          ASR    <$18
AB2E: 38 38          XANDCC #$38
AB30: 18             X18
AB31: 18             X18
AB32: 18             X18
AB33: 18             X18
AB34: 18             X18
AB35: 18             X18
AB36: 18             X18
AB37: 18             X18
AB38: 18             X18
AB39: 3C 3C          CWAI   #$3C
AB3B: 3C 0F          CWAI   #$0F
AB3D: 07 38          ASR    <$38
AB3F: 7C FE CE       INC    $FECE
AB42: 06 06          ROR    <$06
AB44: 0E 1C          JMP    <$1C
AB46: 38 70          XANDCC #$70
AB48: E0 E0          SUBB   ,S+
AB4A: FE FE FE       LDU    $FEFE
AB4D: 0F 07          CLR    <$07
AB4F: 30 78          LEAX   -$8,S
AB51: FC CC 0C       LDD    $CC0C
AB54: 1C 18          ANDCC  #$18
AB56: 1C 0E          ANDCC  #$0E
AB58: 06 06          ROR    <$06
AB5A: CE FC 7C       LDU    #$FC7C
AB5D: 38 0F          XANDCC #$0F
AB5F: 07 0C          ASR    <$0C
AB61: 1C 1C          ANDCC  #$1C
AB63: 3C 3C          CWAI   #$3C
AB65: 6C 6C          INC    $C,S
AB67: CC CC FE       LDD    #$CCFE
AB6A: FE FE 0C       LDU    $FE0C
AB6D: 0C 0C          INC    <$0C
AB6F: 0F 07          CLR    <$07
AB71: FE FE FE       LDU    $FEFE
AB74: C0 C0          SUBB   #$C0
AB76: F8 FC FE       EORB   $FCFE
AB79: 0E 06          JMP    <$06
AB7B: 06 CE          ROR    <$CE
AB7D: FE 7C 38       LDU    $7C38
AB80: 0F 07          CLR    <$07
AB82: 0C 1C          INC    <$1C
AB84: 38 70          XANDCC #$70
AB86: 60 E0          NEG    ,S+
AB88: F8 FC FE       EORB   $FCFE
AB8B: CE C6 E6       LDU    #$C6E6
AB8E: 7E 7C 38       JMP    $7C38
AB91: 0F 07          CLR    <$07
AB93: FE FE FE       LDU    $FEFE
AB96: 06 0E          ROR    <$0E
AB98: 0C 1C          INC    <$1C
AB9A: 18             X18
AB9B: 18             X18
AB9C: 38 30          XANDCC #$30
AB9E: 30 30          LEAX   -$10,Y
ABA0: 30 30          LEAX   -$10,Y
ABA2: 0F 07          CLR    <$07
ABA4: 38 7C          XANDCC #$7C
ABA6: EE C6          LDU    A,U
ABA8: EE 7C          LDU    -$4,S
ABAA: 38 7C          XANDCC #$7C
ABAC: EE C6          LDU    A,U
ABAE: C6 EE          LDB    #$EE
ABB0: 7C 7C 38       INC    $7C38
ABB3: 0F 07          CLR    <$07
ABB5: 38 7C          XANDCC #$7C
ABB7: 7C EE C6       INC    $EEC6
ABBA: E6 7E          LDB    -$2,S
ABBC: 7E 3E 0C       JMP    $3E0C
ABBF: 0C 1C          INC    <$1C
ABC1: 18             X18
ABC2: 38 30          XANDCC #$30
ABC4: AF 2F          STX    $F,Y
ABC6: AF 51          STX    -$F,U
ABC8: AF 73          STX    -$D,S
ABCA: AD FD AE 1F    JSR    [$59ED,PCR]
ABCE: AE 41          LDX    $1,U
ABD0: AD 97          JSR    [E,X]
ABD2: AD B9 AD DB    JSR    [-$5225,Y]
ABD6: AD 31          JSR    -$F,Y
ABD8: AD 53          JSR    -$D,U
ABDA: AD 75          JSR    -$B,S
ABDC: AE 63          LDX    $3,S
ABDE: AE 85          LDX    B,X
ABE0: AE A7          LDX    E,Y
ABE2: AE C9 AE EB    LDX    -$5115,U
ABE6: AF 0D          STX    $D,X
ABE8: 00 00          NEG    <$00
ABEA: 00 00          NEG    <$00
ABEC: 00 00          NEG    <$00
ABEE: 00 00          NEG    <$00
ABF0: 00 00          NEG    <$00
ABF2: 00 00          NEG    <$00
ABF4: 00 00          NEG    <$00
ABF6: 00 00          NEG    <$00
ABF8: 00 00          NEG    <$00
ABFA: 00 00          NEG    <$00
ABFC: 00 00          NEG    <$00
ABFE: 00 00          NEG    <$00
AC00: 00 00          NEG    <$00
AC02: 00 00          NEG    <$00
AC04: B0 0F AC       SUBA   $0FAC
AC07: F5 AA 1D       BITB   $AA1D
AC0A: AA 22          ORA    $2,Y
AC0C: AA 2B          ORA    $B,Y
AC0E: AA 35          ORA    -$B,Y
AC10: AA 3F          ORA    -$1,Y
AC12: B0 12 AA       SUBA   $12AA
AC15: 49             ROLA
AC16: AA 53          ORA    -$D,U
AC18: AA 5D          ORA    -$3,U
AC1A: AA 67          ORA    $7,S
AC1C: AB 04          ADDA   $4,X
AC1E: AA 70          ORA    -$10,S
AC20: AF DB          STX    [D,U]
AC22: AA 77          ORA    -$9,S
AC24: A9 B9 A9 C3    ADCA   [-$563D,Y]
AC28: A9 CD A9 D7    ADCA   $5603,PCR
AC2C: A9 E1          ADCA   ,S++
AC2E: A9 EB          ADCA   D,S
AC30: A9 F5          ADCA   [B,S]
AC32: A9 FF AA 09    ADCA   [$AA09]
AC36: AA 13          ORA    -$D,X
AC38: AA FB          ORA    [D,S]
AC3A: B0 03 AA       SUBA   $03AA
AC3D: 81 AA          CMPA   #$AA
AC3F: 8B AA          ADDA   #$AA
AC41: 93 AA          SUBD   <$AA
AC43: 9D AA          JSR    <$AA
AC45: A7 AA          STA    F,Y
AC47: DE AA          LDU    <$AA
AC49: F1 AB 10       CMPB   $AB10
AC4C: AC E1          CMPX   ,S++
AC4E: AC EB          CMPX   D,S
AC50: AC FF AD 09    CMPX   [$AD09]
AC54: AD 13          JSR    -$D,X
AC56: AD 1D          JSR    -$3,X
AC58: AD 27          JSR    $7,Y
AC5A: AF A9 AF B3    STX    -$504D,Y
AC5E: AF BD AF C7    STX    [$5C29,PCR]
AC62: AF D1          STX    [,U++]
AC64: AF E5          STX    B,S
AC66: AF EF          STX    ,--W
AC68: AF F9 B0 18    STX    [-$4FE8,S]
AC6C: B0 22 B0       SUBA   $22B0
AC6F: 2C B0          BGE    $AC21
AC71: 36 B0          PSHU   PC,Y,X
AC73: 40             NEGA
AC74: B0 4A B0       SUBA   $4AB0
AC77: 54             LSRB
AC78: B0 5E AA       SUBA   $5EAA
AC7B: B1 AA BB       CMPA   $AABB
AC7E: AA C5          ORA    B,U
AC80: AA CF          ORA    ,W++
AC82: AA D4          ORA    [,U]
AC84: 00 00          NEG    <$00
AC86: 00 00          NEG    <$00
AC88: 00 00          NEG    <$00
AC8A: AA DE          ORA    [W,U]
AC8C: AA DE          ORA    [W,U]
AC8E: AA DE          ORA    [W,U]
AC90: 00 00          NEG    <$00
AC92: 00 00          NEG    <$00
AC94: 00 00          NEG    <$00
AC96: 00 00          NEG    <$00
AC98: 00 00          NEG    <$00
AC9A: 00 00          NEG    <$00
AC9C: AA DE          ORA    [W,U]
AC9E: 00 00          NEG    <$00
ACA0: 00 00          NEG    <$00
ACA2: 00 00          NEG    <$00
ACA4: 00 00          NEG    <$00
ACA6: 00 00          NEG    <$00
ACA8: AA DE          ORA    [W,U]
ACAA: 00 00          NEG    <$00
ACAC: AA E8 AA       ORA    -$56,S
ACAF: E8 AA          EORB   F,Y
ACB1: E8 00          EORB   $0,X
ACB3: 00 00          NEG    <$00
ACB5: 00 00          NEG    <$00
ACB7: 00 00          NEG    <$00
ACB9: 00 00          NEG    <$00
ACBB: 00 00          NEG    <$00
ACBD: 00 00          NEG    <$00
ACBF: 00 00          NEG    <$00
ACC1: 00 00          NEG    <$00
ACC3: 00 AB          NEG    <$AB
ACC5: 1A AB          ORCC   #$AB
ACC7: 2B AB          BMI    $AC74
ACC9: 3C AB          CWAI   #$AB
ACCB: 4D             TSTA
ACCC: AB 5E          ADDA   -$2,U
ACCE: AB 6F          ADDA   $F,S
ACD0: AB 80          ADDA   ,X+
ACD2: AB 91          ADDA   [,X++]
ACD4: AB A2          ADDA   ,-Y
ACD6: AB B3          ADDA   [,--Y]
ACD8: AC DA          CMPX   [F,U]
ACDA: 05 02          LSR    <$02
ACDC: C0 C0          SUBB   #$C0
ACDE: C0 40          SUBB   #$40
ACE0: 80 08          SUBA   #$08
ACE2: 05 F0          LSR    <$F0
ACE4: C8 C8          EORB   #$C8
ACE6: C8 C8          EORB   #$C8
ACE8: C8 C8          EORB   #$C8
ACEA: F0 08 05       SUBB   $0805
ACED: F8 C0 C0       EORB   $C0C0
ACF0: F0 C0 C0       SUBB   $C0C0
ACF3: C0 F8          SUBB   #$F8
ACF5: 08 03          ASL    <$03
ACF7: 60 60          NEG    $0,S
ACF9: 60 60          NEG    $0,S
ACFB: 60 00          NEG    $0,X
ACFD: 60 60          NEG    $0,S
ACFF: 08 05          ASL    <$05
AD01: F8 C0 C0       EORB   $C0C0
AD04: F0 C0 C0       SUBB   $C0C0
AD07: C0 C0          SUBB   #$C0
AD09: 08 05          ASL    <$05
AD0B: 70 C8 C0       NEG    $C8C0
AD0E: C0 D8          SUBB   #$D8
AD10: C8 C8          EORB   #$C8
AD12: 70 08 05       NEG    $0805
AD15: C8 C8          EORB   #$C8
AD17: C8 F8          EORB   #$F8
AD19: C8 C8          EORB   #$C8
AD1B: C8 C8          EORB   #$C8
AD1D: 08 04          ASL    <$04
AD1F: F0 60 60       SUBB   $6060
AD22: 60 60          NEG    $0,S
AD24: 60 60          NEG    $0,S
AD26: F0 08 05       SUBB   $0805
AD29: 78 30 30       ASL    $3030
AD2C: 30 30          LEAX   -$10,Y
AD2E: 30 B0 60 20    LEAX   [$6020,W]
AD32: 08 FF          ASL    <$FF
AD34: FF FF FF       STU    $FFFF
AD37: FF FF FF       STU    $FFFF
AD3A: FF FF FF       STU    $FFFF
AD3D: FF FF FF       STU    $FFFF
AD40: FF FF FF       STU    $FFFF
AD43: FF FF FF       STU    $FFFF
AD46: FF FF FF       STU    $FFFF
AD49: FF FF FF       STU    $FFFF
AD4C: FF FF FF       STU    $FFFF
AD4F: FF FF FF       STU    $FFFF
AD52: FF 20 08       STU    $2008
AD55: FF FF FF       STU    $FFFF
AD58: FF 00 00       STU    >$0000
AD5B: 00 00          NEG    <$00
AD5D: 00 00          NEG    <$00
AD5F: 00 00          NEG    <$00
AD61: 00 FF          NEG    <$FF
AD63: FF FF FF       STU    $FFFF
AD66: 00 00          NEG    <$00
AD68: 00 00          NEG    <$00
AD6A: 00 00          NEG    <$00
AD6C: 00 00          NEG    <$00
AD6E: 00 00          NEG    <$00
AD70: 00 FF          NEG    <$FF
AD72: FF FF FF       STU    $FFFF
AD75: 20 04          BRA    $AD7B
AD77: F0 F0 F0       SUBB   $F0F0
AD7A: F0 00 00       SUBB   >$0000
AD7D: 00 00          NEG    <$00
AD7F: 00 00          NEG    <$00
AD81: 00 00          NEG    <$00
AD83: 00 00          NEG    <$00
AD85: 00 00          NEG    <$00
AD87: 00 00          NEG    <$00
AD89: 00 00          NEG    <$00
AD8B: 00 00          NEG    <$00
AD8D: 00 00          NEG    <$00
AD8F: 00 00          NEG    <$00
AD91: 00 00          NEG    <$00
AD93: F0 F0 F0       SUBB   $F0F0
AD96: F0 20 08       SUBB   $2008
AD99: FF FF FF       STU    $FFFF
AD9C: FF FF FF       STU    $FFFF
AD9F: FF FF FF       STU    $FFFF
ADA2: FF FF FF       STU    $FFFF
ADA5: FF FF FF       STU    $FFFF
ADA8: FF FF FF       STU    $FFFF
ADAB: FF FF FF       STU    $FFFF
ADAE: FF FF FF       STU    $FFFF
ADB1: FF FF FF       STU    $FFFF
ADB4: FF FF FF       STU    $FFFF
ADB7: FF FF 20       STU    $FF20
ADBA: 08 01          ASL    <$01
ADBC: 03 03          COM    <$03
ADBE: 07 0F          ASR    <$0F
ADC0: 0F 1F          CLR    <$1F
ADC2: 3F             SWI
ADC3: 3F             SWI
ADC4: 7F FE FC       CLR    $FEFC
ADC7: FC F8 F8       LDD    $F8F8
ADCA: F8 FC FC       EORB   $FCFC
ADCD: 7E 7E 3F       JMP    $7E3F
ADD0: 3F             SWI
ADD1: 1F 1F          TFR    X,inv
ADD3: 0F 0F          CLR    <$0F
ADD5: 07 07          ASR    <$07
ADD7: 03 03          COM    <$03
ADD9: 01 01          NEG    <$01
ADDB: 20 04          BRA    $ADE1
ADDD: F0 F0 F0       SUBB   $F0F0
ADE0: F0 E0 C0       SUBB   $E0C0
ADE3: C0 80          SUBB   #$80
ADE5: 00 00          NEG    <$00
ADE7: 00 00          NEG    <$00
ADE9: 00 00          NEG    <$00
ADEB: 00 00          NEG    <$00
ADED: 00 00          NEG    <$00
ADEF: 00 00          NEG    <$00
ADF1: 00 00          NEG    <$00
ADF3: 80 80          SUBA   #$80
ADF5: C0 C0          SUBB   #$C0
ADF7: E0 E0          SUBB   ,S+
ADF9: F0 F0 F0       SUBB   $F0F0
ADFC: F0 20 08       SUBB   $2008
ADFF: 00 07          NEG    <$07
AE01: 1F 3F          TFR    U,inv
AE03: 3F             SWI
AE04: 7F 7F 7F       CLR    $7F7F
AE07: FF FF FF       STU    $FFFF
AE0A: FF FF FF       STU    $FFFF
AE0D: FF FF FF       STU    $FFFF
AE10: FF FF FF       STU    $FFFF
AE13: FF FF FF       STU    $FFFF
AE16: FF 7F 7F       STU    $7F7F
AE19: 7F 3F 3F       CLR    $3F3F
AE1C: 1F 07          TFR    D,inv
AE1E: 00 20          NEG    <$20
AE20: 08 FF          ASL    <$FF
AE22: FF FF FF       STU    $FFFF
AE25: C3 81 81       ADDD   #$8181
AE28: 00 00          NEG    <$00
AE2A: 00 00          NEG    <$00
AE2C: 00 00          NEG    <$00
AE2E: 00 00          NEG    <$00
AE30: 00 00          NEG    <$00
AE32: 00 00          NEG    <$00
AE34: 00 00          NEG    <$00
AE36: 00 00          NEG    <$00
AE38: 00 00          NEG    <$00
AE3A: 81 81          CMPA   #$81
AE3C: C3 FF FF       ADDD   #$FFFF
AE3F: FF FF 20       STU    $FF20
AE42: 08 00          ASL    <$00
AE44: E0 F8 FC       SUBB   [-$04,S]
AE47: FC FE FE       LDD    $FEFE
AE4A: FE FF FF       LDU    $FFFF
AE4D: FF FF FF       STU    $FFFF
AE50: FF FF FF       STU    $FFFF
AE53: FF FF FF       STU    $FFFF
AE56: FF FF FF       STU    $FFFF
AE59: FF FF FE       STU    $FFFE
AE5C: FE FE FC       LDU    $FEFC
AE5F: FC F8 E0       LDD    $F8E0
AE62: 00 20          NEG    <$20
AE64: 08 FF          ASL    <$FF
AE66: FF FF FF       STU    $FFFF
AE69: FF FF FF       STU    $FFFF
AE6C: FF FF FF       STU    $FFFF
AE6F: FF FF FF       STU    $FFFF
AE72: FF FF FF       STU    $FFFF
AE75: FF FF FF       STU    $FFFF
AE78: FF FF FF       STU    $FFFF
AE7B: FF FF FF       STU    $FFFF
AE7E: FF FF FF       STU    $FFFF
AE81: FF FF FF       STU    $FFFF
AE84: FF 20 08       STU    $2008
AE87: FC FF FF       LDD    $FFFF
AE8A: FF 03 01       STU    $0301
AE8D: 01 00          NEG    <$00
AE8F: 00 00          NEG    <$00
AE91: 00 00          NEG    <$00
AE93: 00 01          NEG    <$01
AE95: 01 03          NEG    <$03
AE97: FF FF FF       STU    $FFFF
AE9A: FE 00 00       LDU    >$0000
AE9D: 00 00          NEG    <$00
AE9F: 00 00          NEG    <$00
AEA1: 00 00          NEG    <$00
AEA3: 00 00          NEG    <$00
AEA5: 00 00          NEG    <$00
AEA7: 20 04          BRA    $AEAD
AEA9: 00 00          NEG    <$00
AEAB: C0 E0          SUBB   #$E0
AEAD: E0 F0          SUBB   [,--W]
AEAF: F0 F0 F0       SUBB   $F0F0
AEB2: F0 F0 F0       SUBB   $F0F0
AEB5: F0 F0 F0       SUBB   $F0F0
AEB8: E0 E0          SUBB   ,S+
AEBA: C0 80          SUBB   #$80
AEBC: 00 00          NEG    <$00
AEBE: 00 00          NEG    <$00
AEC0: 00 00          NEG    <$00
AEC2: 00 00          NEG    <$00
AEC4: 00 00          NEG    <$00
AEC6: 00 00          NEG    <$00
AEC8: 00 20          NEG    <$20
AECA: 08 FF          ASL    <$FF
AECC: FF FF FF       STU    $FFFF
AECF: FF FF FF       STU    $FFFF
AED2: FF FF FF       STU    $FFFF
AED5: FF FF FF       STU    $FFFF
AED8: FF FF FF       STU    $FFFF
AEDB: FF FF FF       STU    $FFFF
AEDE: FF FF FF       STU    $FFFF
AEE1: FF FF FF       STU    $FFFF
AEE4: FF FF FF       STU    $FFFF
AEE7: FF FF FF       STU    $FFFF
AEEA: FF 20 08       STU    $2008
AEED: FC FF FF       LDD    $FFFF
AEF0: FF 03 01       STU    $0301
AEF3: 01 00          NEG    <$00
AEF5: 00 00          NEG    <$00
AEF7: 00 00          NEG    <$00
AEF9: 00 01          NEG    <$01
AEFB: 01 03          NEG    <$03
AEFD: FF FF FF       STU    $FFFF
AF00: FF 0F 07       STU    $0F07
AF03: 07 07          ASR    <$07
AF05: 03 03          COM    <$03
AF07: 03 01          COM    <$01
AF09: 01 01          NEG    <$01
AF0B: 00 00          NEG    <$00
AF0D: 20 04          BRA    $AF13
AF0F: 00 00          NEG    <$00
AF11: C0 E0          SUBB   #$E0
AF13: E0 F0          SUBB   [,--W]
AF15: F0 F0 F0       SUBB   $F0F0
AF18: F0 F0 F0       SUBB   $F0F0
AF1B: F0 F0 F0       SUBB   $F0F0
AF1E: E0 E0          SUBB   ,S+
AF20: C0 80          SUBB   #$80
AF22: 00 80          NEG    <$80
AF24: 80 80          SUBA   #$80
AF26: C0 C0          SUBB   #$C0
AF28: C0 E0          SUBB   #$E0
AF2A: E0 E0          SUBB   ,S+
AF2C: F0 F0 F0       SUBB   $F0F0
AF2F: 20 08          BRA    $AF39
AF31: FF FF FF       STU    $FFFF
AF34: FF 00 00       STU    >$0000
AF37: 00 00          NEG    <$00
AF39: 00 00          NEG    <$00
AF3B: 00 00          NEG    <$00
AF3D: 00 00          NEG    <$00
AF3F: 00 00          NEG    <$00
AF41: 01 01          NEG    <$01
AF43: 03 07          COM    <$07
AF45: 07 0F          ASR    <$0F
AF47: 0F 1F          CLR    <$1F
AF49: 3F             SWI
AF4A: 3F             SWI
AF4B: 7F 7F FF       CLR    $7FFF
AF4E: FF FF FF       STU    $FFFF
AF51: 20 08          BRA    $AF5B
AF53: FF FF FF       STU    $FFFF
AF56: FF 03 03       STU    $0303
AF59: 07 07          ASR    <$07
AF5B: 0F 1F          CLR    <$1F
AF5D: 1F 3F          TFR    U,inv
AF5F: 3F             SWI
AF60: 7F FF FF       CLR    $FFFF
AF63: FF FF FE       STU    $FFFE
AF66: FC FC F8       LDD    $FCF8
AF69: F8 F0 E0       EORB   $F0E0
AF6C: E0 C0          SUBB   ,U+
AF6E: C0 FF          SUBB   #$FF
AF70: FF FF FF       STU    $FFFF
AF73: 20 08          BRA    $AF7D
AF75: FF FF FF       STU    $FFFF
AF78: FF FE FE       STU    $FEFE
AF7B: FC FC F8       LDD    $FCF8
AF7E: F0 F0 E0       SUBB   $F0E0
AF81: E0 C0          SUBB   ,U+
AF83: 80 80          SUBA   #$80
AF85: 00 00          NEG    <$00
AF87: 00 00          NEG    <$00
AF89: 00 00          NEG    <$00
AF8B: 00 00          NEG    <$00
AF8D: 00 00          NEG    <$00
AF8F: 00 00          NEG    <$00
AF91: FF FF FF       STU    $FFFF
AF94: FF 12 08       STU    $1208
AF97: 00 00          NEG    <$00
AF99: 00 00          NEG    <$00
AF9B: 00 00          NEG    <$00
AF9D: 00 00          NEG    <$00
AF9F: 00 00          NEG    <$00
AFA1: 00 00          NEG    <$00
AFA3: 00 00          NEG    <$00
AFA5: FF FF FF       STU    $FFFF
AFA8: FF 08 05       STU    $0805
AFAB: C8 D0          EORB   #$D0
AFAD: E0 C0          SUBB   ,U+
AFAF: E0 D0          SUBB   [,W++]
AFB1: D0 C8          SUBB   <$C8
AFB3: 08 05          ASL    <$05
AFB5: C0 C0          SUBB   #$C0
AFB7: C0 C0          SUBB   #$C0
AFB9: C0 C0          SUBB   #$C0
AFBB: C0 F8          SUBB   #$F8
AFBD: 08 06          ASL    <$06
AFBF: C4 EC          ANDB   #$EC
AFC1: D4 D4          ANDB   <$D4
AFC3: C4 C4          ANDB   #$C4
AFC5: C4 C4          ANDB   #$C4
AFC7: 08 06          ASL    <$06
AFC9: C4 E4          ANDB   #$E4
AFCB: E4 D4          ANDB   [,U]
AFCD: D4 CC          ANDB   <$CC
AFCF: CC C4 08       LDD    #$C408
AFD2: 05 70          LSR    <$70
AFD4: C8 C8          EORB   #$C8
AFD6: C8 C8          EORB   #$C8
AFD8: C8 C8          EORB   #$C8
AFDA: 70 08 02       NEG    $0802
AFDD: 00 00          NEG    <$00
AFDF: 00 00          NEG    <$00
AFE1: 00 00          NEG    <$00
AFE3: C0 C0          SUBB   #$C0
AFE5: 08 05          ASL    <$05
AFE7: F0 C8 C8       SUBB   $C8C8
AFEA: C8 F0          EORB   #$F0
AFEC: C0 C0          SUBB   #$C0
AFEE: C0 08          SUBB   #$08
AFF0: 06 78          ROR    <$78
AFF2: C4 C4          ANDB   #$C4
AFF4: C4 D4          ANDB   #$D4
AFF6: D4 C8          ANDB   <$C8
AFF8: 74 08 05       LSR    $0805
AFFB: F0 C8 C8       SUBB   $C8C8
AFFE: C8 F0          EORB   #$F0
B000: E0 D0          SUBB   [,W++]
B002: C8 0A          EORB   #$0A
B004: 03 00          COM    <$00
B006: 00 00          NEG    <$00
B008: 60 60          NEG    $0,S
B00A: 00 60          NEG    <$60
B00C: 60 20          NEG    $0,Y
B00E: 40             NEGA
B00F: 01 03          NEG    <$03
B011: 00 04          NEG    <$04
B013: 02 C0          XNC    <$C0
B015: C0 40          SUBB   #$40
B017: 80 08          SUBA   #$08
B019: 05 70          LSR    <$70
B01B: C8 C0          EORB   #$C0
B01D: 70 08 08       NEG    $0808
B020: C8 70          EORB   #$70
B022: 08 06          ASL    <$06
B024: FC 30 30       LDD    $3030
B027: 30 30          LEAX   -$10,Y
B029: 30 30          LEAX   -$10,Y
B02B: 30 08          LEAX   $8,X
B02D: 05 C8          LSR    <$C8
B02F: C8 C8          EORB   #$C8
B031: C8 C8          EORB   #$C8
B033: C8 C8          EORB   #$C8
B035: 70 08 05       NEG    $0805
B038: C8 C8          EORB   #$C8
B03A: C8 C8          EORB   #$C8
B03C: C8 50          EORB   #$50
B03E: 50             NEGB
B03F: 20 08          BRA    $B049
B041: 06 C4          ROR    <$C4
B043: C4 C4          ANDB   #$C4
B045: C4 D4          ANDB   #$D4
B047: D4 EC          ANDB   <$EC
B049: C4 08          ANDB   #$08
B04B: 06 C4          ROR    <$C4
B04D: C4 68          ANDB   #$68
B04F: 30 30          LEAX   -$10,Y
B051: 68 C4          ASL    ,U
B053: C4 08          ANDB   #$08
B055: 06 C4          ROR    <$C4
B057: C4 68          ANDB   #$68
B059: 78 30 30       ASL    $3030
B05C: 30 30          LEAX   -$10,Y
B05E: 08 05          ASL    <$05
B060: F8 18 30       EORB   $1830
B063: 30 60          LEAX   $0,S
B065: 60 C0          NEG    ,U+
B067: F8 0B 0E       EORB   $0B0E
B06A: 00 00          NEG    <$00
B06C: 00 B0          NEG    <$B0
B06E: 00 30          NEG    <$30
B070: 00 00          NEG    <$00
B072: 00 00          NEG    <$00
B074: 00 00          NEG    <$00
B076: 00 00          NEG    <$00
B078: 00 00          NEG    <$00
B07A: 00 B0          NEG    <$B0
B07C: 00 30          NEG    <$30
B07E: 00 00          NEG    <$00
B080: 00 00          NEG    <$00
B082: 00 00          NEG    <$00
B084: 00 00          NEG    <$00
B086: 00 00          NEG    <$00
B088: 00 B0          NEG    <$B0
B08A: 30 30          LEAX   -$10,Y
B08C: 30 00          LEAX   $0,X
B08E: 00 00          NEG    <$00
B090: 00 00          NEG    <$00
B092: 00 00          NEG    <$00
B094: 00 00          NEG    <$00
B096: A0 B0 00 30    SUBA   [$0030,W]
B09A: 30 B0 00 00    LEAX   [$0000,W]
B09E: 00 30          NEG    <$30
B0A0: 30 00          LEAX   $0,X
B0A2: 00 80          NEG    <$80
B0A4: A0 B0 00 30    SUBA   [$0030,W]
B0A8: B0 30 00       SUBA   $3000
B0AB: 00 00          NEG    <$00
B0AD: 30 30          LEAX   -$10,Y
B0AF: A0 A0          SUBA   ,Y+
B0B1: 80 A0          SUBA   #$A0
B0B3: A0 30          SUBA   -$10,Y
B0B5: 30 30          LEAX   -$10,Y
B0B7: 30 00          LEAX   $0,X
B0B9: A0 A0          SUBA   ,Y+
B0BB: B0 B0 A0       SUBA   $B0A0
B0BE: A0 80          SUBA   ,X+
B0C0: A0 A0          SUBA   ,Y+
B0C2: B0 B0 30       SUBA   $B030
B0C5: 30 30          LEAX   -$10,Y
B0C7: B0 B0 B0       SUBA   $B0B0
B0CA: B0 00 00       SUBA   >$0000
B0CD: 00 A0          NEG    <$A0
B0CF: A0 B0 B0 30    SUBA   [-$4FD0,W]
B0D3: 30 30          LEAX   -$10,Y
B0D5: B0 B0 B0       SUBA   $B0B0
B0D8: A0 A0          SUBA   ,Y+
B0DA: A0 00          SUBA   $0,X
B0DC: A0 A0          SUBA   ,Y+
B0DE: B0 30 30       SUBA   $3030
B0E1: B0 00 A0       SUBA   >$00A0
B0E4: A0 A0          SUBA   ,Y+
B0E6: 00 00          NEG    <$00
B0E8: 80 80          SUBA   #$80
B0EA: A0 A0          SUBA   ,Y+
B0EC: B0 B0 B0       SUBA   $B0B0
B0EF: B0 00 00       SUBA   >$0000
B0F2: 00 00          NEG    <$00
B0F4: 00 00          NEG    <$00
B0F6: 00 00          NEG    <$00
B0F8: 00 00          NEG    <$00
B0FA: B0 B0 B0       SUBA   $B0B0
B0FD: 00 00          NEG    <$00
B0FF: 00 00          NEG    <$00
B101: 00 00          NEG    <$00
B103: 00 00          NEG    <$00
B105: 00 0B          NEG    <$0B
B107: 0E 00          JMP    <$00
B109: 00 00          NEG    <$00
B10B: B0 00 30       SUBA   >$0030
B10E: 00 00          NEG    <$00
B110: 00 00          NEG    <$00
B112: 00 00          NEG    <$00
B114: 00 00          NEG    <$00
B116: 00 00          NEG    <$00
B118: 00 B0          NEG    <$B0
B11A: 00 30          NEG    <$30
B11C: 00 00          NEG    <$00
B11E: 00 00          NEG    <$00
B120: 00 00          NEG    <$00
B122: 00 00          NEG    <$00
B124: 00 80          NEG    <$80
B126: 00 B0          NEG    <$B0
B128: 30 30          LEAX   -$10,Y
B12A: 30 00          LEAX   $0,X
B12C: 00 00          NEG    <$00
B12E: 30 00          LEAX   $0,X
B130: A0 A0          SUBA   ,Y+
B132: A0 80          SUBA   ,X+
B134: A0 B0 00 30    SUBA   [$0030,W]
B138: 30 B0 00 00    LEAX   [$0000,W]
B13C: B0 00 A0       SUBA   >$00A0
B13F: A0 A0          SUBA   ,Y+
B141: 80 A0          SUBA   #$A0
B143: B0 00 30       SUBA   >$0030
B146: B0 30 00       SUBA   $3000
B149: 00 B0          NEG    <$B0
B14B: 00 A0          NEG    <$A0
B14D: A0 00          SUBA   $0,X
B14F: 00 A0          NEG    <$A0
B151: A0 30          SUBA   -$10,Y
B153: 30 30          LEAX   -$10,Y
B155: 30 00          LEAX   $0,X
B157: A0 A0          SUBA   ,Y+
B159: A0 A0          SUBA   ,Y+
B15B: A0 00          SUBA   $0,X
B15D: 00 A0          NEG    <$A0
B15F: A0 B0 B0 30    SUBA   [-$4FD0,W]
B163: 30 30          LEAX   -$10,Y
B165: B0 B0 A0       SUBA   $B0A0
B168: A0 A0          SUBA   ,Y+
B16A: A0 00          SUBA   $0,X
B16C: A0 A0          SUBA   ,Y+
B16E: B0 B0 30       SUBA   $B030
B171: 30 30          LEAX   -$10,Y
B173: B0 B0 A0       SUBA   $B0A0
B176: A0 00          SUBA   $0,X
B178: A0 00          SUBA   $0,X
B17A: A0 A0          SUBA   ,Y+
B17C: B0 30 30       SUBA   $3030
B17F: B0 00 B0       SUBA   >$00B0
B182: B0 30 30       SUBA   $3030
B185: 00 A0          NEG    <$A0
B187: 00 A0          NEG    <$A0
B189: A0 B0 B0 B0    SUBA   [-$4F50,W]
B18D: B0 00 B0       SUBA   >$00B0
B190: B0 30 30       SUBA   $3030
B193: 00 80          NEG    <$80
B195: 80 00          SUBA   #$00
B197: 00 B0          NEG    <$B0
B199: B0 B0 00       SUBA   $B000
B19C: 00 00          NEG    <$00
B19E: 00 00          NEG    <$00
B1A0: 00 00          NEG    <$00
B1A2: 00 00          NEG    <$00
B1A4: 0B 0E          XDEC   <$0E
B1A6: 00 FF          NEG    <$FF
B1A8: 00 B0          NEG    <$B0
B1AA: 00 30          NEG    <$30
B1AC: 00 00          NEG    <$00
B1AE: 00 00          NEG    <$00
B1B0: 00 00          NEG    <$00
B1B2: 00 00          NEG    <$00
B1B4: 00 00          NEG    <$00
B1B6: 00 B0          NEG    <$B0
B1B8: 00 30          NEG    <$30
B1BA: 00 00          NEG    <$00
B1BC: 00 00          NEG    <$00
B1BE: 00 00          NEG    <$00
B1C0: 00 00          NEG    <$00
B1C2: 00 00          NEG    <$00
B1C4: 00 B0          NEG    <$B0
B1C6: 30 30          LEAX   -$10,Y
B1C8: 30 00          LEAX   $0,X
B1CA: 00 00          NEG    <$00
B1CC: 30 30          LEAX   -$10,Y
B1CE: 00 00          NEG    <$00
B1D0: 80 00          SUBA   #$00
B1D2: A0 B0 00 30    SUBA   [$0030,W]
B1D6: 30 B0 00 00    LEAX   [$0000,W]
B1DA: 30 30          LEAX   -$10,Y
B1DC: A0 A0          SUBA   ,Y+
B1DE: 80 00          SUBA   #$00
B1E0: A0 B0 00 30    SUBA   [$0030,W]
B1E4: B0 30 00       SUBA   $3000
B1E7: 00 B0          NEG    <$B0
B1E9: B0 A0 00       SUBA   $A000
B1EC: 00 00          NEG    <$00
B1EE: A0 A0          SUBA   ,Y+
B1F0: 30 30          LEAX   -$10,Y
B1F2: 30 30          LEAX   -$10,Y
B1F4: 00 A0          NEG    <$A0
B1F6: B0 B0 A0       SUBA   $B0A0
B1F9: 00 00          NEG    <$00
B1FB: 00 A0          NEG    <$A0
B1FD: A0 B0 B0 30    SUBA   [-$4FD0,W]
B201: 30 30          LEAX   -$10,Y
B203: B0 B0 B0       SUBA   $B0B0
B206: A0 A0          SUBA   ,Y+
B208: A0 00          SUBA   $0,X
B20A: A0 A0          SUBA   ,Y+
B20C: B0 B0 30       SUBA   $B030
B20F: 30 30          LEAX   -$10,Y
B211: B0 B0 B0       SUBA   $B0B0
B214: A0 A0          SUBA   ,Y+
B216: A0 00          SUBA   $0,X
B218: A0 A0          SUBA   ,Y+
B21A: B0 30 30       SUBA   $3030
B21D: B0 00 A0       SUBA   >$00A0
B220: A0 A0          SUBA   ,Y+
B222: A0 A0          SUBA   ,Y+
B224: A0 00          SUBA   $0,X
B226: A0 A0          SUBA   ,Y+
B228: B0 B0 B0       SUBA   $B0B0
B22B: B0 00 B0       SUBA   >$00B0
B22E: 00 00          NEG    <$00
B230: 00 A0          NEG    <$A0
B232: A0 00          SUBA   $0,X
B234: 00 00          NEG    <$00
B236: B0 B0 B0       SUBA   $B0B0
B239: 00 00          NEG    <$00
B23B: B0 B0 30       SUBA   $B030
B23E: 00 80          NEG    <$80
B240: 80 80          SUBA   #$80
B242: 0B 0E          XDEC   <$0E
B244: 00 00          NEG    <$00
B246: 00 B0          NEG    <$B0
B248: 00 00          NEG    <$00
B24A: 30 00          LEAX   $0,X
B24C: 00 30          NEG    <$30
B24E: 30 00          LEAX   $0,X
B250: 80 80          SUBA   #$80
B252: 00 00          NEG    <$00
B254: 00 B0          NEG    <$B0
B256: B0 30 30       SUBA   $3030
B259: 00 00          NEG    <$00
B25B: 00 B0          NEG    <$B0
B25D: 00 00          NEG    <$00
B25F: 80 80          SUBA   #$80
B261: 00 00          NEG    <$00
B263: 00 B0          NEG    <$B0
B265: 30 30          LEAX   -$10,Y
B267: 30 B0 00 B0    LEAX   [$00B0,W]
B26B: 00 A0          NEG    <$A0
B26D: A0 00          SUBA   $0,X
B26F: 00 00          NEG    <$00
B271: 00 A0          NEG    <$A0
B273: 90 30          SUBA   <$30
B275: B0 30 00       SUBA   $3000
B278: B0 00 A0       SUBA   >$00A0
B27B: A0 00          SUBA   $0,X
B27D: 00 A0          NEG    <$A0
B27F: A0 A0          SUBA   ,Y+
B281: 90 30          SUBA   <$30
B283: 30 30          LEAX   -$10,Y
B285: B0 A0 A0       SUBA   $A0A0
B288: A0 00          SUBA   $0,X
B28A: 00 00          NEG    <$00
B28C: A0 A0          SUBA   ,Y+
B28E: A0 30          SUBA   -$10,Y
B290: 30 30          LEAX   -$10,Y
B292: 30 A0          LEAX   ,Y+
B294: A0 A0          SUBA   ,Y+
B296: A0 A0          SUBA   ,Y+
B298: 00 00          NEG    <$00
B29A: 00 A0          NEG    <$A0
B29C: A0 B0 B0 30    SUBA   [-$4FD0,W]
B2A0: 30 B0 A0 A0    LEAX   [-$5F60,W]
B2A4: A0 A0          SUBA   ,Y+
B2A6: A0 00          SUBA   $0,X
B2A8: 00 A0          NEG    <$A0
B2AA: A0 A0          SUBA   ,Y+
B2AC: 30 30          LEAX   -$10,Y
B2AE: B0 00 B0       SUBA   >$00B0
B2B1: 00 00          NEG    <$00
B2B3: A0 A0          SUBA   ,Y+
B2B5: 00 00          NEG    <$00
B2B7: A0 A0          SUBA   ,Y+
B2B9: A0 B0 B0 B0    SUBA   [-$4F50,W]
B2BD: 00 B0          NEG    <$B0
B2BF: 00 00          NEG    <$00
B2C1: 00 A0          NEG    <$A0
B2C3: 00 00          NEG    <$00
B2C5: 00 A0          NEG    <$A0
B2C7: A0 A0          SUBA   ,Y+
B2C9: B0 B0 00       SUBA   $B000
B2CC: 00 B0          NEG    <$B0
B2CE: 00 00          NEG    <$00
B2D0: A0 00          SUBA   $0,X
B2D2: 00 00          NEG    <$00
B2D4: A0 A0          SUBA   ,Y+
B2D6: 00 B0          NEG    <$B0
B2D8: 00 00          NEG    <$00
B2DA: 00 80          NEG    <$80
B2DC: 00 00          NEG    <$00
B2DE: 80 80          SUBA   #$80
B2E0: 0B 0D          XDEC   <$0D
B2E2: 00 00          NEG    <$00
B2E4: 00 00          NEG    <$00
B2E6: B0 00 30       SUBA   >$0030
B2E9: 00 00          NEG    <$00
B2EB: 00 30          NEG    <$30
B2ED: 00 00          NEG    <$00
B2EF: 00 80          NEG    <$80
B2F1: 00 00          NEG    <$00
B2F3: B0 00 30       SUBA   >$0030
B2F6: 00 00          NEG    <$00
B2F8: 00 B0          NEG    <$B0
B2FA: 00 00          NEG    <$00
B2FC: 00 80          NEG    <$80
B2FE: 00 A0          NEG    <$A0
B300: B0 30 30       SUBA   $3030
B303: 30 B0 00 B0    LEAX   [$00B0,W]
B307: 00 A0          NEG    <$A0
B309: A0 80          SUBA   ,X+
B30B: 00 A0          NEG    <$A0
B30D: B0 90 30       SUBA   $9030
B310: B0 30 00       SUBA   $3000
B313: B0 A0 A0       SUBA   $A0A0
B316: 00 00          NEG    <$00
B318: 00 A0          NEG    <$A0
B31A: 30 90          LEAX   [,W]
B31C: 30 30          LEAX   -$10,Y
B31E: 30 B0 A0 A0    LEAX   [-$5F60,W]
B322: A0 00          SUBA   $0,X
B324: 00 A0          NEG    <$A0
B326: A0 B0 30 30    SUBA   [$3030,W]
B32A: 30 30          LEAX   -$10,Y
B32C: A0 A0          SUBA   ,Y+
B32E: A0 00          SUBA   $0,X
B330: 00 00          NEG    <$00
B332: A0 A0          SUBA   ,Y+
B334: B0 B0 30       SUBA   $B030
B337: 30 30          LEAX   -$10,Y
B339: B0 A0 A0       SUBA   $A0A0
B33C: A0 00          SUBA   $0,X
B33E: 00 A0          NEG    <$A0
B340: A0 B0 30 30    SUBA   [$3030,W]
B344: B0 00 B0       SUBA   >$00B0
B347: 00 A0          NEG    <$A0
B349: A0 00          SUBA   $0,X
B34B: 00 A0          NEG    <$A0
B34D: A0 B0 B0 B0    SUBA   [-$4F50,W]
B351: B0 00 B0       SUBA   >$00B0
B354: 00 00          NEG    <$00
B356: A0 00          SUBA   $0,X
B358: 00 A0          NEG    <$A0
B35A: A0 B0 B0 B0    SUBA   [-$4F50,W]
B35E: B0 00 B0       SUBA   >$00B0
B361: 00 00          NEG    <$00
B363: A0 00          SUBA   $0,X
B365: 00 00          NEG    <$00
B367: 00 00          NEG    <$00
B369: B0 B0 00       SUBA   $B000
B36C: 30 00          LEAX   $0,X
B36E: 00 00          NEG    <$00
B370: 80 80          SUBA   #$80
B372: 00 20          NEG    <$20
B374: 00 00          NEG    <$00
B376: 00 07          NEG    <$07
B378: 00 1F          NEG    <$1F
B37A: 1E 0B          EXG    D,DP
B37C: 1F 03          TFR    D,U
B37E: 22 20          BHI    $B3A0
B380: 26 11          BNE    $B393
B382: 09 00          ROL    <$00
B384: 00 00          NEG    <$00
B386: A0 A0          SUBA   ,Y+
B388: A0 A0          SUBA   ,Y+
B38A: A0 A0          SUBA   ,Y+
B38C: 00 00          NEG    <$00
B38E: 00 A0          NEG    <$A0
B390: A0 A0          SUBA   ,Y+
B392: A0 A0          SUBA   ,Y+
B394: A0 00          SUBA   $0,X
B396: 00 00          NEG    <$00
B398: A0 A0          SUBA   ,Y+
B39A: A0 A0          SUBA   ,Y+
B39C: B0 B0 B0       SUBA   $B0B0
B39F: B0 00 B0       SUBA   >$00B0
B3A2: B0 B0 30       SUBA   $B030
B3A5: 00 30          NEG    <$30
B3A7: 00 00          NEG    <$00
B3A9: B0 B0 B0       SUBA   $B0B0
B3AC: B0 30 00       SUBA   $3000
B3AF: 30 30          LEAX   -$10,Y
B3B1: 00 B0          NEG    <$B0
B3B3: 30 B0 30 30    LEAX   [$3030,W]
B3B7: 30 30          LEAX   -$10,Y
B3B9: 30 30          LEAX   -$10,Y
B3BB: B0 30 30       SUBA   $3030
B3BE: 30 30          LEAX   -$10,Y
B3C0: B0 30 00       SUBA   $3000
B3C3: 00 00          NEG    <$00
B3C5: B0 30 30       SUBA   $3030
B3C8: 30 30          LEAX   -$10,Y
B3CA: B0 00 00       SUBA   >$0000
B3CD: 00 00          NEG    <$00
B3CF: 00 30          NEG    <$30
B3D1: 30 00          LEAX   $0,X
B3D3: 00 00          NEG    <$00
B3D5: 00 00          NEG    <$00
B3D7: 00 A0          NEG    <$A0
B3D9: B0 A0 00       SUBA   $A000
B3DC: 00 00          NEG    <$00
B3DE: 00 00          NEG    <$00
B3E0: 00 B0          NEG    <$B0
B3E2: B0 A0 00       SUBA   $A000
B3E5: 00 00          NEG    <$00
B3E7: 00 00          NEG    <$00
B3E9: B0 B0 A0       SUBA   $B0A0
B3EC: A0 00          SUBA   $0,X
B3EE: 00 00          NEG    <$00
B3F0: 00 00          NEG    <$00
B3F2: B0 B0 B0       SUBA   $B0B0
B3F5: 30 30          LEAX   -$10,Y
B3F7: 00 00          NEG    <$00
B3F9: 00 00          NEG    <$00
B3FB: A0 B0 B0 30    SUBA   [-$4FD0,W]
B3FF: 30 00          LEAX   $0,X
B401: 00 00          NEG    <$00
B403: 00 00          NEG    <$00
B405: A0 A0          SUBA   ,Y+
B407: A0 00          SUBA   $0,X
B409: 00 00          NEG    <$00
B40B: 00 00          NEG    <$00
B40D: 80 A0          SUBA   #$A0
B40F: A0 A0          SUBA   ,Y+
B411: 00 00          NEG    <$00
B413: 00 00          NEG    <$00
B415: 00 80          NEG    <$80
B417: 00 80          NEG    <$80
B419: 80 80          SUBA   #$80
B41B: 00 00          NEG    <$00
B41D: 00 12          NEG    <$12
B41F: 09 FF          ROL    <$FF
B421: 00 00          NEG    <$00
B423: A0 A0          SUBA   ,Y+
B425: A0 A0          SUBA   ,Y+
B427: A0 A0          SUBA   ,Y+
B429: 00 00          NEG    <$00
B42B: 00 A0          NEG    <$A0
B42D: A0 A0          SUBA   ,Y+
B42F: A0 A0          SUBA   ,Y+
B431: A0 00          SUBA   $0,X
B433: 00 00          NEG    <$00
B435: A0 A0          SUBA   ,Y+
B437: A0 A0          SUBA   ,Y+
B439: B0 B0 B0       SUBA   $B0B0
B43C: B0 00 B0       SUBA   >$00B0
B43F: B0 B0 30       SUBA   $B030
B442: 00 30          NEG    <$30
B444: 00 00          NEG    <$00
B446: B0 B0 B0       SUBA   $B0B0
B449: B0 30 00       SUBA   $3000
B44C: 30 30          LEAX   -$10,Y
B44E: 00 B0          NEG    <$B0
B450: 30 B0 30 30    LEAX   [$3030,W]
B454: 30 30          LEAX   -$10,Y
B456: 30 30          LEAX   -$10,Y
B458: B0 30 30       SUBA   $3030
B45B: 30 30          LEAX   -$10,Y
B45D: B0 30 00       SUBA   $3000
B460: 00 00          NEG    <$00
B462: B0 30 30       SUBA   $3030
B465: 30 30          LEAX   -$10,Y
B467: B0 00 00       SUBA   >$0000
B46A: 00 00          NEG    <$00
B46C: 00 30          NEG    <$30
B46E: 30 00          LEAX   $0,X
B470: 00 00          NEG    <$00
B472: 00 B0          NEG    <$B0
B474: B0 B0 B0       SUBA   $B0B0
B477: A0 00          SUBA   $0,X
B479: 00 30          NEG    <$30
B47B: 00 B0          NEG    <$B0
B47D: B0 B0 B0       SUBA   $B0B0
B480: A0 00          SUBA   $0,X
B482: 00 30          NEG    <$30
B484: 00 B0          NEG    <$B0
B486: 00 A0          NEG    <$A0
B488: A0 A0          SUBA   ,Y+
B48A: B0 B0 00       SUBA   $B000
B48D: 00 30          NEG    <$30
B48F: 30 A0          LEAX   ,Y+
B491: A0 A0          SUBA   ,Y+
B493: 00 00          NEG    <$00
B495: 00 00          NEG    <$00
B497: 30 30          LEAX   -$10,Y
B499: A0 A0          SUBA   ,Y+
B49B: A0 A0          SUBA   ,Y+
B49D: A0 00          SUBA   $0,X
B49F: 00 00          NEG    <$00
B4A1: 00 A0          NEG    <$A0
B4A3: A0 A0          SUBA   ,Y+
B4A5: A0 A0          SUBA   ,Y+
B4A7: 00 00          NEG    <$00
B4A9: 80 A0          SUBA   #$A0
B4AB: A0 00          SUBA   $0,X
B4AD: 00 A0          NEG    <$A0
B4AF: A0 00          SUBA   $0,X
B4B1: 00 80          NEG    <$80
B4B3: 00 00          NEG    <$00
B4B5: 00 00          NEG    <$00
B4B7: A0 A0          SUBA   ,Y+
B4B9: 00 00          NEG    <$00
B4BB: 00 00          NEG    <$00
B4BD: 00 00          NEG    <$00
B4BF: 00 80          NEG    <$80
B4C1: 80 80          SUBA   #$80
B4C3: 00 13          NEG    <$13
B4C5: 09 FF          ROL    <$FF
B4C7: 00 00          NEG    <$00
B4C9: A0 A0          SUBA   ,Y+
B4CB: A0 A0          SUBA   ,Y+
B4CD: A0 A0          SUBA   ,Y+
B4CF: 00 00          NEG    <$00
B4D1: 00 A0          NEG    <$A0
B4D3: A0 A0          SUBA   ,Y+
B4D5: A0 A0          SUBA   ,Y+
B4D7: A0 00          SUBA   $0,X
B4D9: 00 00          NEG    <$00
B4DB: A0 A0          SUBA   ,Y+
B4DD: A0 A0          SUBA   ,Y+
B4DF: B0 B0 B0       SUBA   $B0B0
B4E2: B0 00 B0       SUBA   >$00B0
B4E5: B0 B0 30       SUBA   $B030
B4E8: 00 30          NEG    <$30
B4EA: 00 00          NEG    <$00
B4EC: B0 B0 B0       SUBA   $B0B0
B4EF: B0 30 00       SUBA   $3000
B4F2: 30 30          LEAX   -$10,Y
B4F4: 00 B0          NEG    <$B0
B4F6: 30 B0 30 30    LEAX   [$3030,W]
B4FA: 30 30          LEAX   -$10,Y
B4FC: 30 30          LEAX   -$10,Y
B4FE: B0 30 30       SUBA   $3030
B501: 30 30          LEAX   -$10,Y
B503: B0 30 00       SUBA   $3000
B506: 00 00          NEG    <$00
B508: B0 30 30       SUBA   $3030
B50B: 30 30          LEAX   -$10,Y
B50D: B0 00 00       SUBA   >$0000
B510: 00 00          NEG    <$00
B512: 00 30          NEG    <$30
B514: 30 00          LEAX   $0,X
B516: 00 00          NEG    <$00
B518: 00 00          NEG    <$00
B51A: 00 A0          NEG    <$A0
B51C: B0 A0 00       SUBA   $A000
B51F: 00 00          NEG    <$00
B521: 00 00          NEG    <$00
B523: 00 B0          NEG    <$B0
B525: B0 A0 00       SUBA   $A000
B528: 00 00          NEG    <$00
B52A: 00 00          NEG    <$00
B52C: B0 B0 A0       SUBA   $B0A0
B52F: A0 00          SUBA   $0,X
B531: 00 00          NEG    <$00
B533: 00 00          NEG    <$00
B535: B0 B0 B0       SUBA   $B0B0
B538: 30 30          LEAX   -$10,Y
B53A: 00 00          NEG    <$00
B53C: 00 00          NEG    <$00
B53E: A0 B0 B0 30    SUBA   [-$4FD0,W]
B542: 30 00          LEAX   $0,X
B544: 00 00          NEG    <$00
B546: 00 00          NEG    <$00
B548: A0 A0          SUBA   ,Y+
B54A: 00 00          NEG    <$00
B54C: 00 00          NEG    <$00
B54E: 00 00          NEG    <$00
B550: 80 A0          SUBA   #$A0
B552: A0 A0          SUBA   ,Y+
B554: 00 00          NEG    <$00
B556: 00 00          NEG    <$00
B558: 00 80          NEG    <$80
B55A: 00 A0          NEG    <$A0
B55C: A0 00          SUBA   $0,X
B55E: 00 00          NEG    <$00
B560: 00 00          NEG    <$00
B562: 00 00          NEG    <$00
B564: A0 A0          SUBA   ,Y+
B566: 00 00          NEG    <$00
B568: 00 00          NEG    <$00
B56A: 00 00          NEG    <$00
B56C: 00 80          NEG    <$80
B56E: 80 80          SUBA   #$80
B570: 00 00          NEG    <$00
B572: 00 12          NEG    <$12
B574: 09 FF          ROL    <$FF
B576: 00 00          NEG    <$00
B578: A0 A0          SUBA   ,Y+
B57A: A0 A0          SUBA   ,Y+
B57C: A0 A0          SUBA   ,Y+
B57E: 00 00          NEG    <$00
B580: 00 A0          NEG    <$A0
B582: A0 A0          SUBA   ,Y+
B584: A0 A0          SUBA   ,Y+
B586: A0 00          SUBA   $0,X
B588: 00 00          NEG    <$00
B58A: A0 A0          SUBA   ,Y+
B58C: A0 A0          SUBA   ,Y+
B58E: B0 B0 B0       SUBA   $B0B0
B591: B0 00 B0       SUBA   >$00B0
B594: B0 B0 30       SUBA   $B030
B597: 00 30          NEG    <$30
B599: 00 00          NEG    <$00
B59B: B0 B0 B0       SUBA   $B0B0
B59E: B0 30 00       SUBA   $3000
B5A1: 30 30          LEAX   -$10,Y
B5A3: 00 B0          NEG    <$B0
B5A5: 30 B0 30 30    LEAX   [$3030,W]
B5A9: 30 30          LEAX   -$10,Y
B5AB: 30 30          LEAX   -$10,Y
B5AD: B0 30 30       SUBA   $3030
B5B0: 30 30          LEAX   -$10,Y
B5B2: B0 30 00       SUBA   $3000
B5B5: 00 00          NEG    <$00
B5B7: B0 30 30       SUBA   $3030
B5BA: 30 30          LEAX   -$10,Y
B5BC: B0 00 00       SUBA   >$0000
B5BF: 00 00          NEG    <$00
B5C1: 00 30          NEG    <$30
B5C3: 30 00          LEAX   $0,X
B5C5: 00 00          NEG    <$00
B5C7: 00 B0          NEG    <$B0
B5C9: B0 A0 B0       SUBA   $A0B0
B5CC: A0 00          SUBA   $0,X
B5CE: 00 00          NEG    <$00
B5D0: 00 30          NEG    <$30
B5D2: 00 A0          NEG    <$A0
B5D4: B0 A0 00       SUBA   $A000
B5D7: 00 00          NEG    <$00
B5D9: 00 30          NEG    <$30
B5DB: 00 A0          NEG    <$A0
B5DD: B0 B0 B0       SUBA   $B0B0
B5E0: 30 30          LEAX   -$10,Y
B5E2: 00 00          NEG    <$00
B5E4: A0 A0          SUBA   ,Y+
B5E6: B0 B0 B0       SUBA   $B0B0
B5E9: 30 30          LEAX   -$10,Y
B5EB: 00 00          NEG    <$00
B5ED: A0 A0          SUBA   ,Y+
B5EF: A0 A0          SUBA   ,Y+
B5F1: 00 00          NEG    <$00
B5F3: 00 00          NEG    <$00
B5F5: 00 00          NEG    <$00
B5F7: A0 A0          SUBA   ,Y+
B5F9: A0 A0          SUBA   ,Y+
B5FB: A0 00          SUBA   $0,X
B5FD: 00 80          NEG    <$80
B5FF: A0 A0          SUBA   ,Y+
B601: A0 00          SUBA   $0,X
B603: 00 A0          NEG    <$A0
B605: 00 00          NEG    <$00
B607: 80 A0          SUBA   #$A0
B609: A0 A0          SUBA   ,Y+
B60B: 00 00          NEG    <$00
B60D: 80 80          SUBA   #$80
B60F: 00 80          NEG    <$80
B611: 00 00          NEG    <$00
B613: 00 00          NEG    <$00
B615: 00 00          NEG    <$00
B617: 00 00          NEG    <$00
B619: 12             NOP
B61A: 09 00          ROL    <$00
B61C: 00 00          NEG    <$00
B61E: 00 00          NEG    <$00
B620: 00 A0          NEG    <$A0
B622: 00 00          NEG    <$00
B624: 00 00          NEG    <$00
B626: 00 00          NEG    <$00
B628: A0 A0          SUBA   ,Y+
B62A: A0 00          SUBA   $0,X
B62C: 00 00          NEG    <$00
B62E: 00 00          NEG    <$00
B630: A0 A0          SUBA   ,Y+
B632: A0 A0          SUBA   ,Y+
B634: A0 B0 B0 00    SUBA   [-$5000,W]
B638: A0 A0          SUBA   ,Y+
B63A: A0 A0          SUBA   ,Y+
B63C: A0 B0 30 00    SUBA   [$3000,W]
B640: 00 A0          NEG    <$A0
B642: A0 A0          SUBA   ,Y+
B644: B0 30 90       SUBA   $3090
B647: 30 00          LEAX   $0,X
B649: 00 00          NEG    <$00
B64B: A0 B0 B0 30    SUBA   [-$4FD0,W]
B64F: 90 30          SUBA   <$30
B651: 30 00          LEAX   $0,X
B653: B0 B0 30       SUBA   $B030
B656: B0 30 30       SUBA   $3030
B659: 30 30          LEAX   -$10,Y
B65B: 30 B0 B0 30    LEAX   [-$4FD0,W]
B65F: 30 30          LEAX   -$10,Y
B661: B0 30 00       SUBA   $3000
B664: 00 00          NEG    <$00
B666: B0 B0 30       SUBA   $B030
B669: 30 30          LEAX   -$10,Y
B66B: B0 00 00       SUBA   >$0000
B66E: 00 00          NEG    <$00
B670: 00 30          NEG    <$30
B672: 30 00          LEAX   $0,X
B674: 00 00          NEG    <$00
B676: 30 00          LEAX   $0,X
B678: 00 B0          NEG    <$B0
B67A: B0 A0 B0       SUBA   $A0B0
B67D: B0 B0 30       SUBA   $B030
B680: 00 B0          NEG    <$B0
B682: B0 A0 A0       SUBA   $A0A0
B685: B0 00 00       SUBA   >$0000
B688: 00 30          NEG    <$30
B68A: B0 00 A0       SUBA   >$00A0
B68D: A0 A0          SUBA   ,Y+
B68F: A0 00          SUBA   $0,X
B691: 80 30          SUBA   #$30
B693: 00 00          NEG    <$00
B695: A0 A0          SUBA   ,Y+
B697: A0 A0          SUBA   ,Y+
B699: A0 80          SUBA   ,X+
B69B: 00 00          NEG    <$00
B69D: A0 A0          SUBA   ,Y+
B69F: 00 00          NEG    <$00
B6A1: A0 A0          SUBA   ,Y+
B6A3: 80 80          SUBA   #$80
B6A5: A0 A0          SUBA   ,Y+
B6A7: A0 00          SUBA   $0,X
B6A9: 00 00          NEG    <$00
B6AB: 80 00          SUBA   #$00
B6AD: 80 A0          SUBA   #$A0
B6AF: A0 00          SUBA   $0,X
B6B1: 00 00          NEG    <$00
B6B3: 00 00          NEG    <$00
B6B5: 00 80          NEG    <$80
B6B7: 00 00          NEG    <$00
B6B9: 00 00          NEG    <$00
B6BB: 00 00          NEG    <$00
B6BD: 00 00          NEG    <$00
B6BF: 11 09 00       ROL    <$00
B6C2: 00 00          NEG    <$00
B6C4: A0 A0          SUBA   ,Y+
B6C6: A0 00          SUBA   $0,X
B6C8: 00 00          NEG    <$00
B6CA: 00 00          NEG    <$00
B6CC: 00 A0          NEG    <$A0
B6CE: A0 A0          SUBA   ,Y+
B6D0: A0 A0          SUBA   ,Y+
B6D2: A0 00          SUBA   $0,X
B6D4: 00 00          NEG    <$00
B6D6: A0 A0          SUBA   ,Y+
B6D8: A0 A0          SUBA   ,Y+
B6DA: B0 B0 B0       SUBA   $B0B0
B6DD: B0 00 B0       SUBA   >$00B0
B6E0: B0 B0 30       SUBA   $B030
B6E3: 90 30          SUBA   <$30
B6E5: 00 00          NEG    <$00
B6E7: B0 B0 B0       SUBA   $B0B0
B6EA: B0 30 90       SUBA   $3090
B6ED: 30 30          LEAX   -$10,Y
B6EF: 00 B0          NEG    <$B0
B6F1: 30 B0 30 30    LEAX   [$3030,W]
B6F5: 30 30          LEAX   -$10,Y
B6F7: 30 30          LEAX   -$10,Y
B6F9: B0 30 30       SUBA   $3030
B6FC: 30 30          LEAX   -$10,Y
B6FE: B0 30 00       SUBA   $3000
B701: 00 00          NEG    <$00
B703: B0 30 30       SUBA   $3030
B706: 30 30          LEAX   -$10,Y
B708: B0 00 00       SUBA   >$0000
B70B: 30 00          LEAX   $0,X
B70D: 00 30          NEG    <$30
B70F: 30 00          LEAX   $0,X
B711: 00 00          NEG    <$00
B713: 00 00          NEG    <$00
B715: B0 B0 B0       SUBA   $B0B0
B718: A0 B0 00 00    SUBA   [$0000,W]
B71C: 00 00          NEG    <$00
B71E: 00 00          NEG    <$00
B720: A0 A0          SUBA   ,Y+
B722: A0 B0 B0 30    SUBA   [-$4FD0,W]
B726: 00 00          NEG    <$00
B728: 00 A0          NEG    <$A0
B72A: A0 A0          SUBA   ,Y+
B72C: 00 00          NEG    <$00
B72E: 00 00          NEG    <$00
B730: 00 A0          NEG    <$A0
B732: A0 A0          SUBA   ,Y+
B734: A0 A0          SUBA   ,Y+
B736: 00 00          NEG    <$00
B738: 80 A0          SUBA   #$A0
B73A: A0 A0          SUBA   ,Y+
B73C: 00 A0          NEG    <$A0
B73E: A0 A0          SUBA   ,Y+
B740: 00 80          NEG    <$80
B742: 00 00          NEG    <$00
B744: 00 00          NEG    <$00
B746: 00 A0          NEG    <$A0
B748: A0 00          SUBA   $0,X
B74A: 00 00          NEG    <$00
B74C: 00 00          NEG    <$00
B74E: 00 00          NEG    <$00
B750: A0 A0          SUBA   ,Y+
B752: 00 00          NEG    <$00
B754: 00 00          NEG    <$00
B756: 00 00          NEG    <$00
B758: 00 80          NEG    <$80
B75A: 80 80          SUBA   #$80
B75C: 10 0D 00       TST    <$00
B75F: 00 00          NEG    <$00
B761: 00 00          NEG    <$00
B763: 00 00          NEG    <$00
B765: 00 00          NEG    <$00
B767: B0 00 A0       SUBA   >$00A0
B76A: A0 00          SUBA   $0,X
B76C: 00 00          NEG    <$00
B76E: 00 00          NEG    <$00
B770: 00 00          NEG    <$00
B772: 00 00          NEG    <$00
B774: 00 B0          NEG    <$B0
B776: A0 A0          SUBA   ,Y+
B778: A0 00          SUBA   $0,X
B77A: 00 00          NEG    <$00
B77C: 00 30          NEG    <$30
B77E: 00 00          NEG    <$00
B780: 00 30          NEG    <$30
B782: 30 B0 A0 A0    LEAX   [-$5F60,W]
B786: A0 00          SUBA   $0,X
B788: 00 00          NEG    <$00
B78A: B0 00 00       SUBA   >$0000
B78D: 00 30          NEG    <$30
B78F: 90 30          SUBA   <$30
B791: B0 A0 A0       SUBA   $A0A0
B794: 00 00          NEG    <$00
B796: 00 B0          NEG    <$B0
B798: 00 00          NEG    <$00
B79A: 30 30          LEAX   -$10,Y
B79C: 30 30          LEAX   -$10,Y
B79E: 30 A0          LEAX   ,Y+
B7A0: A0 00          SUBA   $0,X
B7A2: 00 00          NEG    <$00
B7A4: 00 B0          NEG    <$B0
B7A6: 00 B0          NEG    <$B0
B7A8: B0 30 30       SUBA   $3030
B7AB: 90 30          SUBA   <$30
B7AD: 00 80          NEG    <$80
B7AF: 00 00          NEG    <$00
B7B1: 00 B0          NEG    <$B0
B7B3: 00 00          NEG    <$00
B7B5: 30 B0 30 30    LEAX   [$3030,W]
B7B9: 30 00          LEAX   $0,X
B7BB: 80 00          SUBA   #$00
B7BD: 00 00          NEG    <$00
B7BF: 00 A0          NEG    <$A0
B7C1: 30 00          LEAX   $0,X
B7C3: B0 30 00       SUBA   $3000
B7C6: 00 00          NEG    <$00
B7C8: 80 A0          SUBA   #$A0
B7CA: 00 00          NEG    <$00
B7CC: A0 A0          SUBA   ,Y+
B7CE: A0 00          SUBA   $0,X
B7D0: 00 00          NEG    <$00
B7D2: 00 00          NEG    <$00
B7D4: 00 80          NEG    <$80
B7D6: A0 A0          SUBA   ,Y+
B7D8: A0 A0          SUBA   ,Y+
B7DA: A0 A0          SUBA   ,Y+
B7DC: B0 B0 00       SUBA   $B000
B7DF: 00 00          NEG    <$00
B7E1: 00 00          NEG    <$00
B7E3: 00 A0          NEG    <$A0
B7E5: A0 A0          SUBA   ,Y+
B7E7: A0 A0          SUBA   ,Y+
B7E9: 00 B0          NEG    <$B0
B7EB: B0 B0 30       SUBA   $B030
B7EE: 00 00          NEG    <$00
B7F0: 00 00          NEG    <$00
B7F2: 00 A0          NEG    <$A0
B7F4: A0 A0          SUBA   ,Y+
B7F6: 00 00          NEG    <$00
B7F8: 00 00          NEG    <$00
B7FA: 00 00          NEG    <$00
B7FC: 00 00          NEG    <$00
B7FE: 00 00          NEG    <$00
B800: 00 A0          NEG    <$A0
B802: A0 00          SUBA   $0,X
B804: 00 00          NEG    <$00
B806: 00 00          NEG    <$00
B808: 00 00          NEG    <$00
B80A: 00 00          NEG    <$00
B80C: 00 00          NEG    <$00
B80E: A0 A0          SUBA   ,Y+
B810: 00 00          NEG    <$00
B812: 00 00          NEG    <$00
B814: 00 00          NEG    <$00
B816: 00 00          NEG    <$00
B818: 00 00          NEG    <$00
B81A: 00 00          NEG    <$00
B81C: A0 A0          SUBA   ,Y+
B81E: 00 00          NEG    <$00
B820: 00 00          NEG    <$00
B822: 00 00          NEG    <$00
B824: 00 00          NEG    <$00
B826: 00 00          NEG    <$00
B828: 00 80          NEG    <$80
B82A: 80 80          SUBA   #$80
B82C: 00 00          NEG    <$00
B82E: 00 00          NEG    <$00
B830: 00 00          NEG    <$00
B832: DE 30          LDU    <$30
B834: DD E4          STD    <$E4
B836: DE 28          LDU    <$28
B838: DD DC          STD    <$DC
B83A: DE 20          LDU    <$20
B83C: DD D4          STD    <$D4
B83E: DE 18          LDU    <$18
B840: DD CC          STD    <$CC
B842: DE 10          LDU    <$10
B844: DD C4          STD    <$C4
B846: DE 08          LDU    <$08
B848: B8 30 09       EORA   $3009
B84B: 0A 00          DEC    <$00
B84D: FA 80 80       ORB    $8080
B850: 80 80          SUBA   #$80
B852: 80 80          SUBA   #$80
B854: 80 80          SUBA   #$80
B856: 80 80          SUBA   #$80
B858: 80 00          SUBA   #$00
B85A: 00 00          NEG    <$00
B85C: 00 00          NEG    <$00
B85E: 00 00          NEG    <$00
B860: 00 00          NEG    <$00
B862: 80 00          SUBA   #$00
B864: C0 C0          SUBB   #$C0
B866: C0 C0          SUBB   #$C0
B868: C0 00          SUBB   #$00
B86A: C0 00          SUBB   #$00
B86C: 80 00          SUBA   #$00
B86E: C0 C0          SUBB   #$C0
B870: 00 00          NEG    <$00
B872: 00 00          NEG    <$00
B874: C0 C0          SUBB   #$C0
B876: 80 00          SUBA   #$00
B878: C0 C0          SUBB   #$C0
B87A: C0 C0          SUBB   #$C0
B87C: 00 00          NEG    <$00
B87E: C0 C0          SUBB   #$C0
B880: 80 00          SUBA   #$00
B882: C0 C0          SUBB   #$C0
B884: 00 00          NEG    <$00
B886: 00 00          NEG    <$00
B888: C0 C0          SUBB   #$C0
B88A: 80 00          SUBA   #$00
B88C: C0 C0          SUBB   #$C0
B88E: C0 C0          SUBB   #$C0
B890: C0 00          SUBB   #$00
B892: C0 C0          SUBB   #$C0
B894: 80 00          SUBA   #$00
B896: 00 00          NEG    <$00
B898: 00 00          NEG    <$00
B89A: 00 00          NEG    <$00
B89C: 00 00          NEG    <$00
B89E: 80 80          SUBA   #$80
B8A0: 80 80          SUBA   #$80
B8A2: 80 80          SUBA   #$80
B8A4: 80 80          SUBA   #$80
B8A6: 80 80          SUBA   #$80
B8A8: 09 0B          ROL    <$0B
B8AA: 00 05          NEG    <$05
B8AC: 80 80          SUBA   #$80
B8AE: 80 80          SUBA   #$80
B8B0: 80 80          SUBA   #$80
B8B2: 80 80          SUBA   #$80
B8B4: 80 80          SUBA   #$80
B8B6: 80 00          SUBA   #$00
B8B8: 00 00          NEG    <$00
B8BA: 00 00          NEG    <$00
B8BC: 00 00          NEG    <$00
B8BE: 00 00          NEG    <$00
B8C0: 00 80          NEG    <$80
B8C2: 00 00          NEG    <$00
B8C4: C0 00          SUBB   #$00
B8C6: C0 C0          SUBB   #$C0
B8C8: C0 C0          SUBB   #$C0
B8CA: 00 00          NEG    <$00
B8CC: 80 00          SUBA   #$00
B8CE: 00 C0          NEG    <$C0
B8D0: 00 C0          NEG    <$C0
B8D2: C0 00          SUBB   #$00
B8D4: 00 C0          NEG    <$C0
B8D6: 00 80          NEG    <$80
B8D8: C0 00          SUBB   #$00
B8DA: C0 00          SUBB   #$00
B8DC: C0 C0          SUBB   #$C0
B8DE: 00 00          NEG    <$00
B8E0: C0 00          SUBB   #$00
B8E2: 80 00          SUBA   #$00
B8E4: C0 C0          SUBB   #$C0
B8E6: 00 C0          NEG    <$C0
B8E8: C0 00          SUBB   #$00
B8EA: 00 C0          NEG    <$C0
B8EC: 00 80          NEG    <$80
B8EE: 00 00          NEG    <$00
B8F0: C0 00          SUBB   #$00
B8F2: C0 C0          SUBB   #$C0
B8F4: C0 C0          SUBB   #$C0
B8F6: 00 00          NEG    <$00
B8F8: 80 00          SUBA   #$00
B8FA: 00 00          NEG    <$00
B8FC: 00 00          NEG    <$00
B8FE: 00 00          NEG    <$00
B900: 00 00          NEG    <$00
B902: 00 80          NEG    <$80
B904: 80 80          SUBA   #$80
B906: 80 80          SUBA   #$80
B908: 80 80          SUBA   #$80
B90A: 80 80          SUBA   #$80
B90C: 80 80          SUBA   #$80
B90E: 80 00          SUBA   #$00
B910: 00 DF          NEG    <$DF
B912: 2B DE          BMI    $B8F2
B914: DF DF          STU    <$DF
B916: 23 DE          BLS    $B8F6
B918: D7 DF          STB    <$DF
B91A: 1B             NOP
B91B: DE CF          LDU    <$CF
B91D: DF 13          STU    <$13
B91F: DE C7          LDU    <$C7
B921: DF 0B          STU    <$0B
B923: DE BF          LDU    <$BF
B925: DF 03          STU    <$03
B927: B9 0F 09       ADCA   $0F09
B92A: 07 00          ASR    <$00
B92C: 00 00          NEG    <$00
B92E: 00 00          NEG    <$00
B930: 00 00          NEG    <$00
B932: 00 00          NEG    <$00
B934: 00 00          NEG    <$00
B936: 00 00          NEG    <$00
B938: 00 00          NEG    <$00
B93A: 00 00          NEG    <$00
B93C: 00 10          NEG    <$10
B93E: 00 00          NEG    <$00
B940: 00 00          NEG    <$00
B942: 00 00          NEG    <$00
B944: 00 60          NEG    <$60
B946: 10 00 00       NEG    <$00
B949: 00 00          NEG    <$00
B94B: 60 60          NEG    $0,S
B94D: 60 00          NEG    $0,X
B94F: 00 00          NEG    <$00
B951: 10 00 60       NEG    <$60
B954: 00 10          NEG    <$10
B956: 00 00          NEG    <$00
B958: 00 00          NEG    <$00
B95A: 10 00 00       NEG    <$00
B95D: 00 00          NEG    <$00
B95F: 00 00          NEG    <$00
B961: 00 00          NEG    <$00
B963: 00 00          NEG    <$00
B965: 00 00          NEG    <$00
B967: 00 00          NEG    <$00
B969: 00 00          NEG    <$00
B96B: 00 09          NEG    <$09
B96D: 07 01          ASR    <$01
B96F: 00 00          NEG    <$00
B971: 00 00          NEG    <$00
B973: 00 00          NEG    <$00
B975: 00 00          NEG    <$00
B977: 00 00          NEG    <$00
B979: 50             NEGB
B97A: 00 00          NEG    <$00
B97C: 00 00          NEG    <$00
B97E: 00 00          NEG    <$00
B980: 00 00          NEG    <$00
B982: 00 00          NEG    <$00
B984: 00 00          NEG    <$00
B986: 00 40          NEG    <$40
B988: 40             NEGA
B989: 50             NEGB
B98A: 50             NEGB
B98B: 00 00          NEG    <$00
B98D: 50             NEGB
B98E: 00 10          NEG    <$10
B990: 50             NEGB
B991: 40             NEGA
B992: 00 00          NEG    <$00
B994: 00 40          NEG    <$40
B996: 10 40          NEGA
B998: 00 00          NEG    <$00
B99A: 00 00          NEG    <$00
B99C: 00 00          NEG    <$00
B99E: 00 00          NEG    <$00
B9A0: 00 00          NEG    <$00
B9A2: 00 50          NEG    <$50
B9A4: 00 00          NEG    <$00
B9A6: 00 00          NEG    <$00
B9A8: 00 00          NEG    <$00
B9AA: 00 00          NEG    <$00
B9AC: 00 00          NEG    <$00
B9AE: 00 09          NEG    <$09
B9B0: 07 00          ASR    <$00
B9B2: 00 00          NEG    <$00
B9B4: 00 00          NEG    <$00
B9B6: 00 50          NEG    <$50
B9B8: 00 00          NEG    <$00
B9BA: 00 60          NEG    <$60
B9BC: 00 00          NEG    <$00
B9BE: 00 00          NEG    <$00
B9C0: 00 00          NEG    <$00
B9C2: 00 10          NEG    <$10
B9C4: 00 00          NEG    <$00
B9C6: 00 40          NEG    <$40
B9C8: 00 00          NEG    <$00
B9CA: 30 10          LEAX   -$10,X
B9CC: 60 10          NEG    -$10,X
B9CE: 00 00          NEG    <$00
B9D0: 00 00          NEG    <$00
B9D2: 30 10          LEAX   -$10,X
B9D4: 10 00 00       NEG    <$00
B9D7: 00 30          NEG    <$30
B9D9: 50             NEGB
B9DA: 50             NEGB
B9DB: 00 00          NEG    <$00
B9DD: 00 40          NEG    <$40
B9DF: 40             NEGA
B9E0: 50             NEGB
B9E1: 00 00          NEG    <$00
B9E3: 00 00          NEG    <$00
B9E5: 40             NEGA
B9E6: 00 00          NEG    <$00
B9E8: 50             NEGB
B9E9: 00 00          NEG    <$00
B9EB: 00 00          NEG    <$00
B9ED: 00 00          NEG    <$00
B9EF: 00 00          NEG    <$00
B9F1: 00 09          NEG    <$09
B9F3: 07 00          ASR    <$00
B9F5: 01 00          NEG    <$00
B9F7: 00 00          NEG    <$00
B9F9: 00 00          NEG    <$00
B9FB: 00 00          NEG    <$00
B9FD: 00 00          NEG    <$00
B9FF: 00 00          NEG    <$00
BA01: 00 00          NEG    <$00
BA03: 00 00          NEG    <$00
BA05: 00 00          NEG    <$00
BA07: 40             NEGA
BA08: 00 00          NEG    <$00
BA0A: 00 00          NEG    <$00
BA0C: 40             NEGA
BA0D: 60 00          NEG    $0,X
BA0F: 50             NEGB
BA10: 00 00          NEG    <$00
BA12: 00 00          NEG    <$00
BA14: 00 40          NEG    <$40
BA16: 60 00          NEG    $0,X
BA18: 00 00          NEG    <$00
BA1A: 00 60          NEG    <$60
BA1C: 00 40          NEG    <$40
BA1E: 00 00          NEG    <$00
BA20: 00 00          NEG    <$00
BA22: 00 10          NEG    <$10
BA24: 00 00          NEG    <$00
BA26: 00 00          NEG    <$00
BA28: 00 00          NEG    <$00
BA2A: 10 00 00       NEG    <$00
BA2D: 00 00          NEG    <$00
BA2F: 00 60          NEG    <$60
BA31: 00 00          NEG    <$00
BA33: 00 00          NEG    <$00
BA35: 09 07          ROL    <$07
BA37: 00 FF          NEG    <$FF
BA39: 00 00          NEG    <$00
BA3B: 00 00          NEG    <$00
BA3D: 00 00          NEG    <$00
BA3F: 00 00          NEG    <$00
BA41: 00 00          NEG    <$00
BA43: 00 00          NEG    <$00
BA45: 00 00          NEG    <$00
BA47: 00 00          NEG    <$00
BA49: 00 10          NEG    <$10
BA4B: 00 00          NEG    <$00
BA4D: 00 00          NEG    <$00
BA4F: 60 00          NEG    $0,X
BA51: 00 40          NEG    <$40
BA53: 00 00          NEG    <$00
BA55: 00 00          NEG    <$00
BA57: 00 10          NEG    <$10
BA59: 30 00          LEAX   $0,X
BA5B: 00 00          NEG    <$00
BA5D: 00 10          NEG    <$10
BA5F: 30 00          LEAX   $0,X
BA61: 00 00          NEG    <$00
BA63: 00 00          NEG    <$00
BA65: 50             NEGB
BA66: 50             NEGB
BA67: 30 00          LEAX   $0,X
BA69: 00 00          NEG    <$00
BA6B: 00 00          NEG    <$00
BA6D: 00 00          NEG    <$00
BA6F: 00 00          NEG    <$00
BA71: 00 00          NEG    <$00
BA73: 00 00          NEG    <$00
BA75: 50             NEGB
BA76: 00 00          NEG    <$00
BA78: 09 07          ROL    <$07
BA7A: FF 00 00       STU    >$0000
BA7D: 00 00          NEG    <$00
BA7F: 50             NEGB
BA80: 00 00          NEG    <$00
BA82: 00 70          NEG    <$70
BA84: 00 00          NEG    <$00
BA86: 50             NEGB
BA87: 00 00          NEG    <$00
BA89: 00 00          NEG    <$00
BA8B: 50             NEGB
BA8C: 00 00          NEG    <$00
BA8E: 00 40          NEG    <$40
BA90: 00 00          NEG    <$00
BA92: 10             FCB    $10
BA93: 10 60 00       NEG    $0,X
BA96: 40             NEGA
BA97: 00 00          NEG    <$00
BA99: 00 10          NEG    <$10
BA9B: 60 40          NEG    $0,U
BA9D: 40             NEGA
BA9E: 00 00          NEG    <$00
BAA0: 00 00          NEG    <$00
BAA2: 60 00          NEG    $0,X
BAA4: 00 00          NEG    <$00
BAA6: 70 00 10       NEG    >$0010
BAA9: 00 00          NEG    <$00
BAAB: 00 00          NEG    <$00
BAAD: 00 00          NEG    <$00
BAAF: 10 00 10       NEG    <$10
BAB2: 00 00          NEG    <$00
BAB4: 00 00          NEG    <$00
BAB6: 00 00          NEG    <$00
BAB8: 00 50          NEG    <$50
BABA: 00 09          NEG    <$09
BABC: 07 01          ASR    <$01
BABE: 01 00          NEG    <$00
BAC0: 00 00          NEG    <$00
BAC2: 00 00          NEG    <$00
BAC4: 00 00          NEG    <$00
BAC6: 00 30          NEG    <$30
BAC8: 00 40          NEG    <$40
BACA: 00 00          NEG    <$00
BACC: 00 00          NEG    <$00
BACE: 00 10          NEG    <$10
BAD0: 40             NEGA
BAD1: 00 10          NEG    <$10
BAD3: 00 00          NEG    <$00
BAD5: 00 50          NEG    <$50
BAD7: 40             NEGA
BAD8: 10 00 00       NEG    <$00
BADB: 30 50          LEAX   -$10,U
BADD: 50             NEGB
BADE: 00 10          NEG    <$10
BAE0: 00 00          NEG    <$00
BAE2: 00 00          NEG    <$00
BAE4: 50             NEGB
BAE5: 40             NEGA
BAE6: 00 50          NEG    <$50
BAE8: 50             NEGB
BAE9: 00 50          NEG    <$50
BAEB: 00 60          NEG    <$60
BAED: 00 00          NEG    <$00
BAEF: 00 30          NEG    <$30
BAF1: 00 00          NEG    <$00
BAF3: 60 00          NEG    $0,X
BAF5: 00 00          NEG    <$00
BAF7: 00 00          NEG    <$00
BAF9: 00 00          NEG    <$00
BAFB: 00 00          NEG    <$00
BAFD: 00 09          NEG    <$09
BAFF: 07 00          ASR    <$00
BB01: 01 00          NEG    <$00
BB03: 00 00          NEG    <$00
BB05: 00 30          NEG    <$30
BB07: 30 00          LEAX   $0,X
BB09: 00 00          NEG    <$00
BB0B: 00 30          NEG    <$30
BB0D: 00 00          NEG    <$00
BB0F: 00 50          NEG    <$50
BB11: 00 00          NEG    <$00
BB13: 30 00          LEAX   $0,X
BB15: 10 00 00       NEG    <$00
BB18: 50             NEGB
BB19: 00 60          NEG    <$60
BB1B: 00 00          NEG    <$00
BB1D: 00 10          NEG    <$10
BB1F: 00 50          NEG    <$50
BB21: 10 60 00       NEG    $0,X
BB24: 00 00          NEG    <$00
BB26: 00 00          NEG    <$00
BB28: 10 00 60       NEG    <$60
BB2B: 00 10          NEG    <$10
BB2D: 10             FCB    $10
BB2E: 10 00 00       NEG    <$00
BB31: 60 00          NEG    $0,X
BB33: 00 00          NEG    <$00
BB35: 00 00          NEG    <$00
BB37: 00 60          NEG    <$60
BB39: 00 00          NEG    <$00
BB3B: 40             NEGA
BB3C: 00 00          NEG    <$00
BB3E: 60 00          NEG    $0,X
BB40: 00 06          NEG    <$06
BB42: 05 00          LSR    <$00
BB44: 00 F0          NEG    <$F0
BB46: F0 F0 F0       SUBB   $F0F0
BB49: F0 F0 F0       SUBB   $F0F0
BB4C: F0 F0 F0       SUBB   $F0F0
BB4F: F0 F0 F0       SUBB   $F0F0
BB52: F0 F0 F0       SUBB   $F0F0
BB55: F0 F0 F0       SUBB   $F0F0
BB58: F0 F0 F0       SUBB   $F0F0
BB5B: F0 F0 F0       SUBB   $F0F0
BB5E: F0 F0 F0       SUBB   $F0F0
BB61: F0 F0 00       SUBB   $F000
BB64: 00 E1          NEG    <$E1
BB66: E2 E1          SBCB   ,S++
BB68: 7D E1 DA       TST    $E1DA
BB6B: E1 75          CMPB   -$B,S
BB6D: E1 D2          CMPB   Illegal Postbyte
BB6F: E1 6D          CMPB   $D,S
BB71: E1 CA          CMPB   F,U
BB73: E1 65          CMPB   $5,S
BB75: E1 C2          CMPB   ,-U
BB77: E1 5D          CMPB   -$3,U
BB79: E1 BA          CMPB   [F,Y]
BB7B: E1 55          CMPB   -$B,U
BB7D: E1 B2          CMPB   Illegal Postbyte
BB7F: E1 4D          CMPB   $D,U
BB81: E1 AA          CMPB   F,Y
BB83: E1 45          CMPB   $5,U
BB85: E1 A2          CMPB   ,-Y
BB87: E1 3D          CMPB   -$3,Y
BB89: 00 00          NEG    <$00
BB8B: E2 AA          SBCB   F,Y
BB8D: E2 45          SBCB   $5,U
BB8F: E2 A2          SBCB   ,-Y
BB91: E2 3D          SBCB   -$3,Y
BB93: E2 9A          SBCB   [F,X]
BB95: E2 35          SBCB   -$B,Y
BB97: E2 92          SBCB   Illegal Postbyte
BB99: E2 2D          SBCB   $D,Y
BB9B: E2 8A          SBCB   F,X
BB9D: E2 25          SBCB   $5,Y
BB9F: E2 82          SBCB   ,-X
BBA1: E2 1D          SBCB   -$3,X
BBA3: E2 7A          SBCB   -$6,S
BBA5: E2 15          SBCB   -$B,X
BBA7: E2 72          SBCB   -$E,S
BBA9: E2 0D          SBCB   $D,X
BBAB: E2 6A          SBCB   $A,S
BBAD: E2 05          SBCB   $5,X
BBAF: 00 00          NEG    <$00
BBB1: E3 71          ADDD   -$F,S
BBB3: E3 0D          ADDD   $D,X
BBB5: E3 69          ADDD   $9,S
BBB7: E3 05          ADDD   $5,X
BBB9: E3 61          ADDD   $1,S
BBBB: E2 FD E3 59    SBCB   [$9F18,PCR]
BBBF: E2 F5          SBCB   [B,S]
BBC1: E3 51          ADDD   -$F,U
BBC3: E2 ED E3 49    SBCB   $9F10,PCR
BBC7: E2 E5          SBCB   B,S
BBC9: E3 41          ADDD   $1,U
BBCB: E2 DD E3 39    SBCB   [$9F08,PCR]
BBCF: E2 D5          SBCB   [B,U]
BBD1: E3 31          ADDD   -$F,Y
BBD3: E2 CD 00 00    SBCB   $BBD7,PCR
BBD7: E4 37          ANDB   -$9,Y
BBD9: E3 D3          ADDD   [,--U]
BBDB: E4 2F          ANDB   $F,Y
BBDD: E3 CB          ADDD   D,U
BBDF: E4 27          ANDB   $7,Y
BBE1: E3 C3          ADDD   ,--U
BBE3: E4 1F          ANDB   -$1,X
BBE5: E3 BB          ADDD   [D,Y]
BBE7: E4 17          ANDB   -$9,X
BBE9: E3 B3          ADDD   [,--Y]
BBEB: E4 0F          ANDB   $F,X
BBED: E3 AB          ADDD   D,Y
BBEF: E4 07          ANDB   $7,X
BBF1: E3 A3          ADDD   ,--Y
BBF3: E3 FF E3 9B    ADDD   [$E39B]
BBF7: E3 F7          ADDD   [E,S]
BBF9: E3 93          ADDD   [,--X]
BBFB: 12             NOP
BBFC: 10 FF F8 00    STS    $F800
BC00: 00 00          NEG    <$00
BC02: 00 00          NEG    <$00
BC04: 00 10          NEG    <$10
BC06: 00 00          NEG    <$00
BC08: 00 00          NEG    <$00
BC0A: 00 00          NEG    <$00
BC0C: 00 00          NEG    <$00
BC0E: 00 00          NEG    <$00
BC10: 00 00          NEG    <$00
BC12: 00 10          NEG    <$10
BC14: 10             FCB    $10
BC15: 10             FCB    $10
BC16: 10 00 00       NEG    <$00
BC19: 00 00          NEG    <$00
BC1B: 00 00          NEG    <$00
BC1D: 00 00          NEG    <$00
BC1F: 00 00          NEG    <$00
BC21: 00 10          NEG    <$10
BC23: 10             FCB    $10
BC24: 10 30 10       LEAX   -$10,X
BC27: 10 00 00       NEG    <$00
BC2A: 00 00          NEG    <$00
BC2C: 00 00          NEG    <$00
BC2E: 00 00          NEG    <$00
BC30: 00 10          NEG    <$10
BC32: 00 10          NEG    <$10
BC34: 30 30          LEAX   -$10,Y
BC36: 30 10          LEAX   -$10,X
BC38: 00 00          NEG    <$00
BC3A: 00 00          NEG    <$00
BC3C: 00 00          NEG    <$00
BC3E: 00 00          NEG    <$00
BC40: 00 00          NEG    <$00
BC42: 10             FCB    $10
BC43: 10 00 30       NEG    <$30
BC46: 00 10          NEG    <$10
BC48: 00 00          NEG    <$00
BC4A: 00 00          NEG    <$00
BC4C: 00 00          NEG    <$00
BC4E: 00 00          NEG    <$00
BC50: 00 00          NEG    <$00
BC52: 00 10          NEG    <$10
BC54: 30 30          LEAX   -$10,Y
BC56: 30 10          LEAX   -$10,X
BC58: 00 00          NEG    <$00
BC5A: 00 00          NEG    <$00
BC5C: 00 00          NEG    <$00
BC5E: 00 00          NEG    <$00
BC60: 00 00          NEG    <$00
BC62: 10             FCB    $10
BC63: 10 30 00       LEAX   $0,X
BC66: 30 00          LEAX   $0,X
BC68: 10 00 00       NEG    <$00
BC6B: 00 00          NEG    <$00
BC6D: 00 00          NEG    <$00
BC6F: 50             NEGB
BC70: 00 10          NEG    <$10
BC72: 10             FCB    $10
BC73: 10             FCB    $10
BC74: 10 30 00       LEAX   $0,X
BC77: 00 A0          NEG    <$A0
BC79: 40             NEGA
BC7A: 30 00          LEAX   $0,X
BC7C: 00 00          NEG    <$00
BC7E: 00 00          NEG    <$00
BC80: 40             NEGA
BC81: 40             NEGA
BC82: A0 A0          SUBA   ,Y+
BC84: 30 30          LEAX   -$10,Y
BC86: 30 A0          LEAX   ,Y+
BC88: 40             NEGA
BC89: 40             NEGA
BC8A: 00 00          NEG    <$00
BC8C: 00 00          NEG    <$00
BC8E: 00 00          NEG    <$00
BC90: A0 A0          SUBA   ,Y+
BC92: 10 A0 A0       SUBA   ,Y+
BC95: A0 40          SUBA   $0,U
BC97: 40             NEGA
BC98: 00 00          NEG    <$00
BC9A: 00 00          NEG    <$00
BC9C: 00 00          NEG    <$00
BC9E: 00 00          NEG    <$00
BCA0: 10 00 10       NEG    <$10
BCA3: 00 A0          NEG    <$A0
BCA5: A0 40          SUBA   $0,U
BCA7: 00 00          NEG    <$00
BCA9: 00 00          NEG    <$00
BCAB: 00 00          NEG    <$00
BCAD: 00 20          NEG    <$20
BCAF: 10 00 00       NEG    <$00
BCB2: 00 00          NEG    <$00
BCB4: 10             FCB    $10
BCB5: 10             FCB    $10
BCB6: 10             FCB    $10
BCB7: 10 00 00       NEG    <$00
BCBA: 00 00          NEG    <$00
BCBC: 00 20          NEG    <$20
BCBE: 00 00          NEG    <$00
BCC0: 00 00          NEG    <$00
BCC2: 00 00          NEG    <$00
BCC4: 10             FCB    $10
BCC5: 10             FCB    $10
BCC6: 10 00 10       NEG    <$10
BCC9: 10 00 00       NEG    <$00
BCCC: 60 00          NEG    $0,X
BCCE: 40             NEGA
BCCF: 00 00          NEG    <$00
BCD1: 00 00          NEG    <$00
BCD3: A0 10          SUBA   -$10,X
BCD5: 10             FCB    $10
BCD6: 10             FCB    $10
BCD7: 10 00 00       NEG    <$00
BCDA: 10             FCB    $10
BCDB: 10 00 30       NEG    <$30
BCDE: 00 00          NEG    <$00
BCE0: 00 00          NEG    <$00
BCE2: 00 A0          NEG    <$A0
BCE4: A0 A0          SUBA   ,Y+
BCE6: 40             NEGA
BCE7: 40             NEGA
BCE8: 10             FCB    $10
BCE9: 10 00 00       NEG    <$00
BCEC: 60 00          NEG    $0,X
BCEE: 00 00          NEG    <$00
BCF0: 00 00          NEG    <$00
BCF2: A0 A0          SUBA   ,Y+
BCF4: A0 A0          SUBA   ,Y+
BCF6: A0 40          SUBA   $0,U
BCF8: 40             NEGA
BCF9: 00 10          NEG    <$10
BCFB: 10 00 00       NEG    <$00
BCFE: 00 00          NEG    <$00
BD00: 00 00          NEG    <$00
BD02: A0 A0          SUBA   ,Y+
BD04: A0 A0          SUBA   ,Y+
BD06: A0 A0          SUBA   ,Y+
BD08: 40             NEGA
BD09: 40             NEGA
BD0A: 00 00          NEG    <$00
BD0C: 00 00          NEG    <$00
BD0E: 00 00          NEG    <$00
BD10: 00 00          NEG    <$00
BD12: 00 00          NEG    <$00
BD14: 60 60          NEG    $0,S
BD16: 00 60          NEG    <$60
BD18: 60 00          NEG    $0,X
BD1A: 00 00          NEG    <$00
BD1C: 00 00          NEG    <$00
BD1E: 00 10          NEG    <$10
BD20: 10 00 F9       NEG    <$F9
BD23: 00 00          NEG    <$00
BD25: 00 10          NEG    <$10
BD27: 00 10          NEG    <$10
BD29: 10 00 00       NEG    <$00
BD2C: 10 00 00       NEG    <$00
BD2F: 00 00          NEG    <$00
BD31: 00 00          NEG    <$00
BD33: 00 00          NEG    <$00
BD35: 10             FCB    $10
BD36: 10             FCB    $10
BD37: 10             FCB    $10
BD38: 10 00 10       NEG    <$10
BD3B: 10 00 00       NEG    <$00
BD3E: 00 00          NEG    <$00
BD40: 00 00          NEG    <$00
BD42: 00 00          NEG    <$00
BD44: 10             FCB    $10
BD45: 10 30 30       LEAX   -$10,Y
BD48: 10             FCB    $10
BD49: 10             FCB    $10
BD4A: 10 00 00       NEG    <$00
BD4D: 00 00          NEG    <$00
BD4F: 00 00          NEG    <$00
BD51: 00 00          NEG    <$00
BD53: 10             FCB    $10
BD54: 10 30 30       LEAX   -$10,Y
BD57: 00 30          NEG    <$30
BD59: 10 00 50       NEG    <$50
BD5C: 00 00          NEG    <$00
BD5E: 00 00          NEG    <$00
BD60: 00 00          NEG    <$00
BD62: 00 10          NEG    <$10
BD64: 10 00 30       NEG    <$30
BD67: 30 30          LEAX   -$10,Y
BD69: 10 A0 40       SUBA   $0,U
BD6C: 10 00 00       NEG    <$00
BD6F: 00 00          NEG    <$00
BD71: 00 00          NEG    <$00
BD73: 00 10          NEG    <$10
BD75: 30 30          LEAX   -$10,Y
BD77: 00 30          NEG    <$30
BD79: 10 A0 40       SUBA   $0,U
BD7C: 00 00          NEG    <$00
BD7E: 00 00          NEG    <$00
BD80: 00 00          NEG    <$00
BD82: 00 10          NEG    <$10
BD84: 10             FCB    $10
BD85: 10 30 30       LEAX   -$10,Y
BD88: 30 00          LEAX   $0,X
BD8A: A0 40          SUBA   $0,U
BD8C: 00 00          NEG    <$00
BD8E: 00 00          NEG    <$00
BD90: 00 00          NEG    <$00
BD92: 00 00          NEG    <$00
BD94: 00 10          NEG    <$10
BD96: 10 00 30       NEG    <$30
BD99: A0 40          SUBA   $0,U
BD9B: 00 00          NEG    <$00
BD9D: 00 00          NEG    <$00
BD9F: 00 00          NEG    <$00
BDA1: 00 00          NEG    <$00
BDA3: 00 50          NEG    <$50
BDA5: 40             NEGA
BDA6: 40             NEGA
BDA7: A0 A0          SUBA   ,Y+
BDA9: 40             NEGA
BDAA: 00 00          NEG    <$00
BDAC: 00 00          NEG    <$00
BDAE: 00 00          NEG    <$00
BDB0: 00 00          NEG    <$00
BDB2: 00 00          NEG    <$00
BDB4: 00 A0          NEG    <$A0
BDB6: A0 10          SUBA   -$10,X
BDB8: 10             FCB    $10
BDB9: 10             FCB    $10
BDBA: 10             FCB    $10
BDBB: 10             FCB    $10
BDBC: 10             FCB    $10
BDBD: 10             FCB    $10
BDBE: 10 60 20       NEG    $0,Y
BDC1: 40             NEGA
BDC2: 00 00          NEG    <$00
BDC4: 00 00          NEG    <$00
BDC6: 00 00          NEG    <$00
BDC8: 10             FCB    $10
BDC9: 10             FCB    $10
BDCA: 10 00 00       NEG    <$00
BDCD: 00 00          NEG    <$00
BDCF: 00 00          NEG    <$00
BDD1: 00 00          NEG    <$00
BDD3: 00 00          NEG    <$00
BDD5: 00 A0          NEG    <$A0
BDD7: 10             FCB    $10
BDD8: 10             FCB    $10
BDD9: 10             FCB    $10
BDDA: 10             FCB    $10
BDDB: 10             FCB    $10
BDDC: 10             FCB    $10
BDDD: 10             FCB    $10
BDDE: 10 30 30       LEAX   -$10,Y
BDE1: 20 20          BRA    $BE03
BDE3: 00 00          NEG    <$00
BDE5: 00 A0          NEG    <$A0
BDE7: A0 A0          SUBA   ,Y+
BDE9: A0 40          SUBA   $0,U
BDEB: 40             NEGA
BDEC: 00 00          NEG    <$00
BDEE: 00 00          NEG    <$00
BDF0: 00 00          NEG    <$00
BDF2: 00 00          NEG    <$00
BDF4: 00 00          NEG    <$00
BDF6: 00 A0          NEG    <$A0
BDF8: A0 A0          SUBA   ,Y+
BDFA: A0 40          SUBA   $0,U
BDFC: 40             NEGA
BDFD: 40             NEGA
BDFE: 00 00          NEG    <$00
BE00: 00 00          NEG    <$00
BE02: 00 00          NEG    <$00
BE04: 00 00          NEG    <$00
BE06: 60 60          NEG    $0,S
BE08: 00 00          NEG    <$00
BE0A: A0 A0          SUBA   ,Y+
BE0C: A0 40          SUBA   $0,U
BE0E: 40             NEGA
BE0F: 00 00          NEG    <$00
BE11: 00 00          NEG    <$00
BE13: 00 00          NEG    <$00
BE15: 00 00          NEG    <$00
BE17: 00 00          NEG    <$00
BE19: 00 00          NEG    <$00
BE1B: 00 00          NEG    <$00
BE1D: 60 60          NEG    $0,S
BE1F: 00 00          NEG    <$00
BE21: 00 00          NEG    <$00
BE23: 12             NOP
BE24: 10 FF F9 00    STS    $F900
BE28: 00 00          NEG    <$00
BE2A: 00 10          NEG    <$10
BE2C: 10 00 00       NEG    <$00
BE2F: 00 00          NEG    <$00
BE31: 00 00          NEG    <$00
BE33: 00 00          NEG    <$00
BE35: 00 00          NEG    <$00
BE37: 00 00          NEG    <$00
BE39: 00 10          NEG    <$10
BE3B: 10             FCB    $10
BE3C: 10             FCB    $10
BE3D: 10             FCB    $10
BE3E: 10 00 00       NEG    <$00
BE41: 00 00          NEG    <$00
BE43: 00 00          NEG    <$00
BE45: 00 00          NEG    <$00
BE47: 00 10          NEG    <$10
BE49: 00 10          NEG    <$10
BE4B: 10 30 10       LEAX   -$10,X
BE4E: 10 00 00       NEG    <$00
BE51: 00 00          NEG    <$00
BE53: 00 00          NEG    <$00
BE55: 00 00          NEG    <$00
BE57: 00 00          NEG    <$00
BE59: 10             FCB    $10
BE5A: 10 30 30       LEAX   -$10,Y
BE5D: 30 10          LEAX   -$10,X
BE5F: 10 00 00       NEG    <$00
BE62: 00 00          NEG    <$00
BE64: 00 00          NEG    <$00
BE66: 00 00          NEG    <$00
BE68: 10 00 10       NEG    <$10
BE6B: 00 30          NEG    <$30
BE6D: 00 10          NEG    <$10
BE6F: 00 00          NEG    <$00
BE71: 00 00          NEG    <$00
BE73: 00 00          NEG    <$00
BE75: 00 00          NEG    <$00
BE77: 10 00 30       NEG    <$30
BE7A: 10 30 30       LEAX   -$10,Y
BE7D: 30 10          LEAX   -$10,X
BE7F: 30 00          LEAX   $0,X
BE81: 00 00          NEG    <$00
BE83: 00 00          NEG    <$00
BE85: 00 00          NEG    <$00
BE87: 00 A0          NEG    <$A0
BE89: 40             NEGA
BE8A: 10 30 00       LEAX   $0,X
BE8D: 30 00          LEAX   $0,X
BE8F: A0 40          SUBA   $0,U
BE91: 00 00          NEG    <$00
BE93: 00 00          NEG    <$00
BE95: 00 00          NEG    <$00
BE97: 00 A0          NEG    <$A0
BE99: 40             NEGA
BE9A: 10             FCB    $10
BE9B: 10 30 00       LEAX   $0,X
BE9E: 70 A0 40       NEG    $A040
BEA1: 00 00          NEG    <$00
BEA3: 00 00          NEG    <$00
BEA5: 00 00          NEG    <$00
BEA7: 00 10          NEG    <$10
BEA9: A0 A0          SUBA   ,Y+
BEAB: 30 30          LEAX   -$10,Y
BEAD: 30 A0          LEAX   ,Y+
BEAF: 40             NEGA
BEB0: 00 00          NEG    <$00
BEB2: 00 00          NEG    <$00
BEB4: 00 00          NEG    <$00
BEB6: 00 10          NEG    <$10
BEB8: 00 10          NEG    <$10
BEBA: 70 A0 A0       NEG    $A0A0
BEBD: 40             NEGA
BEBE: 70 00 00       NEG    >$0000
BEC1: 00 00          NEG    <$00
BEC3: 00 00          NEG    <$00
BEC5: 00 00          NEG    <$00
BEC7: 00 10          NEG    <$10
BEC9: 00 00          NEG    <$00
BECB: A0 A0          SUBA   ,Y+
BECD: 40             NEGA
BECE: 00 00          NEG    <$00
BED0: 00 00          NEG    <$00
BED2: 00 00          NEG    <$00
BED4: 00 00          NEG    <$00
BED6: 00 00          NEG    <$00
BED8: 00 00          NEG    <$00
BEDA: 00 10          NEG    <$10
BEDC: 10             FCB    $10
BEDD: 10             FCB    $10
BEDE: 10 00 00       NEG    <$00
BEE1: 00 00          NEG    <$00
BEE3: 60 20          NEG    $0,Y
BEE5: 40             NEGA
BEE6: 00 00          NEG    <$00
BEE8: 00 00          NEG    <$00
BEEA: 00 10          NEG    <$10
BEEC: 10             FCB    $10
BEED: 10 00 10       NEG    <$10
BEF0: 10             FCB    $10
BEF1: 10             FCB    $10
BEF2: 10 00 00       NEG    <$00
BEF5: 00 00          NEG    <$00
BEF7: 00 00          NEG    <$00
BEF9: 00 A0          NEG    <$A0
BEFB: A0 10          SUBA   -$10,X
BEFD: 10             FCB    $10
BEFE: 10 00 00       NEG    <$00
BF01: 00 00          NEG    <$00
BF03: 00 30          NEG    <$30
BF05: 20 20          BRA    $BF27
BF07: 00 00          NEG    <$00
BF09: 00 A0          NEG    <$A0
BF0B: A0 A0          SUBA   ,Y+
BF0D: 40             NEGA
BF0E: 40             NEGA
BF0F: 10             FCB    $10
BF10: 10             FCB    $10
BF11: 10             FCB    $10
BF12: 10 60 00       NEG    $0,X
BF15: 00 00          NEG    <$00
BF17: 00 00          NEG    <$00
BF19: A0 A0          SUBA   ,Y+
BF1B: A0 A0          SUBA   ,Y+
BF1D: A0 40          SUBA   $0,U
BF1F: A0 00          SUBA   $0,X
BF21: 00 00          NEG    <$00
BF23: 00 00          NEG    <$00
BF25: 00 00          NEG    <$00
BF27: 00 A0          NEG    <$A0
BF29: A0 A0          SUBA   ,Y+
BF2B: A0 A0          SUBA   ,Y+
BF2D: 60 60          NEG    $0,S
BF2F: 40             NEGA
BF30: 00 00          NEG    <$00
BF32: 00 00          NEG    <$00
BF34: 00 00          NEG    <$00
BF36: 00 00          NEG    <$00
BF38: 00 60          NEG    <$60
BF3A: 60 00          NEG    $0,X
BF3C: 00 00          NEG    <$00
BF3E: 00 00          NEG    <$00
BF40: 00 00          NEG    <$00
BF42: 00 00          NEG    <$00
BF44: 00 00          NEG    <$00
BF46: 00 12          NEG    <$12
BF48: 10 FF F9 00    STS    $F900
BF4C: 00 00          NEG    <$00
BF4E: 00 10          NEG    <$10
BF50: 00 10          NEG    <$10
BF52: 00 00          NEG    <$00
BF54: 00 00          NEG    <$00
BF56: 00 00          NEG    <$00
BF58: 00 00          NEG    <$00
BF5A: 00 00          NEG    <$00
BF5C: 00 00          NEG    <$00
BF5E: 00 10          NEG    <$10
BF60: 10             FCB    $10
BF61: 10             FCB    $10
BF62: 10 00 00       NEG    <$00
BF65: 00 00          NEG    <$00
BF67: 00 00          NEG    <$00
BF69: 00 00          NEG    <$00
BF6B: 00 00          NEG    <$00
BF6D: 00 10          NEG    <$10
BF6F: 10 30 30       LEAX   -$10,Y
BF72: 10             FCB    $10
BF73: 10 00 00       NEG    <$00
BF76: 00 00          NEG    <$00
BF78: 00 00          NEG    <$00
BF7A: 00 00          NEG    <$00
BF7C: 00 00          NEG    <$00
BF7E: 10 30 00       LEAX   $0,X
BF81: 30 30          LEAX   -$10,Y
BF83: 10 00 00       NEG    <$00
BF86: 00 00          NEG    <$00
BF88: 00 00          NEG    <$00
BF8A: 00 00          NEG    <$00
BF8C: 00 10          NEG    <$10
BF8E: 10 30 30       LEAX   -$10,Y
BF91: 30 00          LEAX   $0,X
BF93: 10 00 00       NEG    <$00
BF96: 00 00          NEG    <$00
BF98: 00 00          NEG    <$00
BF9A: 00 00          NEG    <$00
BF9C: 00 10          NEG    <$10
BF9E: 10 30 00       LEAX   $0,X
BFA1: 30 30          LEAX   -$10,Y
BFA3: 10 00 00       NEG    <$00
BFA6: 00 00          NEG    <$00
BFA8: 00 00          NEG    <$00
BFAA: 00 00          NEG    <$00
BFAC: 10             FCB    $10
BFAD: 10             FCB    $10
BFAE: 10 30 30       LEAX   -$10,Y
BFB1: 30 10          LEAX   -$10,X
BFB3: 10 00 00       NEG    <$00
BFB6: 00 00          NEG    <$00
BFB8: 00 00          NEG    <$00
BFBA: 00 10          NEG    <$10
BFBC: 00 00          NEG    <$00
BFBE: 10 30 30       LEAX   -$10,Y
BFC1: 10             FCB    $10
BFC2: 10 00 00       NEG    <$00
BFC5: 00 00          NEG    <$00
BFC7: 00 00          NEG    <$00
BFC9: 00 00          NEG    <$00
BFCB: 00 00          NEG    <$00
BFCD: 10 A0 30       SUBA   -$10,Y
BFD0: 30 A0          LEAX   ,Y+
BFD2: A0 70          SUBA   -$10,S
BFD4: 00 00          NEG    <$00
BFD6: 00 00          NEG    <$00
BFD8: 00 00          NEG    <$00
BFDA: 00 00          NEG    <$00
BFDC: 00 A0          NEG    <$A0
BFDE: 70 A0 A0       NEG    $A0A0
BFE1: 40             NEGA
BFE2: 00 A0          NEG    <$A0
BFE4: 70 00 00       NEG    >$0000
BFE7: 00 00          NEG    <$00
BFE9: 00 00          NEG    <$00
BFEB: 00 A0          NEG    <$A0
BFED: 40             NEGA
BFEE: 00 A0          NEG    <$A0
BFF0: A0 40          SUBA   $0,U
BFF2: 00 A0          NEG    <$A0
BFF4: 40             NEGA
BFF5: 00 00          NEG    <$00
BFF7: 00 00          NEG    <$00
BFF9: 00 00          NEG    <$00
BFFB: 00 A0          NEG    <$A0
BFFD: 40             NEGA
BFFE: 00 A0          NEG    <$A0
C000: 10             FCB    $10
C001: 10 A0 40       SUBA   $0,U
C004: 00 00          NEG    <$00
C006: 00 00          NEG    <$00
C008: 20 40          BRA    $C04A
C00A: 00 00          NEG    <$00
C00C: 00 30          NEG    <$30
C00E: 00 10          NEG    <$10
C010: 10             FCB    $10
C011: 10 30 10       LEAX   -$10,X
C014: 10 00 00       NEG    <$00
C017: 60 00          NEG    $0,X
C019: 00 00          NEG    <$00
C01B: 00 00          NEG    <$00
C01D: 00 00          NEG    <$00
C01F: 10             FCB    $10
C020: 10             FCB    $10
C021: 10             FCB    $10
C022: 10 A0 00       SUBA   $0,X
C025: 10             FCB    $10
C026: 10 00 00       NEG    <$00
C029: 20 20          BRA    $C04B
C02B: 00 00          NEG    <$00
C02D: 00 A0          NEG    <$A0
C02F: A0 A0          SUBA   ,Y+
C031: 40             NEGA
C032: 40             NEGA
C033: 10             FCB    $10
C034: 10 00 00       NEG    <$00
C037: 60 60          NEG    $0,S
C039: 00 00          NEG    <$00
C03B: 00 A0          NEG    <$A0
C03D: A0 A0          SUBA   ,Y+
C03F: A0 A0          SUBA   ,Y+
C041: A0 40          SUBA   $0,U
C043: A0 00          SUBA   $0,X
C045: 10             FCB    $10
C046: 10 00 00       NEG    <$00
C049: 00 00          NEG    <$00
C04B: 00 00          NEG    <$00
C04D: A0 A0          SUBA   ,Y+
C04F: 60 60          NEG    $0,S
C051: A0 A0          SUBA   ,Y+
C053: 40             NEGA
C054: A0 00          SUBA   $0,X
C056: 00 00          NEG    <$00
C058: 00 00          NEG    <$00
C05A: 00 00          NEG    <$00
C05C: 00 00          NEG    <$00
C05E: 00 00          NEG    <$00
C060: 00 00          NEG    <$00
C062: 60 60          NEG    $0,S
C064: 00 00          NEG    <$00
C066: 00 00          NEG    <$00
C068: 00 00          NEG    <$00
C06A: 00 0F          NEG    <$0F
C06C: 0F 01          CLR    <$01
C06E: F9 00 00       ADCB   >$0000
C071: 00 10          NEG    <$10
C073: 10             FCB    $10
C074: 10             FCB    $10
C075: 10 00 00       NEG    <$00
C078: 00 00          NEG    <$00
C07A: 00 00          NEG    <$00
C07C: 00 00          NEG    <$00
C07E: 00 00          NEG    <$00
C080: 10             FCB    $10
C081: 10             FCB    $10
C082: 10             FCB    $10
C083: 10 30 00       LEAX   $0,X
C086: 00 00          NEG    <$00
C088: 00 00          NEG    <$00
C08A: 00 00          NEG    <$00
C08C: 00 00          NEG    <$00
C08E: 00 10          NEG    <$10
C090: 10             FCB    $10
C091: 10 30 00       LEAX   $0,X
C094: 30 00          LEAX   $0,X
C096: 00 00          NEG    <$00
C098: 00 00          NEG    <$00
C09A: 00 00          NEG    <$00
C09C: 00 10          NEG    <$10
C09E: 10             FCB    $10
C09F: 10             FCB    $10
C0A0: 10 30 30       LEAX   -$10,Y
C0A3: 10 00 00       NEG    <$00
C0A6: 00 00          NEG    <$00
C0A8: 00 00          NEG    <$00
C0AA: 00 10          NEG    <$10
C0AC: 10 00 10       NEG    <$10
C0AF: 10 30 30       LEAX   -$10,Y
C0B2: 30 00          LEAX   $0,X
C0B4: 00 00          NEG    <$00
C0B6: 00 00          NEG    <$00
C0B8: 00 00          NEG    <$00
C0BA: 00 00          NEG    <$00
C0BC: 10             FCB    $10
C0BD: 10             FCB    $10
C0BE: 10             FCB    $10
C0BF: 10 30 00       LEAX   $0,X
C0C2: 00 00          NEG    <$00
C0C4: 50             NEGB
C0C5: 00 00          NEG    <$00
C0C7: 00 00          NEG    <$00
C0C9: 00 10          NEG    <$10
C0CB: 10 00 10       NEG    <$10
C0CE: 10 A0 40       SUBA   $0,U
C0D1: 00 40          NEG    <$40
C0D3: 50             NEGB
C0D4: 00 00          NEG    <$00
C0D6: 00 00          NEG    <$00
C0D8: 00 00          NEG    <$00
C0DA: 10 00 10       NEG    <$10
C0DD: 00 A0          NEG    <$A0
C0DF: A0 40          SUBA   $0,U
C0E1: A0 A0          SUBA   ,Y+
C0E3: 00 00          NEG    <$00
C0E5: 00 20          NEG    <$20
C0E7: 00 10          NEG    <$10
C0E9: 00 10          NEG    <$10
C0EB: 00 00          NEG    <$00
C0ED: 10 A0 A0       SUBA   ,Y+
C0F0: A0 00          SUBA   $0,X
C0F2: 00 60          NEG    <$60
C0F4: 20 40          BRA    $C136
C0F6: 00 00          NEG    <$00
C0F8: 00 00          NEG    <$00
C0FA: 00 00          NEG    <$00
C0FC: 10             FCB    $10
C0FD: 10             FCB    $10
C0FE: 10             FCB    $10
C0FF: 10             FCB    $10
C100: 10             FCB    $10
C101: 10 00 20       NEG    <$20
C104: 00 00          NEG    <$00
C106: 00 00          NEG    <$00
C108: 00 00          NEG    <$00
C10A: 00 10          NEG    <$10
C10C: 10             FCB    $10
C10D: 10 A0 00       SUBA   $0,X
C110: 60 30          NEG    -$10,Y
C112: 00 00          NEG    <$00
C114: 00 00          NEG    <$00
C116: 00 00          NEG    <$00
C118: 00 A0          NEG    <$A0
C11A: A0 40          SUBA   $0,U
C11C: 10             FCB    $10
C11D: 10             FCB    $10
C11E: 10             FCB    $10
C11F: 10 00 00       NEG    <$00
C122: 00 00          NEG    <$00
C124: 00 00          NEG    <$00
C126: 00 A0          NEG    <$A0
C128: A0 A0          SUBA   ,Y+
C12A: A0 A0          SUBA   ,Y+
C12C: 00 A0          NEG    <$A0
C12E: 60 00          NEG    $0,X
C130: 00 00          NEG    <$00
C132: 00 00          NEG    <$00
C134: 00 A0          NEG    <$A0
C136: A0 A0          SUBA   ,Y+
C138: 60 A0          NEG    ,Y+
C13A: 00 00          NEG    <$00
C13C: 00 00          NEG    <$00
C13E: 00 00          NEG    <$00
C140: 00 00          NEG    <$00
C142: 00 00          NEG    <$00
C144: 00 00          NEG    <$00
C146: 00 60          NEG    <$60
C148: 60 00          NEG    $0,X
C14A: 00 00          NEG    <$00
C14C: 00 00          NEG    <$00
C14E: 00 00          NEG    <$00
C150: 10 0E 00       JMP    <$00
C153: F9 00 00       ADCB   >$0000
C156: 00 10          NEG    <$10
C158: 00 00          NEG    <$00
C15A: 10 00 00       NEG    <$00
C15D: 00 00          NEG    <$00
C15F: 00 00          NEG    <$00
C161: 00 00          NEG    <$00
C163: 10             FCB    $10
C164: 10             FCB    $10
C165: 10             FCB    $10
C166: 10             FCB    $10
C167: 10 00 00       NEG    <$00
C16A: 00 00          NEG    <$00
C16C: 00 00          NEG    <$00
C16E: 00 00          NEG    <$00
C170: 10             FCB    $10
C171: 10             FCB    $10
C172: 10             FCB    $10
C173: 10 30 00       LEAX   $0,X
C176: 10 00 00       NEG    <$00
C179: 00 00          NEG    <$00
C17B: 00 00          NEG    <$00
C17D: 00 10          NEG    <$10
C17F: 10             FCB    $10
C180: 10 30 00       LEAX   $0,X
C183: 30 00          LEAX   $0,X
C185: 00 00          NEG    <$00
C187: 00 00          NEG    <$00
C189: 00 00          NEG    <$00
C18B: 00 10          NEG    <$10
C18D: 10             FCB    $10
C18E: 10 30 30       LEAX   -$10,Y
C191: 10 00 10       NEG    <$10
C194: 00 00          NEG    <$00
C196: 00 00          NEG    <$00
C198: 00 00          NEG    <$00
C19A: 00 10          NEG    <$10
C19C: 10             FCB    $10
C19D: 10 30 30       LEAX   -$10,Y
C1A0: 00 00          NEG    <$00
C1A2: 00 00          NEG    <$00
C1A4: 00 00          NEG    <$00
C1A6: 00 00          NEG    <$00
C1A8: 00 10          NEG    <$10
C1AA: 10             FCB    $10
C1AB: 10             FCB    $10
C1AC: 10             FCB    $10
C1AD: 10 00 00       NEG    <$00
C1B0: 40             NEGA
C1B1: 50             NEGB
C1B2: 00 00          NEG    <$00
C1B4: 00 00          NEG    <$00
C1B6: 00 10          NEG    <$10
C1B8: 10 00 10       NEG    <$10
C1BB: A0 40          SUBA   $0,U
C1BD: 40             NEGA
C1BE: A0 50          SUBA   -$10,U
C1C0: 00 00          NEG    <$00
C1C2: 00 00          NEG    <$00
C1C4: 00 10          NEG    <$10
C1C6: 00 A0          NEG    <$A0
C1C8: A0 A0          SUBA   ,Y+
C1CA: A0 A0          SUBA   ,Y+
C1CC: 00 00          NEG    <$00
C1CE: 00 20          NEG    <$20
C1D0: 60 20          NEG    $0,Y
C1D2: 00 00          NEG    <$00
C1D4: 10 00 10       NEG    <$10
C1D7: 10             FCB    $10
C1D8: 10             FCB    $10
C1D9: 10             FCB    $10
C1DA: 10             FCB    $10
C1DB: 10             FCB    $10
C1DC: 10 60 20       NEG    $0,Y
C1DF: 40             NEGA
C1E0: 00 00          NEG    <$00
C1E2: 10 00 10       NEG    <$10
C1E5: 10             FCB    $10
C1E6: 10             FCB    $10
C1E7: 10             FCB    $10
C1E8: 10             FCB    $10
C1E9: 10             FCB    $10
C1EA: 10 60 00       NEG    $0,X
C1ED: 00 00          NEG    <$00
C1EF: 00 00          NEG    <$00
C1F1: A0 10          SUBA   -$10,X
C1F3: 10             FCB    $10
C1F4: 10 40          NEGA
C1F6: 00 00          NEG    <$00
C1F8: 60 00          NEG    $0,X
C1FA: 00 00          NEG    <$00
C1FC: 00 00          NEG    <$00
C1FE: A0 A0          SUBA   ,Y+
C200: A0 A0          SUBA   ,Y+
C202: A0 A0          SUBA   ,Y+
C204: 40             NEGA
C205: 60 60          NEG    $0,S
C207: 00 00          NEG    <$00
C209: 00 00          NEG    <$00
C20B: 00 A0          NEG    <$A0
C20D: A0 A0          SUBA   ,Y+
C20F: A0 A0          SUBA   ,Y+
C211: A0 A0          SUBA   ,Y+
C213: 00 00          NEG    <$00
C215: 00 00          NEG    <$00
C217: 00 00          NEG    <$00
C219: 00 00          NEG    <$00
C21B: A0 A0          SUBA   ,Y+
C21D: A0 60          SUBA   $0,S
C21F: 00 00          NEG    <$00
C221: 00 00          NEG    <$00
C223: 00 00          NEG    <$00
C225: 00 00          NEG    <$00
C227: 00 00          NEG    <$00
C229: 00 00          NEG    <$00
C22B: 00 60          NEG    <$60
C22D: 60 00          NEG    $0,X
C22F: 00 00          NEG    <$00
C231: 00 00          NEG    <$00
C233: 00 12          NEG    <$12
C235: 12             NOP
C236: FF F8 00       STU    $F800
C239: 00 00          NEG    <$00
C23B: 00 00          NEG    <$00
C23D: 00 10          NEG    <$10
C23F: 00 00          NEG    <$00
C241: 00 00          NEG    <$00
C243: 00 00          NEG    <$00
C245: 00 00          NEG    <$00
C247: 00 00          NEG    <$00
C249: 00 00          NEG    <$00
C24B: 00 00          NEG    <$00
C24D: 00 00          NEG    <$00
C24F: 10             FCB    $10
C250: 10             FCB    $10
C251: 10             FCB    $10
C252: 10 00 00       NEG    <$00
C255: 00 00          NEG    <$00
C257: 00 00          NEG    <$00
C259: 00 00          NEG    <$00
C25B: 00 00          NEG    <$00
C25D: 00 00          NEG    <$00
C25F: 00 00          NEG    <$00
C261: 30 10          LEAX   -$10,X
C263: 10             FCB    $10
C264: 10 00 00       NEG    <$00
C267: 00 00          NEG    <$00
C269: 00 00          NEG    <$00
C26B: 00 00          NEG    <$00
C26D: 00 00          NEG    <$00
C26F: 00 00          NEG    <$00
C271: 00 30          NEG    <$30
C273: 00 30          NEG    <$30
C275: 10             FCB    $10
C276: 10             FCB    $10
C277: 10 00 00       NEG    <$00
C27A: 00 00          NEG    <$00
C27C: 00 00          NEG    <$00
C27E: 00 00          NEG    <$00
C280: 00 00          NEG    <$00
C282: 00 00          NEG    <$00
C284: 10 30 30       LEAX   -$10,Y
C287: 10             FCB    $10
C288: 10             FCB    $10
C289: 10 00 00       NEG    <$00
C28C: 00 00          NEG    <$00
C28E: 00 00          NEG    <$00
C290: 00 00          NEG    <$00
C292: 00 00          NEG    <$00
C294: 00 00          NEG    <$00
C296: 30 30          LEAX   -$10,Y
C298: 10             FCB    $10
C299: 10             FCB    $10
C29A: 10             FCB    $10
C29B: 10 00 00       NEG    <$00
C29E: 00 00          NEG    <$00
C2A0: 00 00          NEG    <$00
C2A2: 00 00          NEG    <$00
C2A4: 00 00          NEG    <$00
C2A6: 00 10          NEG    <$10
C2A8: 10 30 10       LEAX   -$10,X
C2AB: 10             FCB    $10
C2AC: 10 00 10       NEG    <$10
C2AF: 00 00          NEG    <$00
C2B1: 00 00          NEG    <$00
C2B3: 00 00          NEG    <$00
C2B5: 00 50          NEG    <$50
C2B7: 40             NEGA
C2B8: 00 10          NEG    <$10
C2BA: 30 30          LEAX   -$10,Y
C2BC: 30 40          LEAX   $0,U
C2BE: 10             FCB    $10
C2BF: 10 00 00       NEG    <$00
C2C2: 00 00          NEG    <$00
C2C4: 00 00          NEG    <$00
C2C6: 00 00          NEG    <$00
C2C8: 00 A0          NEG    <$A0
C2CA: 40             NEGA
C2CB: 40             NEGA
C2CC: A0 A0          SUBA   ,Y+
C2CE: A0 A0          SUBA   ,Y+
C2D0: 40             NEGA
C2D1: 10 00 00       NEG    <$00
C2D4: 00 00          NEG    <$00
C2D6: 00 00          NEG    <$00
C2D8: 00 00          NEG    <$00
C2DA: 00 A0          NEG    <$A0
C2DC: A0 00          SUBA   $0,X
C2DE: A0 A0          SUBA   ,Y+
C2E0: 40             NEGA
C2E1: 00 A0          NEG    <$A0
C2E3: 40             NEGA
C2E4: 10 00 00       NEG    <$00
C2E7: 00 00          NEG    <$00
C2E9: 00 00          NEG    <$00
C2EB: 00 00          NEG    <$00
C2ED: 00 00          NEG    <$00
C2EF: 00 20          NEG    <$20
C2F1: A0 40          SUBA   $0,U
C2F3: 00 10          NEG    <$10
C2F5: A0 40          SUBA   $0,U
C2F7: 00 00          NEG    <$00
C2F9: 00 00          NEG    <$00
C2FB: 00 20          NEG    <$20
C2FD: 00 00          NEG    <$00
C2FF: 00 00          NEG    <$00
C301: 00 A0          NEG    <$A0
C303: 40             NEGA
C304: 40             NEGA
C305: 00 00          NEG    <$00
C307: A0 40          SUBA   $0,U
C309: 00 00          NEG    <$00
C30B: 00 00          NEG    <$00
C30D: 00 40          NEG    <$40
C30F: 00 00          NEG    <$00
C311: 00 00          NEG    <$00
C313: A0 A0          SUBA   ,Y+
C315: A0 40          SUBA   $0,U
C317: 40             NEGA
C318: 00 00          NEG    <$00
C31A: 50             NEGB
C31B: 00 00          NEG    <$00
C31D: 00 00          NEG    <$00
C31F: 20 40          BRA    $C361
C321: 00 00          NEG    <$00
C323: 00 A0          NEG    <$A0
C325: A0 A0          SUBA   ,Y+
C327: A0 A0          SUBA   ,Y+
C329: 40             NEGA
C32A: 40             NEGA
C32B: 40             NEGA
C32C: 50             NEGB
C32D: 40             NEGA
C32E: 00 00          NEG    <$00
C330: 00 30          NEG    <$30
C332: 00 20          NEG    <$20
C334: 00 A0          NEG    <$A0
C336: A0 A0          SUBA   ,Y+
C338: A0 A0          SUBA   ,Y+
C33A: A0 40          SUBA   $0,U
C33C: 40             NEGA
C33D: A0 A0          SUBA   ,Y+
C33F: 00 00          NEG    <$00
C341: 00 60          NEG    <$60
C343: 60 00          NEG    $0,X
C345: 40             NEGA
C346: A0 A0          SUBA   ,Y+
C348: A0 A0          SUBA   ,Y+
C34A: 10 A0 A0       SUBA   ,Y+
C34D: 10 A0 A0       SUBA   ,Y+
C350: 00 00          NEG    <$00
C352: 00 00          NEG    <$00
C354: 10 00 30       NEG    <$30
C357: 40             NEGA
C358: 00 A0          NEG    <$A0
C35A: A0 10          SUBA   -$10,X
C35C: 10 00 10       NEG    <$10
C35F: 10 A0 00       SUBA   $0,X
C362: 00 00          NEG    <$00
C364: 00 10          NEG    <$10
C366: 10 00 40       NEG    <$40
C369: 00 00          NEG    <$00
C36B: 00 00          NEG    <$00
C36D: 60 60          NEG    $0,S
C36F: 00 60          NEG    <$60
C371: 60 00          NEG    $0,X
C373: 00 00          NEG    <$00
C375: 10             FCB    $10
C376: 10             FCB    $10
C377: 10 00 60       NEG    <$60
C37A: 60 00          NEG    $0,X
C37C: 11 0A 00       DEC    <$00
C37F: 00 00          NEG    <$00
C381: 00 00          NEG    <$00
C383: 10             FCB    $10
C384: 10             FCB    $10
C385: 10 00 00       NEG    <$00
C388: 00 00          NEG    <$00
C38A: 00 10          NEG    <$10
C38C: 10             FCB    $10
C38D: 10             FCB    $10
C38E: 10             FCB    $10
C38F: 10             FCB    $10
C390: 10 00 00       NEG    <$00
C393: 00 00          NEG    <$00
C395: 10             FCB    $10
C396: 10             FCB    $10
C397: 10             FCB    $10
C398: 10 30 00       LEAX   $0,X
C39B: 00 00          NEG    <$00
C39D: 00 10          NEG    <$10
C39F: 00 10          NEG    <$10
C3A1: 10 30 00       LEAX   $0,X
C3A4: 30 00          LEAX   $0,X
C3A6: 00 00          NEG    <$00
C3A8: 00 10          NEG    <$10
C3AA: 10 50          NEGB
C3AC: 10 30 10       LEAX   -$10,X
C3AF: 00 50          NEG    <$50
C3B1: 00 10          NEG    <$10
C3B3: 10 A0 40       SUBA   $0,U
C3B6: 10 30 30       LEAX   -$10,Y
C3B9: 00 A0          NEG    <$A0
C3BB: 40             NEGA
C3BC: 00 10          NEG    <$10
C3BE: A0 40          SUBA   $0,U
C3C0: 10 30 10       LEAX   -$10,X
C3C3: 00 A0          NEG    <$A0
C3C5: 40             NEGA
C3C6: 10 00 A0       NEG    <$A0
C3C9: 40             NEGA
C3CA: 30 30          LEAX   -$10,Y
C3CC: 30 A0          LEAX   ,Y+
C3CE: A0 40          SUBA   $0,U
C3D0: 00 10          NEG    <$10
C3D2: A0 A0          SUBA   ,Y+
C3D4: 40             NEGA
C3D5: A0 A0          SUBA   ,Y+
C3D7: 40             NEGA
C3D8: 40             NEGA
C3D9: 00 00          NEG    <$00
C3DB: 00 10          NEG    <$10
C3DD: 00 A0          NEG    <$A0
C3DF: A0 40          SUBA   $0,U
C3E1: 00 00          NEG    <$00
C3E3: 00 00          NEG    <$00
C3E5: 10 00 00       NEG    <$00
C3E8: 00 A0          NEG    <$A0
C3EA: 70 00 00       NEG    >$0000
C3ED: 00 00          NEG    <$00
C3EF: 00 00          NEG    <$00
C3F1: 00 A0          NEG    <$A0
C3F3: 40             NEGA
C3F4: 40             NEGA
C3F5: 40             NEGA
C3F6: 00 00          NEG    <$00
C3F8: 00 00          NEG    <$00
C3FA: 00 00          NEG    <$00
C3FC: A0 A0          SUBA   ,Y+
C3FE: 40             NEGA
C3FF: 40             NEGA
C400: 40             NEGA
C401: 00 00          NEG    <$00
C403: 00 00          NEG    <$00
C405: A0 A0          SUBA   ,Y+
C407: A0 A0          SUBA   ,Y+
C409: A0 40          SUBA   $0,U
C40B: 40             NEGA
C40C: 00 00          NEG    <$00
C40E: 00 A0          NEG    <$A0
C410: A0 A0          SUBA   ,Y+
C412: A0 A0          SUBA   ,Y+
C414: 40             NEGA
C415: 40             NEGA
C416: 00 00          NEG    <$00
C418: 00 A0          NEG    <$A0
C41A: A0 A0          SUBA   ,Y+
C41C: A0 A0          SUBA   ,Y+
C41E: 40             NEGA
C41F: 40             NEGA
C420: 00 00          NEG    <$00
C422: 00 00          NEG    <$00
C424: 60 60          NEG    $0,S
C426: 00 60          NEG    <$60
C428: 60 00          NEG    $0,X
C42A: 11 0B FF       XDEC   <$FF
C42D: 00 00          NEG    <$00
C42F: 00 00          NEG    <$00
C431: 00 10          NEG    <$10
C433: 10 00 00       NEG    <$00
C436: 00 00          NEG    <$00
C438: 00 00          NEG    <$00
C43A: 00 10          NEG    <$10
C43C: 10             FCB    $10
C43D: 10             FCB    $10
C43E: 10             FCB    $10
C43F: 10 00 00       NEG    <$00
C442: 00 00          NEG    <$00
C444: 00 00          NEG    <$00
C446: 10             FCB    $10
C447: 10             FCB    $10
C448: 10 30 00       LEAX   $0,X
C44B: 10 00 00       NEG    <$00
C44E: 00 00          NEG    <$00
C450: 10             FCB    $10
C451: 10             FCB    $10
C452: 10 30 00       LEAX   $0,X
C455: 30 00          LEAX   $0,X
C457: 00 00          NEG    <$00
C459: 00 50          NEG    <$50
C45B: 10             FCB    $10
C45C: 10             FCB    $10
C45D: 10 30 30       LEAX   -$10,Y
C460: 10 00 00       NEG    <$00
C463: 00 50          NEG    <$50
C465: 50             NEGB
C466: 40             NEGA
C467: 10             FCB    $10
C468: 10             FCB    $10
C469: 10 30 30       LEAX   -$10,Y
C46C: 00 00          NEG    <$00
C46E: 40             NEGA
C46F: 50             NEGB
C470: A0 A0          SUBA   ,Y+
C472: 40             NEGA
C473: 10             FCB    $10
C474: 10 30 10       LEAX   -$10,X
C477: 10 40          NEGA
C479: A0 40          SUBA   $0,U
C47B: 00 A0          NEG    <$A0
C47D: A0 40          SUBA   $0,U
C47F: 30 30          LEAX   -$10,Y
C481: 30 40          LEAX   $0,U
C483: A0 40          SUBA   $0,U
C485: 00 00          NEG    <$00
C487: 10             FCB    $10
C488: 10 A0 A0       SUBA   ,Y+
C48B: A0 A0          SUBA   ,Y+
C48D: A0 10          SUBA   -$10,X
C48F: 00 00          NEG    <$00
C491: 10 00 10       NEG    <$10
C494: 10 A0 A0       SUBA   ,Y+
C497: A0 10          SUBA   -$10,X
C499: 10 00 00       NEG    <$00
C49C: 00 00          NEG    <$00
C49E: 10 00 70       NEG    <$70
C4A1: 40             NEGA
C4A2: 40             NEGA
C4A3: 00 10          NEG    <$10
C4A5: 00 00          NEG    <$00
C4A7: 00 10          NEG    <$10
C4A9: 00 70          NEG    <$70
C4AB: A0 A0          SUBA   ,Y+
C4AD: 40             NEGA
C4AE: 40             NEGA
C4AF: 00 00          NEG    <$00
C4B1: 00 00          NEG    <$00
C4B3: 10 A0 A0       SUBA   ,Y+
C4B6: A0 A0          SUBA   ,Y+
C4B8: 40             NEGA
C4B9: 40             NEGA
C4BA: 40             NEGA
C4BB: 40             NEGA
C4BC: 40             NEGA
C4BD: 00 00          NEG    <$00
C4BF: A0 A0          SUBA   ,Y+
C4C1: 60 60          NEG    $0,S
C4C3: A0 60          SUBA   $0,S
C4C5: 60 40          NEG    $0,U
C4C7: 40             NEGA
C4C8: 00 00          NEG    <$00
C4CA: 00 60          NEG    <$60
C4CC: 10 60 60       NEG    $0,S
C4CF: 10             FCB    $10
C4D0: 10 60 00       NEG    $0,X
C4D3: 00 00          NEG    <$00
C4D5: 00 10          NEG    <$10
C4D7: 10 00 00       NEG    <$00
C4DA: 00 10          NEG    <$10
C4DC: 10 00 00       NEG    <$00
C4DF: 00 60          NEG    <$60
C4E1: 60 00          NEG    $0,X
C4E3: 00 00          NEG    <$00
C4E5: 00 00          NEG    <$00
C4E7: 60 60          NEG    $0,S
C4E9: 10 0B 00       XDEC   <$00
C4EC: 02 00          XNC    <$00
C4EE: 00 00          NEG    <$00
C4F0: 10             FCB    $10
C4F1: 10             FCB    $10
C4F2: 10 00 00       NEG    <$00
C4F5: 00 00          NEG    <$00
C4F7: 00 00          NEG    <$00
C4F9: 00 10          NEG    <$10
C4FB: 10             FCB    $10
C4FC: 10             FCB    $10
C4FD: 10             FCB    $10
C4FE: 10 00 00       NEG    <$00
C501: 00 00          NEG    <$00
C503: 00 00          NEG    <$00
C505: 10             FCB    $10
C506: 10             FCB    $10
C507: 10 30 00       LEAX   $0,X
C50A: 00 00          NEG    <$00
C50C: 00 00          NEG    <$00
C50E: 00 00          NEG    <$00
C510: 10             FCB    $10
C511: 10 30 00       LEAX   $0,X
C514: 30 00          LEAX   $0,X
C516: 00 00          NEG    <$00
C518: 00 00          NEG    <$00
C51A: 00 10          NEG    <$10
C51C: 10 30 30       LEAX   -$10,Y
C51F: 10 00 00       NEG    <$00
C522: 00 00          NEG    <$00
C524: 00 00          NEG    <$00
C526: 10             FCB    $10
C527: 10 30 30       LEAX   -$10,Y
C52A: 30 00          LEAX   $0,X
C52C: 00 00          NEG    <$00
C52E: 00 00          NEG    <$00
C530: 00 10          NEG    <$10
C532: 10             FCB    $10
C533: 10 30 00       LEAX   $0,X
C536: 00 00          NEG    <$00
C538: 40             NEGA
C539: 50             NEGB
C53A: 10 00 00       NEG    <$00
C53D: 10             FCB    $10
C53E: 10 30 30       LEAX   -$10,Y
C541: 40             NEGA
C542: 40             NEGA
C543: A0 00          SUBA   $0,X
C545: 00 10          NEG    <$10
C547: 00 10          NEG    <$10
C549: 00 A0          NEG    <$A0
C54B: 40             NEGA
C54C: 40             NEGA
C54D: 00 00          NEG    <$00
C54F: 00 10          NEG    <$10
C551: 10             FCB    $10
C552: 10 00 00       NEG    <$00
C555: A0 A0          SUBA   ,Y+
C557: A0 40          SUBA   $0,U
C559: 40             NEGA
C55A: 50             NEGB
C55B: 00 10          NEG    <$10
C55D: 00 00          NEG    <$00
C55F: A0 A0          SUBA   ,Y+
C561: 40             NEGA
C562: 00 A0          NEG    <$A0
C564: A0 00          SUBA   $0,X
C566: 00 00          NEG    <$00
C568: 00 A0          NEG    <$A0
C56A: A0 40          SUBA   $0,U
C56C: 40             NEGA
C56D: 40             NEGA
C56E: 00 00          NEG    <$00
C570: 00 00          NEG    <$00
C572: 00 A0          NEG    <$A0
C574: A0 A0          SUBA   ,Y+
C576: A0 40          SUBA   $0,U
C578: 40             NEGA
C579: 40             NEGA
C57A: 00 00          NEG    <$00
C57C: 00 A0          NEG    <$A0
C57E: A0 A0          SUBA   ,Y+
C580: A0 A0          SUBA   ,Y+
C582: A0 40          SUBA   $0,U
C584: 40             NEGA
C585: 40             NEGA
C586: 00 00          NEG    <$00
C588: 00 A0          NEG    <$A0
C58A: A0 10          SUBA   -$10,X
C58C: A0 10          SUBA   -$10,X
C58E: A0 40          SUBA   $0,U
C590: 40             NEGA
C591: 00 00          NEG    <$00
C593: 00 00          NEG    <$00
C595: 00 60          NEG    <$60
C597: 60 60          NEG    $0,S
C599: 60 00          NEG    $0,X
C59B: 00 00          NEG    <$00
C59D: 0A 09          DEC    <$09
C59F: 00 00          NEG    <$00
C5A1: 00 60          NEG    <$60
C5A3: 60 00          NEG    $0,X
C5A5: 00 00          NEG    <$00
C5A7: 60 60          NEG    $0,S
C5A9: 00 60          NEG    <$60
C5AB: 10             FCB    $10
C5AC: 10 60 00       NEG    $0,X
C5AF: 60 10          NEG    -$10,X
C5B1: 10 60 60       NEG    $0,S
C5B4: 10             FCB    $10
C5B5: 10             FCB    $10
C5B6: 10 60 10       NEG    -$10,X
C5B9: 10             FCB    $10
C5BA: 10 60 60       NEG    $0,S
C5BD: 10             FCB    $10
C5BE: 10             FCB    $10
C5BF: 10             FCB    $10
C5C0: 10             FCB    $10
C5C1: 10             FCB    $10
C5C2: 10             FCB    $10
C5C3: 10 60 60       NEG    $0,S
C5C6: 10             FCB    $10
C5C7: 10             FCB    $10
C5C8: 10             FCB    $10
C5C9: 10             FCB    $10
C5CA: 10             FCB    $10
C5CB: 10             FCB    $10
C5CC: 10 60 00       NEG    $0,X
C5CF: 60 10          NEG    -$10,X
C5D1: 10             FCB    $10
C5D2: 10             FCB    $10
C5D3: 10             FCB    $10
C5D4: 10 60 00       NEG    $0,X
C5D7: 00 60          NEG    <$60
C5D9: 10             FCB    $10
C5DA: 10             FCB    $10
C5DB: 10             FCB    $10
C5DC: 10             FCB    $10
C5DD: 10 60 00       NEG    $0,X
C5E0: 00 00          NEG    <$00
C5E2: 60 10          NEG    -$10,X
C5E4: 10             FCB    $10
C5E5: 10 60 00       NEG    $0,X
C5E8: 00 00          NEG    <$00
C5EA: 00 00          NEG    <$00
C5EC: 60 10          NEG    -$10,X
C5EE: 60 00          NEG    $0,X
C5F0: 00 00          NEG    <$00
C5F2: 00 00          NEG    <$00
C5F4: 00 00          NEG    <$00
C5F6: 60 00          NEG    $0,X
C5F8: 00 00          NEG    <$00
C5FA: 00 04          NEG    <$04
C5FC: 00 09          NEG    <$09
C5FE: FF 01 0A       STU    $010A
C601: 00 0B          NEG    <$0B
C603: FF 02 0C       STU    $020C
C606: 00 0D          NEG    <$0D
C608: FF 03 0E       STU    $030E
C60B: 00 0F          NEG    <$0F
C60D: FF 04 10       STU    $0410
C610: 00 11          NEG    <$11
C612: FF 05 12       STU    $0512
C615: 00 13          NEG    <$13
C617: FF 06 14       STU    $0614
C61A: 00 15          NEG    <$15
C61C: FF 07 16       STU    $0716
C61F: 00 17          NEG    <$17
C621: FF 08 F2       STU    $08F2
C624: 00 FF          NEG    <$FF
C626: FF 01 F0       STU    $01F0
C629: 00 F1          NEG    <$F1
C62B: FF 02 EE       STU    $02EE
C62E: 00 EF          NEG    <$EF
C630: FF 03 EC       STU    $03EC
C633: 00 ED          NEG    <$ED
C635: FF 04 EA       STU    $04EA
C638: 00 EB          NEG    <$EB
C63A: FF 05 E8       STU    $05E8
C63D: 00 E9          NEG    <$E9
C63F: FF 06 E6       STU    $06E6
C642: 00 E7          NEG    <$E7
C644: FF 07 E4       STU    $07E4
C647: 00 E5          NEG    <$E5
C649: FF 08 04       STU    $0804
C64C: 00 FF          NEG    <$FF
C64E: 07 01          ASR    <$01
C650: 0A 08          DEC    <$08
C652: F1 09 02       CMPB   $0902
C655: 0C 0A          INC    <$0A
C657: EF 0B          STU    $B,X
C659: 03 0E          COM    <$0E
C65B: 0C ED          INC    <$ED
C65D: 0D 04          TST    <$04
C65F: 10 0E EB       JMP    <$EB
C662: 0F 05          CLR    <$05
C664: 12             NOP
C665: 10 E9 11       ADCB   -$F,X
C668: 06 14          ROR    <$14
C66A: 12             NOP
C66B: E7 13          STB    -$D,X
C66D: 07 16          ASR    <$16
C66F: 14             XHCF
C670: E5 15          BITB   -$B,X
C672: 08 04          ASL    <$04
C674: F8 FF FF       EORB   $FFFF
C677: 01 0A          NEG    <$0A
C679: F6 F1 F7       LDB    $F1F7
C67C: 02 0C          XNC    <$0C
C67E: F4 EF F5       ANDB   $EFF5
C681: 03 0E          COM    <$0E
C683: F2 ED F3       SBCB   $EDF3
C686: 04 10          LSR    <$10
C688: F0 EB F1       SUBB   $EBF1
C68B: 05 12          LSR    <$12
C68D: EE E9 EF 06    LDU    -$10FA,S
C691: 14             XHCF
C692: EC E7          LDD    E,S
C694: ED 07          STD    $7,X
C696: 16 EA E5       LBRA   $B17E
C699: EB 08          ADDB   $8,X
C69B: 01 00          NEG    <$00
C69D: 00 D5          NEG    <$D5
C69F: 54             LSRB
C6A0: 4F             CLRA
C6A1: 44             LSRA
C6A2: 41             NEGA
C6A3: 59             ROLB
C6A4: 27 53          BEQ    $C6F9
C6A6: 20 4B          BRA    $C6F3
C6A8: 45             LSRA
C6A9: 45             LSRA
C6AA: 50             NEGB
C6AB: 45             LSRA
C6AC: 52             XNCB
C6AD: 53             COMB
C6AE: FF B0 45       STU    $B045
C6B1: 4E             XCLRA
C6B2: 54             LSRB
C6B3: 45             LSRA
C6B4: 52             XNCB
C6B5: 20 49          BRA    $C700
C6B7: 4E             XCLRA
C6B8: 49             ROLA
C6B9: 54             LSRB
C6BA: 49             ROLA
C6BB: 41             NEGA
C6BC: 4C             INCA
C6BD: 53             COMB
C6BE: 20 57          BRA    $C717
C6C0: 49             ROLA
C6C1: 54             LSRB
C6C2: 48             ASLA
C6C3: 20 4A          BRA    $C70F
C6C5: 4F             CLRA
C6C6: 59             ROLB
C6C7: 53             COMB
C6C8: 54             LSRB
C6C9: 49             ROLA
C6CA: 43             COMA
C6CB: 4B             XDECA
C6CC: FF B3 50       STU    $B350
C6CF: 52             XNCB
C6D0: 45             LSRA
C6D1: 53             COMB
C6D2: 53             COMB
C6D3: 20 4A          BRA    $C71F
C6D5: 55             LSRB
C6D6: 4D             TSTA
C6D7: 50             NEGB
C6D8: 20 46          BRA    $C720
C6DA: 4F             CLRA
C6DB: 52             XNCB
C6DC: 20 4E          BRA    $C72C
C6DE: 45             LSRA
C6DF: 58             ASLB
C6E0: 54             LSRB
C6E1: 20 49          BRA    $C72C
C6E3: 4E             XCLRA
C6E4: 49             ROLA
C6E5: 54             LSRB
C6E6: 49             ROLA
C6E7: 41             NEGA
C6E8: 4C             INCA
C6E9: FF CF 48       STU    $CF48
C6EC: 49             ROLA
C6ED: 47             ASRA
C6EE: 48             ASLA
C6EF: 45             LSRA
C6F0: 53             COMB
C6F1: 54             LSRB
C6F2: 20 53          BRA    $C747
C6F4: 43             COMA
C6F5: 4F             CLRA
C6F6: 52             XNCB
C6F7: 45             LSRA
C6F8: 53             COMB
C6F9: 20 41          BRA    $C73C
C6FB: 54             LSRB
C6FC: FF CF 42       STU    $CF42
C6FF: 45             LSRA
C700: 53             COMB
C701: 54             LSRB
C702: 20 4B          BRA    $C74F
C704: 45             LSRA
C705: 45             LSRA
C706: 50             NEGB
C707: 45             LSRA
C708: 52             XNCB
C709: 53             COMB
C70A: 20 45          BRA    $C751
C70C: 56             RORB
C70D: 45             LSRA
C70E: 52             XNCB
C70F: FF D7 00       STU    $D700
C712: 01 02          NEG    <$02
C714: 20 03          BRA    $C719
C716: 04 05          LSR    <$05
C718: 20 03          BRA    $C71D
C71A: 04 05          LSR    <$05
C71C: FF B8 06       STU    $B806
C71F: 07 08          ASR    <$08
C721: 20 09          BRA    $C72C
C723: 0A 0B          DEC    <$0B
C725: 20 09          BRA    $C730
C727: 0A 0B          DEC    <$0B
C729: 20 0C          BRA    $C737
C72B: 0D 0E          TST    <$0E
C72D: 20 09          BRA    $C738
C72F: 0A 0B          DEC    <$0B
C731: 20 0F          BRA    $C742
C733: 10             FCB    $10
C734: 11 FF EA 50    STS    $EA50
C738: 4C             INCA
C739: 41             NEGA
C73A: 59             ROLB
C73B: 20 4D          BRA    $C78A
C73D: 45             LSRA
C73E: 21 FF          BRN    $C73F
C740: EA 50          ORB    -$10,U
C742: 4C             INCA
C743: 41             NEGA
C744: 59             ROLB
C745: 45             LSRA
C746: 52             XNCB
C747: 20 31          BRA    $C77A
C749: FF EA 50       STU    $EA50
C74C: 4C             INCA
C74D: 41             NEGA
C74E: 59             ROLB
C74F: 45             LSRA
C750: 52             XNCB
C751: 20 32          BRA    $C785
C753: FF E5 B7       STU    $E5B7
C756: E5 AD E5 A9    BITB   $AD03,PCR
C75A: E5 A5          BITB   B,Y
C75C: E5 A1          BITB   ,Y++
C75E: E5 9D E5 99    BITB   [$ACFB,PCR]
C762: E5 95          BITB   [B,X]
C764: 0C 04          INC    <$04
C766: F5 02 00       BITB   $0200
C769: 00 60          NEG    <$60
C76B: 60 00          NEG    $0,X
C76D: 60 60          NEG    $0,S
C76F: 60 00          NEG    $0,X
C771: 60 60          NEG    $0,S
C773: 60 60          NEG    $0,S
C775: 60 60          NEG    $0,S
C777: 60 60          NEG    $0,S
C779: 60 60          NEG    $0,S
C77B: 60 60          NEG    $0,S
C77D: 60 60          NEG    $0,S
C77F: 60 00          NEG    $0,X
C781: 60 60          NEG    $0,S
C783: 60 00          NEG    $0,X
C785: 60 60          NEG    $0,S
C787: 60 00          NEG    $0,X
C789: 00 60          NEG    <$60
C78B: 60 00          NEG    $0,X
C78D: 00 30          NEG    <$30
C78F: 00 00          NEG    <$00
C791: 00 30          NEG    <$30
C793: 00 00          NEG    <$00
C795: 00 30          NEG    <$30
C797: 00 0B          NEG    <$0B
C799: 05 F6          LSR    <$F6
C79B: 00 00          NEG    <$00
C79D: 60 00          NEG    $0,X
C79F: 00 00          NEG    <$00
C7A1: 60 60          NEG    $0,S
C7A3: 00 00          NEG    <$00
C7A5: 00 60          NEG    <$60
C7A7: 60 60          NEG    $0,S
C7A9: 00 00          NEG    <$00
C7AB: 60 60          NEG    $0,S
C7AD: 60 00          NEG    $0,X
C7AF: 00 60          NEG    <$60
C7B1: 60 60          NEG    $0,S
C7B3: 60 00          NEG    $0,X
C7B5: 60 60          NEG    $0,S
C7B7: 60 60          NEG    $0,S
C7B9: 00 00          NEG    <$00
C7BB: 60 60          NEG    $0,S
C7BD: 60 60          NEG    $0,S
C7BF: 00 00          NEG    <$00
C7C1: 60 60          NEG    $0,S
C7C3: 60 00          NEG    $0,X
C7C5: 00 00          NEG    <$00
C7C7: 30 00          LEAX   $0,X
C7C9: 00 00          NEG    <$00
C7CB: 00 00          NEG    <$00
C7CD: 30 00          LEAX   $0,X
C7CF: 00 00          NEG    <$00
C7D1: 00 30          NEG    <$30
C7D3: 08 07          ASL    <$07
C7D5: F8 FE 60       EORB   $FE60
C7D8: 00 00          NEG    <$00
C7DA: 00 00          NEG    <$00
C7DC: 00 00          NEG    <$00
C7DE: 60 60          NEG    $0,S
C7E0: 00 00          NEG    <$00
C7E2: 00 00          NEG    <$00
C7E4: 00 60          NEG    <$60
C7E6: 60 60          NEG    $0,S
C7E8: 00 00          NEG    <$00
C7EA: 00 00          NEG    <$00
C7EC: 60 60          NEG    $0,S
C7EE: 60 60          NEG    $0,S
C7F0: 00 00          NEG    <$00
C7F2: 00 60          NEG    <$60
C7F4: 60 60          NEG    $0,S
C7F6: 60 60          NEG    $0,S
C7F8: 00 00          NEG    <$00
C7FA: 00 60          NEG    <$60
C7FC: 60 60          NEG    $0,S
C7FE: 60 60          NEG    $0,S
C800: 00 00          NEG    <$00
C802: 00 60          NEG    <$60
C804: 60 60          NEG    $0,S
C806: 30 00          LEAX   $0,X
C808: 00 00          NEG    <$00
C80A: 00 00          NEG    <$00
C80C: 00 00          NEG    <$00
C80E: 30 05          LEAX   $5,X
C810: 09 03          ROL    <$03
C812: 08 00          ASL    <$00
C814: 00 00          NEG    <$00
C816: 00 00          NEG    <$00
C818: 60 60          NEG    $0,S
C81A: 00 00          NEG    <$00
C81C: 00 00          NEG    <$00
C81E: 00 00          NEG    <$00
C820: 60 60          NEG    $0,S
C822: 60 60          NEG    $0,S
C824: 00 00          NEG    <$00
C826: 00 00          NEG    <$00
C828: 60 60          NEG    $0,S
C82A: 60 60          NEG    $0,S
C82C: 60 60          NEG    $0,S
C82E: 30 30          LEAX   -$10,Y
C830: 30 60          LEAX   $0,S
C832: 60 60          NEG    $0,S
C834: 60 60          NEG    $0,S
C836: 60 00          NEG    $0,X
C838: 00 00          NEG    <$00
C83A: 60 60          NEG    $0,S
C83C: 60 60          NEG    $0,S
C83E: 60 60          NEG    $0,S
C840: 08 08          ASL    <$08
C842: FE 07 00       LDU    $0700
C845: 00 00          NEG    <$00
C847: 00 60          NEG    <$60
C849: 60 60          NEG    $0,S
C84B: 00 00          NEG    <$00
C84D: 00 00          NEG    <$00
C84F: 60 60          NEG    $0,S
C851: 60 60          NEG    $0,S
C853: 60 00          NEG    $0,X
C855: 00 60          NEG    <$60
C857: 60 60          NEG    $0,S
C859: 60 60          NEG    $0,S
C85B: 00 00          NEG    <$00
C85D: 00 60          NEG    <$60
C85F: 60 60          NEG    $0,S
C861: 60 00          NEG    $0,X
C863: 00 00          NEG    <$00
C865: 00 60          NEG    <$60
C867: 60 60          NEG    $0,S
C869: 00 00          NEG    <$00
C86B: 00 00          NEG    <$00
C86D: 00 60          NEG    <$60
C86F: 60 00          NEG    $0,X
C871: 00 00          NEG    <$00
C873: 00 00          NEG    <$00
C875: 30 60          LEAX   $0,S
C877: 00 00          NEG    <$00
C879: 00 00          NEG    <$00
C87B: 00 30          NEG    <$30
C87D: 00 00          NEG    <$00
C87F: 00 00          NEG    <$00
C881: 00 00          NEG    <$00
C883: 00 0A          NEG    <$0A
C885: 06 FC          ROR    <$FC
C887: 05 00          LSR    <$00
C889: 00 00          NEG    <$00
C88B: 60 60          NEG    $0,S
C88D: 60 00          NEG    $0,X
C88F: 00 60          NEG    <$60
C891: 60 60          NEG    $0,S
C893: 60 00          NEG    $0,X
C895: 60 60          NEG    $0,S
C897: 60 60          NEG    $0,S
C899: 00 00          NEG    <$00
C89B: 60 60          NEG    $0,S
C89D: 60 60          NEG    $0,S
C89F: 00 00          NEG    <$00
C8A1: 60 60          NEG    $0,S
C8A3: 60 00          NEG    $0,X
C8A5: 00 00          NEG    <$00
C8A7: 60 60          NEG    $0,S
C8A9: 60 00          NEG    $0,X
C8AB: 00 00          NEG    <$00
C8AD: 60 60          NEG    $0,S
C8AF: 00 00          NEG    <$00
C8B1: 00 00          NEG    <$00
C8B3: 30 60          LEAX   $0,S
C8B5: 00 00          NEG    <$00
C8B7: 00 30          NEG    <$30
C8B9: 00 00          NEG    <$00
C8BB: 00 00          NEG    <$00
C8BD: 00 30          NEG    <$30
C8BF: 00 00          NEG    <$00
C8C1: 00 00          NEG    <$00
C8C3: 00 A0          NEG    <$A0
C8C5: 89 A0          ADCA   #$A0
C8C7: 89 A0          ADCA   #$A0
C8C9: 89 A0          ADCA   #$A0
C8CB: 89 A0          ADCA   #$A0
C8CD: 89 A0          ADCA   #$A0
C8CF: B9 A0 E9       ADCA   $A0E9
C8D2: A1 1A          CMPA   -$6,X
C8D4: A1 4B          CMPA   $B,U
C8D6: A1 7B          CMPA   -$5,S
C8D8: A1 AB          CMPA   D,Y
C8DA: A1 DC A2       CMPA   [$C87F,PCR]
C8DD: 60 A2          NEG    ,-Y
C8DF: C7 A3          XSTB   #$A3
C8E1: 2E A3          BGT    $C886
C8E3: 7F A3 C2       CLR    $A3C2
C8E6: A4 13          ANDA   -$D,X
C8E8: A4 7A          ANDA   -$6,S
C8EA: A4 CB          ANDA   D,U
C8EC: A5 29          BITA   $9,Y
C8EE: A5 FD A6 3D    BITA   [$6F2F,PCR]
C8F2: A6 80          LDA    ,X+
C8F4: A6 BC A6       LDA    [$C89D,PCR]
C8F7: FF A7 3F       STU    $A73F
C8FA: A7 82          STA    ,-X
C8FC: A7 BE          STA    [W,Y]
C8FE: A8 01          EORA   $1,X
C900: A8 3D          EORA   -$3,Y
C902: A8 71          EORA   -$F,S
C904: A8 71          EORA   -$F,S
C906: A8 71          EORA   -$F,S
C908: A8 71          EORA   -$F,S
C90A: A8 A9 A9 3C    EORA   -$56C4,Y
C90E: A9 7F          ADCA   -$1,S
C910: A9 A6          ADCA   A,Y
C912: B3 81 B3       SUBD   $81B3
C915: 81 B4          CMPA   #$B4
C917: 1E B4          EXG    DP,S
C919: 1E B4          EXG    DP,S
C91B: C4 B4          ANDB   #$B4
C91D: C4 B5          ANDB   #$B5
C91F: 73 B5 73       COM    $B573
C922: B6 19 B6       LDA    $19B6
C925: BF B7 5C       STX    $B75C
C928: B0 68 B0       SUBA   $68B0
C92B: 68 B1          ASL    [,Y++]
C92D: 06 B1          ROR    <$B1
C92F: 06 B0          ROR    <$B0
C931: 68 B0 68 B1    ASL    [$68B1,W]
C935: A4 B1          ANDA   [,Y++]
C937: A4 B2          ANDA   Illegal Postbyte
C939: 42             XNCA
C93A: B2 E0 B0       SBCA   $E0B0
C93D: 68 B8 4A       ASL    [$4A,Y]
C940: B8 A8 B9       EORA   $A8B9
C943: 29 B9          BVS    $C8FE
C945: 6C B9 AF B9    INC    [-$5047,Y]
C949: F2 BA 35       SBCB   $BA35
C94C: BA 78 BA       ORA    $78BA
C94F: BB BA FE       ADDA   $BAFE
C952: BB 41 BB       ADDA   $41BB
C955: FB BD 1F       ADDB   $BD1F
C958: BE 23 BF       LDX    $23BF
C95B: 47             ASRA
C95C: C0 6B          SUBB   #$6B
C95E: C1 50          CMPB   #$50
C960: C2 34          SBCB   #$34
C962: C3 7C C4       ADDD   #$7CC4
C965: 2A C4          BPL    $C92B
C967: E9 C5          ADCB   B,U
C969: 9D C8          JSR    <$C8
C96B: 0F C8          CLR    <$C8
C96D: 40             NEGA
C96E: C8 84          EORB   #$84
C970: C8 40          EORB   #$40
C972: C7 64          XSTB   #$64
C974: C7 98          XSTB   #$98
C976: C7 D3          XSTB   #$D3
C978: C7 98          XSTB   #$98
C97A: A0 19          SUBA   -$7,X
C97C: A0 85          SUBA   B,X
C97E: A1 0B          CMPA   $B,X
C980: A1 91          CMPA   [,X++]
C982: A2 0A          SBCA   $A,X
C984: A2 74          SBCA   -$C,S
C986: A2 DE          SBCA   [W,U]
C988: A3 48          SUBD   $8,U
C98A: A3 C3          SUBD   ,--U
C98C: A4 63          ANDA   $3,S
C98E: A5 0F          BITA   $F,X
C990: A5 A3          BITA   ,--Y
C992: A6 36          LDA    -$A,Y
C994: A6 C1          LDA    ,U++
C996: A7 5B          STA    -$5,U
C998: A7 EF          STA    ,--W
C99A: A8 7F          EORA   -$1,S
C99C: A8 F1          EORA   [,S++]
C99E: A8 7F          EORA   -$1,S
C9A0: A8 F1          EORA   [,S++]
C9A2: A9 58          ADCA   -$8,U
C9A4: A9 B0 A9 58    ADCA   [-$56A8,W]
C9A8: A9 B0 AA 0F    ADCA   [-$55F1,W]
C9AC: AA 6D          ORA    $D,S
C9AE: AA EA          ORA    F,S
C9B0: AB 66          ADDA   $6,S
C9B2: AB E2          ADDA   ,-S
C9B4: AC 41          CMPX   $1,U
C9B6: AC B5          CMPX   [B,Y]
C9B8: AD 29          JSR    $9,Y
C9BA: AD 9D AE 19    JSR    [$77D7,PCR]
C9BE: AE AC AF       LDX    $C970,PCR
C9C1: 3F             SWI
C9C2: AF C5          STX    B,U
C9C4: B0 39 B0       SUBA   $39B0
C9C7: C5 B1          BITB   #$B1
C9C9: 51             NEGB
C9CA: B1 CC B2       CMPA   $CCB2
C9CD: 66 B3          ROR    [,--Y]
C9CF: 20 B3          BRA    $C984
C9D1: C4 B4          ANDB   #$B4
C9D3: 6D B4          TST    [,Y]
C9D5: FD B5 BF       STD    $B5BF
C9D8: B6 56 C9       LDA    $56C9
C9DB: FC CA 3F       LDD    $CA3F
C9DE: CA C7          ORB    #$C7
C9E0: CB 2F          ADDB   #$2F
C9E2: B6 EA B7       LDA    $EAB7
C9E5: 6C B7          INC    [E,Y]
C9E7: E8 B8 5A       EORB   [$5A,Y]
C9EA: B8 CC B9       EORA   $CCB9
C9ED: 60 B9 FA BA    NEG    [-$0546,Y]
C9F1: B9 CB C6       ADCA   $CBC6
C9F4: CC 43 CC       LDD    #$43CC
C9F7: C0 CD          SUBB   #$CD
C9F9: 4B             XDECA
C9FA: CD             XHCF
C9FB: D6 0B          LDB    <$0B
C9FD: 05 00          LSR    <$00
C9FF: 00 00          NEG    <$00
CA01: 00 30          NEG    <$30
CA03: 00 00          NEG    <$00
CA05: 00 00          NEG    <$00
CA07: 30 00          LEAX   $0,X
CA09: 00 00          NEG    <$00
CA0B: 00 30          NEG    <$30
CA0D: 00 00          NEG    <$00
CA0F: 00 00          NEG    <$00
CA11: 30 00          LEAX   $0,X
CA13: 00 00          NEG    <$00
CA15: 00 30          NEG    <$30
CA17: 00 00          NEG    <$00
CA19: 00 60          NEG    <$60
CA1B: 60 60          NEG    $0,S
CA1D: 00 60          NEG    <$60
CA1F: 00 00          NEG    <$00
CA21: 00 60          NEG    <$60
CA23: 60 00          NEG    $0,X
CA25: 00 00          NEG    <$00
CA27: 60 60          NEG    $0,S
CA29: 00 00          NEG    <$00
CA2B: 00 60          NEG    <$60
CA2D: 60 00          NEG    $0,X
CA2F: 00 00          NEG    <$00
CA31: 60 00          NEG    $0,X
CA33: 60 60          NEG    $0,S
CA35: 60 00          NEG    $0,X
CA37: 01 03          NEG    <$03
CA39: 01 00          NEG    <$00
CA3B: 02 03          XNC    <$03
CA3D: 02 00          XNC    <$00
CA3F: 0C 0B          INC    <$0B
CA41: F5 FB 00       BITB   $FB00
CA44: 00 00          NEG    <$00
CA46: 00 40          NEG    <$40
CA48: 50             NEGB
CA49: 50             NEGB
CA4A: 00 00          NEG    <$00
CA4C: 00 00          NEG    <$00
CA4E: 00 50          NEG    <$50
CA50: 00 50          NEG    <$50
CA52: 40             NEGA
CA53: 40             NEGA
CA54: 40             NEGA
CA55: 50             NEGB
CA56: 00 00          NEG    <$00
CA58: 00 00          NEG    <$00
CA5A: 00 50          NEG    <$50
CA5C: 40             NEGA
CA5D: 40             NEGA
CA5E: 50             NEGB
CA5F: 40             NEGA
CA60: 40             NEGA
CA61: 50             NEGB
CA62: 00 50          NEG    <$50
CA64: 00 50          NEG    <$50
CA66: 40             NEGA
CA67: 40             NEGA
CA68: 00 70          NEG    <$70
CA6A: 70 40 40       NEG    $4040
CA6D: 50             NEGB
CA6E: 40             NEGA
CA6F: 00 40          NEG    <$40
CA71: 50             NEGB
CA72: 00 70          NEG    <$70
CA74: 00 70          NEG    <$70
CA76: 70 40 40       NEG    $4040
CA79: 30 50          LEAX   -$10,U
CA7B: 40             NEGA
CA7C: 00 00          NEG    <$00
CA7E: 70 70 00       NEG    $7000
CA81: 70 40 50       NEG    $4050
CA84: 40             NEGA
CA85: 40             NEGA
CA86: 00 00          NEG    <$00
CA88: 00 70          NEG    <$70
CA8A: 70 70 70       NEG    $7070
CA8D: 50             NEGB
CA8E: 70 70 00       NEG    $7000
CA91: 00 00          NEG    <$00
CA93: 40             NEGA
CA94: 70 70 70       NEG    $7070
CA97: 50             NEGB
CA98: 70 00 70       NEG    >$0070
CA9B: 00 00          NEG    <$00
CA9D: 50             NEGB
CA9E: 40             NEGA
CA9F: 40             NEGA
CAA0: 70 50 50       NEG    $5050
CAA3: 70 70 70       NEG    $7070
CAA6: 00 50          NEG    <$50
CAA8: 40             NEGA
CAA9: 00 00          NEG    <$00
CAAB: 00 30          NEG    <$30
CAAD: 00 70          NEG    <$70
CAAF: 00 70          NEG    <$70
CAB1: 00 00          NEG    <$00
CAB3: 00 00          NEG    <$00
CAB5: 00 20          NEG    <$20
CAB7: 50             NEGB
CAB8: 00 70          NEG    <$70
CABA: 70 70 00       NEG    $7000
CABD: 00 00          NEG    <$00
CABF: 00 20          NEG    <$20
CAC1: 30 00          LEAX   $0,X
CAC3: 00 00          NEG    <$00
CAC5: 70 00 0A       NEG    >$000A
CAC8: 0A F4          DEC    <$F4
CACA: 05 00          LSR    <$00
CACC: 00 00          NEG    <$00
CACE: 10             FCB    $10
CACF: 10 50          NEGB
CAD1: 50             NEGB
CAD2: 00 00          NEG    <$00
CAD4: 00 00          NEG    <$00
CAD6: 00 50          NEG    <$50
CAD8: 10 40          NEGA
CADA: 40             NEGA
CADB: 40             NEGA
CADC: 50             NEGB
CADD: 00 00          NEG    <$00
CADF: 00 40          NEG    <$40
CAE1: 40             NEGA
CAE2: 10 40          NEGA
CAE4: 40             NEGA
CAE5: 20 40          BRA    $CB27
CAE7: 50             NEGB
CAE8: 00 50          NEG    <$50
CAEA: 40             NEGA
CAEB: 20 20          BRA    $CB0D
CAED: 10 20 00 20    XLBRA  $CB11
CAF1: 40             NEGA
CAF2: 50             NEGB
CAF3: 40             NEGA
CAF4: 20 40          BRA    $CB36
CAF6: 00 00          NEG    <$00
CAF8: 10 00 00       NEG    <$00
CAFB: 40             NEGA
CAFC: 00 40          NEG    <$40
CAFE: 00 20          NEG    <$20
CB00: 40             NEGA
CB01: 50             NEGB
CB02: 00 10          NEG    <$10
CB04: 00 00          NEG    <$00
CB06: 50             NEGB
CB07: 40             NEGA
CB08: 50             NEGB
CB09: 00 40          NEG    <$40
CB0B: 40             NEGA
CB0C: 50             NEGB
CB0D: 10 00 00       NEG    <$00
CB10: 00 40          NEG    <$40
CB12: 40             NEGA
CB13: 00 50          NEG    <$50
CB15: 00 50          NEG    <$50
CB17: 00 10          NEG    <$10
CB19: 00 00          NEG    <$00
CB1B: 00 50          NEG    <$50
CB1D: 00 00          NEG    <$00
CB1F: 00 00          NEG    <$00
CB21: 00 10          NEG    <$10
CB23: 00 00          NEG    <$00
CB25: 00 40          NEG    <$40
CB27: 00 00          NEG    <$00
CB29: 00 00          NEG    <$00
CB2B: 00 10          NEG    <$10
CB2D: 00 00          NEG    <$00
CB2F: 15             XHCF
CB30: 07 06          ASR    <$06
CB32: FC 00 70       LDD    >$0070
CB35: 50             NEGB
CB36: 00 00          NEG    <$00
CB38: 00 00          NEG    <$00
CB3A: 70 50 00       NEG    $5000
CB3D: 00 00          NEG    <$00
CB3F: 00 00          NEG    <$00
CB41: 70 30 00       NEG    $3000
CB44: 00 00          NEG    <$00
CB46: 00 00          NEG    <$00
CB48: 20 50          BRA    $CB9A
CB4A: 00 00          NEG    <$00
CB4C: 00 00          NEG    <$00
CB4E: 00 70          NEG    <$70
CB50: 20 00          BRA    $CB52
CB52: 00 00          NEG    <$00
CB54: 00 00          NEG    <$00
CB56: 70 50 00       NEG    $5000
CB59: 00 00          NEG    <$00
CB5B: 00 00          NEG    <$00
CB5D: 30 70          LEAX   -$10,S
CB5F: 00 00          NEG    <$00
CB61: 00 00          NEG    <$00
CB63: 00 70          NEG    <$70
CB65: 70 00 00       NEG    >$0000
CB68: 00 00          NEG    <$00
CB6A: 00 20          NEG    <$20
CB6C: 50             NEGB
CB6D: 00 00          NEG    <$00
CB6F: 00 00          NEG    <$00
CB71: 00 20          NEG    <$20
CB73: 50             NEGB
CB74: 00 00          NEG    <$00
CB76: 00 00          NEG    <$00
CB78: 00 70          NEG    <$70
CB7A: 50             NEGB
CB7B: 30 00          LEAX   $0,X
CB7D: 00 00          NEG    <$00
CB7F: 00 70          NEG    <$70
CB81: 70 50 00       NEG    $5000
CB84: 00 00          NEG    <$00
CB86: 00 20          NEG    <$20
CB88: 20 30          BRA    $CBBA
CB8A: 00 00          NEG    <$00
CB8C: 00 00          NEG    <$00
CB8E: 70 30 70       NEG    $3070
CB91: 30 00          LEAX   $0,X
CB93: 00 00          NEG    <$00
CB95: 00 70          NEG    <$70
CB97: 30 50          LEAX   -$10,U
CB99: 00 00          NEG    <$00
CB9B: 00 00          NEG    <$00
CB9D: 70 30 50       NEG    $3050
CBA0: 00 00          NEG    <$00
CBA2: 00 00          NEG    <$00
CBA4: 20 20          BRA    $CBC6
CBA6: 30 30          LEAX   -$10,Y
CBA8: 00 00          NEG    <$00
CBAA: 00 70          NEG    <$70
CBAC: 70 30 50       NEG    $3050
CBAF: 00 00          NEG    <$00
CBB1: 00 00          NEG    <$00
CBB3: 70 20 50       NEG    $2050
CBB6: 30 00          LEAX   $0,X
CBB8: 00 00          NEG    <$00
CBBA: 70 50 70       NEG    $5070
CBBD: 50             NEGB
CBBE: 30 00          LEAX   $0,X
CBC0: 00 70          NEG    <$70
CBC2: 70 20 30       NEG    $2030
CBC5: 50             NEGB
CBC6: 0B 0B          XDEC   <$0B
CBC8: 00 00          NEG    <$00
CBCA: FF FF FF       STU    $FFFF
CBCD: FD FF FD       STD    $FFFD
CBD0: FF FD FF       STU    $FDFF
CBD3: FF FF FF       STU    $FFFF
CBD6: FD FD FD       STD    $FDFD
CBD9: FD FD FD       STD    $FDFD
CBDC: FD FD FD       STD    $FDFD
CBDF: FF FF FD       STU    $FFFD
CBE2: FD FD FD       STD    $FDFD
CBE5: FD FD FD       STD    $FDFD
CBE8: FD FD FF       STD    $FDFF
CBEB: FD FD FD       STD    $FDFD
CBEE: FD FD FD       STD    $FDFD
CBF1: FD FD FD       STD    $FDFD
CBF4: FD FD FD       STD    $FDFD
CBF7: FD FD FD       STD    $FDFD
CBFA: FD FD FD       STD    $FDFD
CBFD: FD FD FD       STD    $FDFD
CC00: FF FD FD       STU    $FDFD
CC03: FD FD FD       STD    $FDFD
CC06: FD FD FD       STD    $FDFD
CC09: FD FD FD       STD    $FDFD
CC0C: FF FD FD       STU    $FDFD
CC0F: FD FD FD       STD    $FDFD
CC12: FD FD FD       STD    $FDFD
CC15: FD FD FD       STD    $FDFD
CC18: FD FD FD       STD    $FDFD
CC1B: FD FD FD       STD    $FDFD
CC1E: FD FD FD       STD    $FDFD
CC21: FD FF FD       STD    $FFFD
CC24: FD FD FD       STD    $FDFD
CC27: FD FD FD       STD    $FDFD
CC2A: FD FD FF       STD    $FDFF
CC2D: FF FD FD       STU    $FDFD
CC30: FD FD FD       STD    $FDFD
CC33: FD FD FD       STD    $FDFD
CC36: FD FF FF       STD    $FFFF
CC39: FF FF FD       STU    $FFFD
CC3C: FF FD FF       STU    $FDFF
CC3F: FD FF FF       STD    $FFFF
CC42: FF 0B 0B       STU    $0B0B
CC45: 00 00          NEG    <$00
CC47: FF FF FF       STU    $FFFF
CC4A: F7 FF F7       STB    $FFF7
CC4D: FF F7 FF       STU    $F7FF
CC50: FF FF FF       STU    $FFFF
CC53: F7 F7 F7       STB    $F7F7
CC56: F7 F7 F7       STB    $F7F7
CC59: F7 F7 F7       STB    $F7F7
CC5C: FF FF F7       STU    $FFF7
CC5F: F7 F7 F7       STB    $F7F7
CC62: F7 F7 F7       STB    $F7F7
CC65: F7 F7 FF       STB    $F7FF
CC68: F7 F7 F7       STB    $F7F7
CC6B: F7 F7 F7       STB    $F7F7
CC6E: F7 F7 F7       STB    $F7F7
CC71: F7 F7 F7       STB    $F7F7
CC74: F7 F7 F7       STB    $F7F7
CC77: F7 F7 F7       STB    $F7F7
CC7A: F7 F7 F7       STB    $F7F7
CC7D: FF F7 F7       STU    $F7F7
CC80: F7 F7 F7       STB    $F7F7
CC83: F7 F7 F7       STB    $F7F7
CC86: F7 F7 F7       STB    $F7F7
CC89: FF F7 F7       STU    $F7F7
CC8C: F7 F7 F7       STB    $F7F7
CC8F: F7 F7 F7       STB    $F7F7
CC92: F7 F7 F7       STB    $F7F7
CC95: F7 F7 F7       STB    $F7F7
CC98: F7 F7 F7       STB    $F7F7
CC9B: F7 F7 F7       STB    $F7F7
CC9E: F7 FF F7       STB    $FFF7
CCA1: F7 F7 F7       STB    $F7F7
CCA4: F7 F7 F7       STB    $F7F7
CCA7: F7 F7 FF       STB    $F7FF
CCAA: FF F7 F7       STU    $F7F7
CCAD: F7 F7 F7       STB    $F7F7
CCB0: F7 F7 F7       STB    $F7F7
CCB3: F7 FF FF       STB    $FFFF
CCB6: FF FF F7       STU    $FFF7
CCB9: FF F7 FF       STU    $F7FF
CCBC: F7 FF FF       STB    $FFFF
CCBF: FF 0F 09       STU    $0F09
CCC2: 00 00          NEG    <$00
CCC4: FF FF FE       STU    $FFFE
CCC7: FE FE FF       LDU    $FEFF
CCCA: FE FF FF       LDU    $FFFF
CCCD: FF FE FE       STU    $FEFE
CCD0: FE FE FE       LDU    $FEFE
CCD3: FE FE FF       LDU    $FEFF
CCD6: FF FE FE       STU    $FEFE
CCD9: FE FE FE       LDU    $FEFE
CCDC: FE FE FF       LDU    $FEFF
CCDF: FE FE FE       LDU    $FEFE
CCE2: FE FE FE       LDU    $FEFE
CCE5: FE FE FE       LDU    $FEFE
CCE8: FF FE FE       STU    $FEFE
CCEB: FE FE FE       LDU    $FEFE
CCEE: FE FE FF       LDU    $FEFF
CCF1: FF FE FE       STU    $FEFE
CCF4: FE FE FE       LDU    $FEFE
CCF7: FE FE FF       LDU    $FEFF
CCFA: FE FE FE       LDU    $FEFE
CCFD: FE FE FE       LDU    $FEFE
CD00: FE FE FE       LDU    $FEFE
CD03: FE FE FE       LDU    $FEFE
CD06: FE FE FE       LDU    $FEFE
CD09: FE FE FE       LDU    $FEFE
CD0C: FE FE FE       LDU    $FEFE
CD0F: FE FE FE       LDU    $FEFE
CD12: FE FE FE       LDU    $FEFE
CD15: FF FE FE       STU    $FEFE
CD18: FE FE FE       LDU    $FEFE
CD1B: FE FE FF       LDU    $FEFF
CD1E: FF FE FE       STU    $FEFE
CD21: FE FE FE       LDU    $FEFE
CD24: FE FE FF       LDU    $FEFF
CD27: FE FE FE       LDU    $FEFE
CD2A: FE FE FE       LDU    $FEFE
CD2D: FE FE FE       LDU    $FEFE
CD30: FF FE FE       STU    $FEFE
CD33: FE FE FE       LDU    $FEFE
CD36: FE FE FF       LDU    $FEFF
CD39: FF FE FE       STU    $FEFE
CD3C: FE FE FE       LDU    $FEFE
CD3F: FE FE FF       LDU    $FEFF
CD42: FF FF FE       STU    $FFFE
CD45: FF FE FE       STU    $FEFE
CD48: FE FF FF       LDU    $FFFF
CD4B: 0F 09          CLR    <$09
CD4D: 00 00          NEG    <$00
CD4F: FF FF FB       STU    $FFFB
CD52: FB FB FF       ADDB   $FBFF
CD55: FB FF FF       ADDB   $FFFF
CD58: FF FB FB       STU    $FBFB
CD5B: FB FB FB       ADDB   $FBFB
CD5E: FB FB FF       ADDB   $FBFF
CD61: FF FB FB       STU    $FBFB
CD64: FB FB FB       ADDB   $FBFB
CD67: FB FB FF       ADDB   $FBFF
CD6A: FB FB FB       ADDB   $FBFB
CD6D: FB FB FB       ADDB   $FBFB
CD70: FB FB FB       ADDB   $FBFB
CD73: FF FB FB       STU    $FBFB
CD76: FB FB FB       ADDB   $FBFB
CD79: FB FB FF       ADDB   $FBFF
CD7C: FF FB FB       STU    $FBFB
CD7F: FB FB FB       ADDB   $FBFB
CD82: FB FB FF       ADDB   $FBFF
CD85: FB FB FB       ADDB   $FBFB
CD88: FB FB FB       ADDB   $FBFB
CD8B: FB FB FB       ADDB   $FBFB
CD8E: FB FB FB       ADDB   $FBFB
CD91: FB FB FB       ADDB   $FBFB
CD94: FB FB FB       ADDB   $FBFB
CD97: FB FB FB       ADDB   $FBFB
CD9A: FB FB FB       ADDB   $FBFB
CD9D: FB FB FB       ADDB   $FBFB
CDA0: FF FB FB       STU    $FBFB
CDA3: FB FB FB       ADDB   $FBFB
CDA6: FB FB FF       ADDB   $FBFF
CDA9: FF FB FB       STU    $FBFB
CDAC: FB FB FB       ADDB   $FBFB
CDAF: FB FB FF       ADDB   $FBFF
CDB2: FB FB FB       ADDB   $FBFB
CDB5: FB FB FB       ADDB   $FBFB
CDB8: FB FB FB       ADDB   $FBFB
CDBB: FF FB FB       STU    $FBFB
CDBE: FB FB FB       ADDB   $FBFB
CDC1: FB FB FF       ADDB   $FBFF
CDC4: FF FB FB       STU    $FBFB
CDC7: FB FB FB       ADDB   $FBFB
CDCA: FB FB FF       ADDB   $FBFF
CDCD: FF FF FB       STU    $FFFB
CDD0: FF FB FB       STU    $FBFB
CDD3: FB FF FF       ADDB   $FFFF
CDD6: 13             SYNC
CDD7: 0D 00          TST    <$00
CDD9: 00 90          NEG    <$90
CDDB: 90 90          SUBA   <$90
CDDD: 90 90          SUBA   <$90
CDDF: 90 90          SUBA   <$90
CDE1: 90 90          SUBA   <$90
CDE3: 90 90          SUBA   <$90
CDE5: 90 90          SUBA   <$90
CDE7: 90 90          SUBA   <$90
CDE9: 90 90          SUBA   <$90
CDEB: 90 90          SUBA   <$90
CDED: 90 90          SUBA   <$90
CDEF: 90 90          SUBA   <$90
CDF1: 90 90          SUBA   <$90
CDF3: 90 30          SUBA   <$30
CDF5: 30 30          LEAX   -$10,Y
CDF7: 30 30          LEAX   -$10,Y
CDF9: 30 30          LEAX   -$10,Y
CDFB: 30 30          LEAX   -$10,Y
CDFD: 30 30          LEAX   -$10,Y
CDFF: 30 30          LEAX   -$10,Y
CE01: 30 00          LEAX   $0,X
CE03: 30 00          LEAX   $0,X
CE05: 30 00          LEAX   $0,X
CE07: 30 00          LEAX   $0,X
CE09: 30 00          LEAX   $0,X
CE0B: 30 00          LEAX   $0,X
CE0D: 30 30          LEAX   -$10,Y
CE0F: 00 30          NEG    <$30
CE11: 00 30          NEG    <$30
CE13: 00 30          NEG    <$30
CE15: 00 30          NEG    <$30
CE17: 00 30          NEG    <$30
CE19: 00 30          NEG    <$30
CE1B: 30 00          LEAX   $0,X
CE1D: 30 00          LEAX   $0,X
CE1F: 30 00          LEAX   $0,X
CE21: 30 00          LEAX   $0,X
CE23: 30 00          LEAX   $0,X
CE25: 30 00          LEAX   $0,X
CE27: 30 30          LEAX   -$10,Y
CE29: 00 30          NEG    <$30
CE2B: 00 30          NEG    <$30
CE2D: 00 30          NEG    <$30
CE2F: 00 30          NEG    <$30
CE31: 00 30          NEG    <$30
CE33: 00 30          NEG    <$30
CE35: 30 00          LEAX   $0,X
CE37: 30 00          LEAX   $0,X
CE39: 30 00          LEAX   $0,X
CE3B: 30 00          LEAX   $0,X
CE3D: 30 00          LEAX   $0,X
CE3F: 30 00          LEAX   $0,X
CE41: 30 30          LEAX   -$10,Y
CE43: 00 30          NEG    <$30
CE45: 00 30          NEG    <$30
CE47: 00 30          NEG    <$30
CE49: 00 30          NEG    <$30
CE4B: 00 30          NEG    <$30
CE4D: 00 30          NEG    <$30
CE4F: 30 00          LEAX   $0,X
CE51: 30 00          LEAX   $0,X
CE53: 30 00          LEAX   $0,X
CE55: 30 00          LEAX   $0,X
CE57: 30 00          LEAX   $0,X
CE59: 30 00          LEAX   $0,X
CE5B: 30 30          LEAX   -$10,Y
CE5D: 00 30          NEG    <$30
CE5F: 00 30          NEG    <$30
CE61: 00 30          NEG    <$30
CE63: 00 30          NEG    <$30
CE65: 00 30          NEG    <$30
CE67: 00 30          NEG    <$30
CE69: 30 00          LEAX   $0,X
CE6B: 30 00          LEAX   $0,X
CE6D: 30 00          LEAX   $0,X
CE6F: 30 00          LEAX   $0,X
CE71: 30 00          LEAX   $0,X
CE73: 30 00          LEAX   $0,X
CE75: 30 30          LEAX   -$10,Y
CE77: 00 30          NEG    <$30
CE79: 00 30          NEG    <$30
CE7B: 00 30          NEG    <$30
CE7D: 00 30          NEG    <$30
CE7F: 00 30          NEG    <$30
CE81: 00 30          NEG    <$30
CE83: 30 00          LEAX   $0,X
CE85: 30 00          LEAX   $0,X
CE87: 30 00          LEAX   $0,X
CE89: 30 00          LEAX   $0,X
CE8B: 30 00          LEAX   $0,X
CE8D: 30 00          LEAX   $0,X
CE8F: 30 30          LEAX   -$10,Y
CE91: 00 30          NEG    <$30
CE93: 00 30          NEG    <$30
CE95: 00 30          NEG    <$30
CE97: 00 30          NEG    <$30
CE99: 00 30          NEG    <$30
CE9B: 00 30          NEG    <$30
CE9D: 30 80          LEAX   ,X+
CE9F: 30 80          LEAX   ,X+
CEA1: 30 80          LEAX   ,X+
CEA3: 30 80          LEAX   ,X+
CEA5: 30 80          LEAX   ,X+
CEA7: 30 80          LEAX   ,X+
CEA9: 30 30          LEAX   -$10,Y
CEAB: 80 30          SUBA   #$30
CEAD: 80 30          SUBA   #$30
CEAF: 80 30          SUBA   #$30
CEB1: 80 30          SUBA   #$30
CEB3: 80 30          SUBA   #$30
CEB5: 80 30          SUBA   #$30
CEB7: 90 90          SUBA   <$90
CEB9: 90 90          SUBA   <$90
CEBB: 90 90          SUBA   <$90
CEBD: 90 90          SUBA   <$90
CEBF: 90 90          SUBA   <$90
CEC1: 90 90          SUBA   <$90
CEC3: 90 90          SUBA   <$90
CEC5: 90 90          SUBA   <$90
CEC7: 90 90          SUBA   <$90
CEC9: 90 90          SUBA   <$90
CECB: 90 90          SUBA   <$90
CECD: 90 90          SUBA   <$90
CECF: 90 90          SUBA   <$90
CED1: 34 16          PSHS   X,D
CED3: 1F 89          TFR    A,B
CED5: 4F             CLRA
CED6: 58             ASLB
CED7: 8E AB C4       LDX    #$ABC4
CEDA: AE 8B          LDX    D,X
CEDC: A6 01          LDA    $1,X
CEDE: E6 E4          LDB    ,S
CEE0: C1 20          CMPB   #$20
CEE2: 25 01          BCS    $CEE5
CEE4: 4C             INCA
CEE5: 9B 3D          ADDA   <$3D
CEE7: 97 3D          STA    <$3D
CEE9: 35 16          PULS   D,X
CEEB: 39             RTS
CEEC: 34 04          PSHS   B
CEEE: 34 02          PSHS   A
CEF0: 44             LSRA
CEF1: 44             LSRA
CEF2: 44             LSRA
CEF3: 44             LSRA
CEF4: C6 0A          LDB    #$0A
CEF6: 3D             MUL
CEF7: A6 E4          LDA    ,S
CEF9: 84 0F          ANDA   #$0F
CEFB: 34 04          PSHS   B
CEFD: AB E0          ADDA   ,S+
CEFF: 35 04          PULS   B
CF01: 35 04          PULS   B
CF03: 39             RTS
CF04: BD E4 79       JSR    $E479
CF07: 34 06          PSHS   D
CF09: BD E4 79       JSR    $E479
CF0C: A0 E4          SUBA   ,S
CF0E: 4C             INCA
CF0F: E0 61          SUBB   $1,S
CF11: 5C             INCB
CF12: 34 06          PSHS   D
CF14: BD E4 59       JSR    $E459
CF17: 34 02          PSHS   A
CF19: EC 63          LDD    $3,S
CF1B: 97 39          STA    <$39
CF1D: B7 94 02       STA    $9402
CF20: 84 7F          ANDA   #$7F
CF22: 1F 01          TFR    D,X
CF24: E6 62          LDB    $2,S
CF26: A6 84          LDA    ,X
CF28: A4 E4          ANDA   ,S
CF2A: A7 80          STA    ,X+
CF2C: 5A             DECB
CF2D: 26 F7          BNE    $CF26
CF2F: 6C 63          INC    $3,S
CF31: 6A 61          DEC    $1,S
CF33: 26 E4          BNE    $CF19
CF35: 32 65          LEAS   $5,S
CF37: 39             RTS
CF38: BD E4 79       JSR    $E479
CF3B: DD 3E          STD    <$3E
CF3D: BD D7 0C       JSR    $D70C
CF40: 39             RTS
CF41: CC 04 00       LDD    #$0400
CF44: DD 12          STD    <$12
CF46: CC FF FF       LDD    #$FFFF
CF49: DD 14          STD    <$14
CF4B: 4F             CLRA
CF4C: 97 3B          STA    <$3B
CF4E: BD E6 91       JSR    $E691
CF51: 39             RTS
CF52: 4F             CLRA
CF53: 97 39          STA    <$39
CF55: B7 94 02       STA    $9402
CF58: B6 80 22       LDA    $8022
CF5B: 34 02          PSHS   A
CF5D: C6 90          LDB    #$90
CF5F: DD 12          STD    <$12
CF61: A6 E4          LDA    ,S
CF63: C6 BF          LDB    #$BF
CF65: DD 14          STD    <$14
CF67: 86 00          LDA    #$00
CF69: 97 0F          STA    <$0F
CF6B: 86 00          LDA    #$00
CF6D: 97 3B          STA    <$3B
CF6F: CC 00 FF       LDD    #$00FF
CF72: DD 10          STD    <$10
CF74: BD E6 DB       JSR    $E6DB
CF77: 32 72          LEAS   -$E,S
CF79: 1F 43          TFR    S,U
CF7B: 10 8E 00 07    LDY    #$0007
CF7F: BD E4 79       JSR    $E479
CF82: ED C1          STD    ,U++
CF84: 31 3F          LEAY   -$1,Y
CF86: 26 F7          BNE    $CF7F
CF88: A6 6E          LDA    $E,S
CF8A: C6 90          LDB    #$90
CF8C: 1F 01          TFR    D,X
CF8E: 10 8E 00 30    LDY    #$0030
CF92: 1F 43          TFR    S,U
CF94: C6 07          LDB    #$07
CF96: BD E4 B0       JSR    $E4B0
CF99: A1 41          CMPA   $1,U
CF9B: 22 06          BHI    $CFA3
CF9D: A6 C4          LDA    ,U
CF9F: A7 84          STA    ,X
CFA1: 20 05          BRA    $CFA8
CFA3: 33 42          LEAU   $2,U
CFA5: 5A             DECB
CFA6: 26 EE          BNE    $CF96
CFA8: 30 01          LEAX   $1,X
CFAA: 31 3F          LEAY   -$1,Y
CFAC: 26 E4          BNE    $CF92
CFAE: 32 6E          LEAS   $E,S
CFB0: 86 02          LDA    #$02
CFB2: E6 E0          LDB    ,S+
CFB4: 8E 84 35       LDX    #$8435
CFB7: AA 85          ORA    B,X
CFB9: A7 85          STA    B,X
CFBB: 39             RTS
CFBC: BD E4 79       JSR    $E479
CFBF: DD 3E          STD    <$3E
CFC1: 0F 04          CLR    <$04
CFC3: BD D9 92       JSR    $D992
CFC6: 39             RTS
CFC7: BD E4 79       JSR    $E479
CFCA: 34 02          PSHS   A
CFCC: 1F 98          TFR    B,A
CFCE: CE A8 A2       LDU    #$A8A2
CFD1: E6 C6          LDB    A,U
CFD3: 34 04          PSHS   B
CFD5: CE A8 A1       LDU    #$A8A1
CFD8: E6 C6          LDB    A,U
CFDA: DB 33          ADDB   <$33
CFDC: 6D 61          TST    $1,S
CFDE: 27 02          BEQ    $CFE2
CFE0: CB 08          ADDB   #$08
CFE2: 34 04          PSHS   B
CFE4: CE A8 71       LDU    #$A871
CFE7: 33 C6          LEAU   A,U
CFE9: D6 33          LDB    <$33
CFEB: 54             LSRB
CFEC: E6 C5          LDB    B,U
CFEE: D7 3B          STB    <$3B
CFF0: C6 05          LDB    #$05
CFF2: 3D             MUL
CFF3: CE A8 79       LDU    #$A879
CFF6: 33 C5          LEAU   B,U
CFF8: BD E4 59       JSR    $E459
CFFB: 34 02          PSHS   A
CFFD: BD E4 79       JSR    $E479
D000: 27 50          BEQ    $D052
D002: DD 3E          STD    <$3E
D004: 9E 3E          LDX    <$3E
D006: 6D 63          TST    $3,S
D008: 26 25          BNE    $D02F
D00A: 86 05          LDA    #$05
D00C: 34 02          PSHS   A
D00E: 86 05          LDA    #$05
D010: A0 E4          SUBA   ,S
D012: 48             ASLA
D013: EC C6          LDD    A,U
D015: 31 8B          LEAY   D,X
D017: 10 9F 39       STY    <$39
D01A: 10 BF 94 02    STY    $9402
D01E: B6 94 00       LDA    $9400
D021: 95 3B          BITA   <$3B
D023: 27 08          BEQ    $D02D
D025: 6A E4          DEC    ,S
D027: 26 E5          BNE    $D00E
D029: 35 02          PULS   A
D02B: 20 D0          BRA    $CFFD
D02D: 35 02          PULS   A
D02F: 6A E4          DEC    ,S
D031: 4F             CLRA
D032: E6 62          LDB    $2,S
D034: 1F 02          TFR    D,Y
D036: CC 00 08       LDD    #$0008
D039: EB 61          ADDB   $1,S
D03B: 89 00          ADCA   #$00
D03D: 6D 63          TST    $3,S
D03F: 26 05          BNE    $D046
D041: BD DD 7F       JSR    $DD7F
D044: 20 03          BRA    $D049
D046: BD DE 7A       JSR    $DE7A
D049: 6D E4          TST    ,S
D04B: 26 B0          BNE    $CFFD
D04D: BD E4 79       JSR    $E479
D050: 26 FB          BNE    $D04D
D052: 32 64          LEAS   $4,S
D054: 39             RTS
D055: 34 76          PSHS   U,Y,X,D
D057: BD CF 41       JSR    $CF41
D05A: 0C 2C          INC    <$2C
D05C: 86 1B          LDA    #$1B
D05E: B7 03 01       STA    $0301
D061: B7 02 02       STA    $0202
D064: B7 01 03       STA    $0103
D067: B7 00 04       STA    >$0004
D06A: B7 03 05       STA    $0305
D06D: B7 02 06       STA    $0206
D070: B7 01 07       STA    $0107
D073: B7 00 08       STA    >$0008
D076: 86 83          LDA    #$83
D078: B7 03 02       STA    $0302
D07B: B7 02 03       STA    $0203
D07E: B7 01 04       STA    $0104
D081: B7 00 05       STA    >$0005
D084: B7 03 06       STA    $0306
D087: B7 02 07       STA    $0207
D08A: B7 01 08       STA    $0108
D08D: B7 00 01       STA    >$0001
D090: 86 33          LDA    #$33
D092: B7 03 03       STA    $0303
D095: B7 02 04       STA    $0204
D098: B7 01 05       STA    $0105
D09B: B7 00 06       STA    >$0006
D09E: B7 03 07       STA    $0307
D0A1: B7 02 08       STA    $0208
D0A4: B7 01 01       STA    $0101
D0A7: B7 00 02       STA    >$0002
D0AA: 86 F3          LDA    #$F3
D0AC: B7 03 04       STA    $0304
D0AF: B7 02 05       STA    $0205
D0B2: B7 01 06       STA    $0106
D0B5: B7 00 07       STA    >$0007
D0B8: B7 03 08       STA    $0308
D0BB: B7 02 01       STA    $0201
D0BE: B7 01 02       STA    $0102
D0C1: B7 00 03       STA    >$0003
D0C4: 86 00          LDA    #$00
D0C6: BD DA D1       JSR    $DAD1
D0C9: 86 01          LDA    #$01
D0CB: BD DA D1       JSR    $DAD1
D0CE: 86 02          LDA    #$02
D0D0: BD DA D1       JSR    $DAD1
D0D3: 86 03          LDA    #$03
D0D5: BD DA D1       JSR    $DAD1
D0D8: CE C5 FB       LDU    #$C5FB
D0DB: BD E7 44       JSR    $E744
D0DE: CE C6 FD       LDU    #$C6FD
D0E1: CC 4E 4D       LDD    #$4E4D
D0E4: DD 3C          STD    <$3C
D0E6: 86 80          LDA    #$80
D0E8: 97 3B          STA    <$3B
D0EA: BD E0 8A       JSR    $E08A
D0ED: CE C6 9E       LDU    #$C69E
D0F0: CC 4E B3       LDD    #$4EB3
D0F3: DD 3C          STD    <$3C
D0F5: BD E0 8A       JSR    $E08A
D0F8: CE 86 60       LDU    #$8660
D0FB: 0F 2D          CLR    <$2D
D0FD: BD E0 73       JSR    $E073
D100: CE 86 B0       LDU    #$86B0
D103: 0C 2D          INC    <$2D
D105: BD E0 73       JSR    $E073
D108: 0A 2C          DEC    <$2C
D10A: 35 76          PULS   D,X,Y,U
D10C: 39             RTS
D10D: CE 94 00       LDU    #$9400
D110: 8E 04 00       LDX    #$0400
D113: 4F             CLRA
D114: BD E6 1A       JSR    $E61A
D117: 0F 39          CLR    <$39
D119: 7F 94 02       CLR    $9402
D11C: CE 04 00       LDU    #$0400
D11F: 8E 04 00       LDX    #$0400
D122: 4F             CLRA
D123: BD E6 1A       JSR    $E61A
D126: CC 00 00       LDD    #$0000
D129: DD 35          STD    <$35
D12B: DD 37          STD    <$37
D12D: 39             RTS
D12E: BD E4 79       JSR    $E479
D131: DD 3E          STD    <$3E
D133: CC 00 8E       LDD    #$008E
D136: BD DE 76       JSR    $DE76
D139: 39             RTS
D13A: 0C 2C          INC    <$2C
D13C: BD E4 59       JSR    $E459
D13F: 97 2B          STA    <$2B
D141: 8E 84 40       LDX    #$8440
D144: 86 04          LDA    #$04
D146: 34 02          PSHS   A
D148: BD E4 79       JSR    $E479
D14B: 48             ASLA
D14C: 48             ASLA
D14D: 48             ASLA
D14E: 48             ASLA
D14F: 34 04          PSHS   B
D151: AA E0          ORA    ,S+
D153: A7 80          STA    ,X+
D155: 6A E4          DEC    ,S
D157: 26 EF          BNE    $D148
D159: 35 02          PULS   A
D15B: CC 20 20       LDD    #$2020
D15E: ED 81          STD    ,X++
D160: A7 80          STA    ,X+
D162: B6 83 E0       LDA    $83E0
D165: A7 84          STA    ,X
D167: 8E 84 40       LDX    #$8440
D16A: 10 8E 86 60    LDY    #$8660
D16E: 0F 2D          CLR    <$2D
D170: BD E4 BF       JSR    $E4BF
D173: 96 2A          LDA    <$2A
D175: 81 10          CMPA   #$10
D177: 22 10          BHI    $D189
D179: CE 86 A8       LDU    #$86A8
D17C: A6 47          LDA    $7,U
D17E: 27 20          BEQ    $D1A0
D180: 0C 2D          INC    <$2D
D182: BD DE 52       JSR    $DE52
D185: 0A 2D          DEC    <$2D
D187: 20 1A          BRA    $D1A3
D189: 10 8E 86 B0    LDY    #$86B0
D18D: 0C 2D          INC    <$2D
D18F: BD E4 BF       JSR    $E4BF
D192: 96 2A          LDA    <$2A
D194: 81 10          CMPA   #$10
D196: 23 08          BLS    $D1A0
D198: 86 01          LDA    #$01
D19A: B7 80 49       STA    $8049
D19D: 7E D2 BB       JMP    $D2BB
D1A0: BD DE 52       JSR    $DE52
D1A3: 86 02          LDA    #$02
D1A5: B7 80 49       STA    $8049
D1A8: 96 2A          LDA    <$2A
D1AA: D6 2D          LDB    <$2D
D1AC: 34 26          PSHS   Y,D
D1AE: BD D0 55       JSR    $D055
D1B1: B6 80 48       LDA    $8048
D1B4: 81 FF          CMPA   #$FF
D1B6: 26 05          BNE    $D1BD
D1B8: 35 26          PULS   D,Y
D1BA: 7E D2 BB       JMP    $D2BB
D1BD: B6 80 49       LDA    $8049
D1C0: 81 03          CMPA   #$03
D1C2: 27 13          BEQ    $D1D7
D1C4: FC 80 03       LDD    $8003
D1C7: 10 B3 80 05    CMPD   $8005
D1CB: 27 E4          BEQ    $D1B1
D1CD: BD E4 59       JSR    $E459
D1D0: 8E A0 19       LDX    #$A019
D1D3: AD 96          JSR    [A,X]
D1D5: 20 DA          BRA    $D1B1
D1D7: 86 80          LDA    #$80
D1D9: 97 3B          STA    <$3B
D1DB: CE C6 AF       LDU    #$C6AF
D1DE: CC 30 80       LDD    #$3080
D1E1: DD 3C          STD    <$3C
D1E3: BD E0 8A       JSR    $E08A
D1E6: CE C6 CD       LDU    #$C6CD
D1E9: CC 3C 80       LDD    #$3C80
D1EC: DD 3C          STD    <$3C
D1EE: BD E0 8A       JSR    $E08A
D1F1: 35 46          PULS   D,U
D1F3: 97 2A          STA    <$2A
D1F5: D7 2D          STB    <$2D
D1F7: BD E0 09       JSR    $E009
D1FA: 86 10          LDA    #$10
D1FC: 97 3B          STA    <$3B
D1FE: BD E0 09       JSR    $E009
D201: 33 44          LEAU   $4,U
D203: 9E 3C          LDX    <$3C
D205: 30 88 14       LEAX   $14,X
D208: 9F 3C          STX    <$3C
D20A: CC 0A 8C       LDD    #$0A8C
D20D: DD 26          STD    <$26
D20F: 86 03          LDA    #$03
D211: 34 02          PSHS   A
D213: 86 C0          LDA    #$C0
D215: 97 3B          STA    <$3B
D217: 86 41          LDA    #$41
D219: A7 C4          STA    ,U
D21B: BD DF 6A       JSR    $DF6A
D21E: B6 80 48       LDA    $8048
D221: 81 FF          CMPA   #$FF
D223: 26 0F          BNE    $D234
D225: A6 C4          LDA    ,U
D227: 81 40          CMPA   #$40
D229: 26 04          BNE    $D22F
D22B: 86 20          LDA    #$20
D22D: A7 C4          STA    ,U
D22F: 35 02          PULS   A
D231: 7E D2 BB       JMP    $D2BB
D234: DC 26          LDD    <$26
D236: 27 72          BEQ    $D2AA
D238: B6 80 48       LDA    $8048
D23B: 7F 80 48       CLR    $8048
D23E: 85 F0          BITA   #$F0
D240: 26 45          BNE    $D287
D242: 85 03          BITA   #$03
D244: 27 04          BEQ    $D24A
D246: C6 01          LDB    #$01
D248: 20 11          BRA    $D25B
D24A: 85 0C          BITA   #$0C
D24C: 27 04          BEQ    $D252
D24E: C6 FF          LDB    #$FF
D250: 20 09          BRA    $D25B
D252: 10 8E 00 01    LDY    #$0001
D256: BD E5 BF       JSR    $E5BF
D259: 20 C3          BRA    $D21E
D25B: A6 C4          LDA    ,U
D25D: 81 40          CMPA   #$40
D25F: 26 02          BNE    $D263
D261: 86 20          LDA    #$20
D263: BD DF 6A       JSR    $DF6A
D266: A6 C4          LDA    ,U
D268: 34 04          PSHS   B
D26A: AB E0          ADDA   ,S+
D26C: 81 40          CMPA   #$40
D26E: 24 04          BCC    $D274
D270: 86 5A          LDA    #$5A
D272: 20 06          BRA    $D27A
D274: 81 5A          CMPA   #$5A
D276: 23 02          BLS    $D27A
D278: 86 40          LDA    #$40
D27A: A7 C4          STA    ,U
D27C: 81 40          CMPA   #$40
D27E: 26 02          BNE    $D282
D280: 86 20          LDA    #$20
D282: BD DF 6A       JSR    $DF6A
D285: 20 97          BRA    $D21E
D287: A6 C4          LDA    ,U
D289: 81 40          CMPA   #$40
D28B: 26 04          BNE    $D291
D28D: 86 20          LDA    #$20
D28F: A7 C4          STA    ,U
D291: BD DF 6A       JSR    $DF6A
D294: 86 10          LDA    #$10
D296: 97 3B          STA    <$3B
D298: A6 C0          LDA    ,U+
D29A: BD DF 6A       JSR    $DF6A
D29D: BD CE D1       JSR    $CED1
D2A0: 9E 3C          LDX    <$3C
D2A2: 6A E4          DEC    ,S
D2A4: 10 26 FF 6B    LBNE   $D213
D2A8: 20 0A          BRA    $D2B4
D2AA: A6 C4          LDA    ,U
D2AC: 81 40          CMPA   #$40
D2AE: 26 04          BNE    $D2B4
D2B0: 86 20          LDA    #$20
D2B2: A7 C4          STA    ,U
D2B4: 35 02          PULS   A
D2B6: 86 04          LDA    #$04
D2B8: B7 80 49       STA    $8049
D2BB: 0F 2C          CLR    <$2C
D2BD: 39             RTS
D2BE: BD E4 79       JSR    $E479
D2C1: DD 3E          STD    <$3E
D2C3: BD E4 59       JSR    $E459
D2C6: 9B 33          ADDA   <$33
D2C8: 1F 89          TFR    A,B
D2CA: 4F             CLRA
D2CB: C3 01 2E       ADDD   #$012E
D2CE: BD DE 76       JSR    $DE76
D2D1: 39             RTS
D2D2: BD E4 79       JSR    $E479
D2D5: DD 3E          STD    <$3E
D2D7: BD E4 59       JSR    $E459
D2DA: 1F 89          TFR    A,B
D2DC: 4F             CLRA
D2DD: 58             ASLB
D2DE: C3 00 18       ADDD   #$0018
D2E1: BD E0 A5       JSR    $E0A5
D2E4: 39             RTS
D2E5: BD E4 79       JSR    $E479
D2E8: DD 3E          STD    <$3E
D2EA: 7D 80 00       TST    $8000
D2ED: 26 03          BNE    $D2F2
D2EF: FD 80 25       STD    $8025
D2F2: BD E4 59       JSR    $E459
D2F5: 97 02          STA    <$02
D2F7: 7D 80 00       TST    $8000
D2FA: 26 03          BNE    $D2FF
D2FC: B7 80 24       STA    $8024
D2FF: BD E4 79       JSR    $E479
D302: 34 06          PSHS   D
D304: 7D 80 00       TST    $8000
D307: 26 06          BNE    $D30F
D309: B7 80 20       STA    $8020
D30C: F7 80 21       STB    $8021
D30F: 96 02          LDA    <$02
D311: E6 61          LDB    $1,S
D313: 5C             INCB
D314: 54             LSRB
D315: 34 04          PSHS   B
D317: AB E0          ADDA   ,S+
D319: 8E CA 37       LDX    #$CA37
D31C: A6 86          LDA    A,X
D31E: 1F 89          TFR    A,B
D320: 4F             CLRA
D321: 58             ASLB
D322: 1F 02          TFR    D,Y
D324: 4F             CLRA
D325: D6 02          LDB    <$02
D327: 27 06          BEQ    $D32F
D329: C1 06          CMPB   #$06
D32B: 27 02          BEQ    $D32F
D32D: 86 0B          LDA    #$0B
D32F: E6 E4          LDB    ,S
D331: 32 62          LEAS   $2,S
D333: 54             LSRB
D334: 54             LSRB
D335: 54             LSRB
D336: 54             LSRB
D337: 34 04          PSHS   B
D339: AB E0          ADDA   ,S+
D33B: 1F 89          TFR    A,B
D33D: 4F             CLRA
D33E: 58             ASLB
D33F: C3 00 4E       ADDD   #$004E
D342: BD E0 A9       JSR    $E0A9
D345: 39             RTS
D346: BD E4 79       JSR    $E479
D349: DD 3E          STD    <$3E
D34B: BD E4 59       JSR    $E459
D34E: 1F 89          TFR    A,B
D350: 4F             CLRA
D351: 58             ASLB
D352: C3 00 2A       ADDD   #$002A
D355: BD E0 A5       JSR    $E0A5
D358: 39             RTS
D359: BD E4 79       JSR    $E479
D35C: DD 3E          STD    <$3E
D35E: BD E4 59       JSR    $E459
D361: 1F 89          TFR    A,B
D363: 4F             CLRA
D364: 58             ASLB
D365: C3 00 46       ADDD   #$0046
D368: BD E0 A5       JSR    $E0A5
D36B: 39             RTS
D36C: BD E4 79       JSR    $E479
D36F: 97 39          STA    <$39
D371: B7 94 02       STA    $9402
D374: 84 7F          ANDA   #$7F
D376: 1F 01          TFR    D,X
D378: BD E4 79       JSR    $E479
D37B: D7 3B          STB    <$3B
D37D: 1F 89          TFR    A,B
D37F: 4F             CLRA
D380: 58             ASLB
D381: 49             ROLA
D382: CE AB C4       LDU    #$ABC4
D385: EE CB          LDU    D,U
D387: 26 06          BNE    $D38F
D389: 7F 88 00       CLR    $8800
D38C: 7E D3 C5       JMP    $D3C5
D38F: EC C1          LDD    ,U++
D391: 34 06          PSHS   D
D393: 8C 00 00       CMPX   #$0000
D396: 2A 09          BPL    $D3A1
D398: 9F 39          STX    <$39
D39A: BF 94 02       STX    $9402
D39D: 30 89 80 00    LEAX   -$8000,X
D3A1: A6 C0          LDA    ,U+
D3A3: E6 61          LDB    $1,S
D3A5: 34 04          PSHS   B
D3A7: 48             ASLA
D3A8: 24 06          BCC    $D3B0
D3AA: E6 84          LDB    ,X
D3AC: D8 3B          EORB   <$3B
D3AE: E7 84          STB    ,X
D3B0: 30 01          LEAX   $1,X
D3B2: 6A E4          DEC    ,S
D3B4: 26 F1          BNE    $D3A7
D3B6: 35 04          PULS   B
D3B8: 1F 10          TFR    X,D
D3BA: 4C             INCA
D3BB: E0 61          SUBB   $1,S
D3BD: 1F 01          TFR    D,X
D3BF: 6A E4          DEC    ,S
D3C1: 26 D0          BNE    $D393
D3C3: 35 06          PULS   D
D3C5: 39             RTS
D3C6: BD E4 79       JSR    $E479
D3C9: 80 07          SUBA   #$07
D3CB: C0 03          SUBB   #$03
D3CD: 1F 01          TFR    D,X
D3CF: BD E4 59       JSR    $E459
D3D2: 81 0A          CMPA   #$0A
D3D4: 23 08          BLS    $D3DE
D3D6: 86 04          LDA    #$04
D3D8: B7 88 00       STA    $8800
D3DB: 7E D3 FE       JMP    $D3FE
D3DE: 81 0A          CMPA   #$0A
D3E0: 26 04          BNE    $D3E6
D3E2: 30 89 0C 08    LEAX   $0C08,X
D3E6: 9F 39          STX    <$39
D3E8: BF 94 02       STX    $9402
D3EB: 2A 04          BPL    $D3F1
D3ED: 30 89 80 00    LEAX   -$8000,X
D3F1: 8B 80          ADDA   #$80
D3F3: C6 E0          LDB    #$E0
D3F5: 0D 33          TST    <$33
D3F7: 27 02          BEQ    $D3FB
D3F9: C6 F0          LDB    #$F0
D3FB: BD D3 7B       JSR    $D37B
D3FE: 39             RTS
D3FF: 7E D6 5C       JMP    $D65C
D402: BD E4 79       JSR    $E479
D405: DD 3E          STD    <$3E
D407: CC 00 7A       LDD    #$007A
D40A: BD E0 A5       JSR    $E0A5
D40D: 96 3F          LDA    <$3F
D40F: 97 3F          STA    <$3F
D411: CC 00 7C       LDD    #$007C
D414: BD E0 A5       JSR    $E0A5
D417: 39             RTS
D418: BD E4 79       JSR    $E479
D41B: DD 3E          STD    <$3E
D41D: BD E4 59       JSR    $E459
D420: 1F 89          TFR    A,B
D422: 4F             CLRA
D423: 58             ASLB
D424: C3 00 7E       ADDD   #$007E
D427: BD E0 A5       JSR    $E0A5
D42A: 39             RTS
D42B: BD E4 79       JSR    $E479
D42E: DD 3E          STD    <$3E
D430: BD E4 59       JSR    $E459
D433: 1F 89          TFR    A,B
D435: 4F             CLRA
D436: 58             ASLB
D437: C3 00 90       ADDD   #$0090
D43A: 34 02          PSHS   A
D43C: BD E4 59       JSR    $E459
D43F: 48             ASLA
D440: 10 8E 00 00    LDY    #$0000
D444: 31 A6          LEAY   A,Y
D446: 35 02          PULS   A
D448: BD E0 A9       JSR    $E0A9
D44B: 39             RTS
D44C: BD E4 79       JSR    $E479
D44F: DD 3E          STD    <$3E
D451: CC 00 A4       LDD    #$00A4
D454: BD E0 A5       JSR    $E0A5
D457: 39             RTS
D458: 4F             CLRA
D459: 97 39          STA    <$39
D45B: B7 94 02       STA    $9402
D45E: CE A2 0D       LDU    #$A20D
D461: BD E7 44       JSR    $E744
D464: CC 04 04       LDD    #$0404
D467: DD 35          STD    <$35
D469: DD 37          STD    <$37
D46B: 10 8E 00 04    LDY    #$0004
D46F: BD E5 BF       JSR    $E5BF
D472: BD E4 79       JSR    $E479
D475: DD 3C          STD    <$3C
D477: 34 06          PSHS   D
D479: BD E4 59       JSR    $E459
D47C: 97 3B          STA    <$3B
D47E: CE C7 10       LDU    #$C710
D481: BD E0 8A       JSR    $E08A
D484: 35 06          PULS   D
D486: 8B 30          ADDA   #$30
D488: DD 3C          STD    <$3C
D48A: CE C7 1D       LDU    #$C71D
D48D: BD E0 8A       JSR    $E08A
D490: CC 30 38       LDD    #$3038
D493: DD 12          STD    <$12
D495: CC 4F C4       LDD    #$4FC4
D498: DD 14          STD    <$14
D49A: 86 80          LDA    #$80
D49C: 97 0F          STA    <$0F
D49E: 86 00          LDA    #$00
D4A0: 97 3B          STA    <$3B
D4A2: CC 10 3F       LDD    #$103F
D4A5: DD 10          STD    <$10
D4A7: BD E6 DB       JSR    $E6DB
D4AA: CC 60 38       LDD    #$6038
D4AD: DD 12          STD    <$12
D4AF: CC 7F C4       LDD    #$7FC4
D4B2: DD 14          STD    <$14
D4B4: 86 80          LDA    #$80
D4B6: 97 0F          STA    <$0F
D4B8: 86 00          LDA    #$00
D4BA: 97 3B          STA    <$3B
D4BC: CC 10 3F       LDD    #$103F
D4BF: DD 10          STD    <$10
D4C1: BD E6 DB       JSR    $E6DB
D4C4: 8E 30 38       LDX    #$3038
D4C7: 10 8E 00 8F    LDY    #$008F
D4CB: A6 84          LDA    ,X
D4CD: 2A 30          BPL    $D4FF
D4CF: E6 1F          LDB    -$1,X
D4D1: 2A 28          BPL    $D4FB
D4D3: E6 01          LDB    $1,X
D4D5: 2A 24          BPL    $D4FB
D4D7: E6 89 FE FF    LDB    -$0101,X
D4DB: 2A 1E          BPL    $D4FB
D4DD: E6 89 FF 00    LDB    -$0100,X
D4E1: 2A 18          BPL    $D4FB
D4E3: E6 89 FF 01    LDB    -$00FF,X
D4E7: 2A 12          BPL    $D4FB
D4E9: E6 89 00 FF    LDB    $00FF,X
D4ED: 2A 0C          BPL    $D4FB
D4EF: E6 89 01 00    LDB    $0100,X
D4F3: 2A 06          BPL    $D4FB
D4F5: E6 89 01 01    LDB    $0101,X
D4F9: 2B 04          BMI    $D4FF
D4FB: 8A 40          ORA    #$40
D4FD: A7 84          STA    ,X
D4FF: 30 01          LEAX   $1,X
D501: 31 3F          LEAY   -$1,Y
D503: 26 C6          BNE    $D4CB
D505: 1F 10          TFR    X,D
D507: 4C             INCA
D508: C6 38          LDB    #$38
D50A: 1F 01          TFR    D,X
D50C: 81 80          CMPA   #$80
D50E: 23 B7          BLS    $D4C7
D510: 39             RTS
D511: BD E4 79       JSR    $E479
D514: 34 06          PSHS   D
D516: FD 94 02       STD    $9402
D519: BD E4 79       JSR    $E479
D51C: 34 06          PSHS   D
D51E: BD E4 79       JSR    $E479
D521: 34 02          PSHS   A
D523: E7 E2          STB    ,-S
D525: 26 0D          BNE    $D534
D527: 20 17          BRA    $D540
D529: EC 64          LDD    $4,S
D52B: AB 62          ADDA   $2,S
D52D: EB 63          ADDB   $3,S
D52F: ED 64          STD    $4,S
D531: FD 94 02       STD    $9402
D534: B6 94 00       LDA    $9400
D537: A8 61          EORA   $1,S
D539: B7 94 00       STA    $9400
D53C: 6A E4          DEC    ,S
D53E: 26 E9          BNE    $D529
D540: 32 66          LEAS   $6,S
D542: 39             RTS
D543: CE C6 EA       LDU    #$C6EA
D546: 8E 28 80       LDX    #$2880
D549: 9F 3C          STX    <$3C
D54B: 86 80          LDA    #$80
D54D: 97 3B          STA    <$3B
D54F: BD E0 8A       JSR    $E08A
D552: 8E 87 40       LDX    #$8740
D555: 32 E8 EA       LEAS   -$16,S
D558: 1F 42          TFR    S,Y
D55A: 31 21          LEAY   $1,Y
D55C: 34 20          PSHS   Y
D55E: A6 80          LDA    ,X+
D560: 84 3F          ANDA   #$3F
D562: 85 20          BITA   #$20
D564: 26 02          BNE    $D568
D566: 8A 40          ORA    #$40
D568: 81 24          CMPA   #$24
D56A: 26 02          BNE    $D56E
D56C: 86 20          LDA    #$20
D56E: 81 28          CMPA   #$28
D570: 26 02          BNE    $D574
D572: 86 5B          LDA    #$5B
D574: 81 29          CMPA   #$29
D576: 26 02          BNE    $D57A
D578: 86 5D          LDA    #$5D
D57A: A7 A0          STA    ,Y+
D57C: 8C 87 54       CMPX   #$8754
D57F: 25 DD          BCS    $D55E
D581: 33 E8 17       LEAU   $17,S
D584: 86 FF          LDA    #$FF
D586: A7 C4          STA    ,U
D588: E6 C2          LDB    ,-U
D58A: C1 20          CMPB   #$20
D58C: 26 07          BNE    $D595
D58E: 11 A3 E4       CMPU   ,S
D591: 26 F5          BNE    $D588
D593: 20 2F          BRA    $D5C4
D595: 8E AB C4       LDX    #$ABC4
D598: 6F E2          CLR    ,-S
D59A: 4F             CLRA
D59B: 58             ASLB
D59C: 10 AE 8B       LDY    D,X
D59F: A6 E4          LDA    ,S
D5A1: AB 21          ADDA   $1,Y
D5A3: 8B 01          ADDA   #$01
D5A5: A7 E4          STA    ,S
D5A7: E6 C2          LDB    ,-U
D5A9: 11 A3 61       CMPU   $1,S
D5AC: 24 EC          BCC    $D59A
D5AE: A6 E4          LDA    ,S
D5B0: 44             LSRA
D5B1: 89 00          ADCA   #$00
D5B3: 40             NEGA
D5B4: A7 63          STA    $3,S
D5B6: 32 61          LEAS   $1,S
D5B8: EE E4          LDU    ,S
D5BA: 33 5F          LEAU   -$1,U
D5BC: 8E 38 80       LDX    #$3880
D5BF: 9F 3C          STX    <$3C
D5C1: BD E0 8A       JSR    $E08A
D5C4: 32 E8 18       LEAS   $18,S
D5C7: 39             RTS
D5C8: BD E4 79       JSR    $E479
D5CB: 97 39          STA    <$39
D5CD: B7 94 02       STA    $9402
D5D0: 84 7F          ANDA   #$7F
D5D2: 1F 01          TFR    D,X
D5D4: 86 01          LDA    #$01
D5D6: 0D 33          TST    <$33
D5D8: 27 02          BEQ    $D5DC
D5DA: 86 04          LDA    #$04
D5DC: 34 02          PSHS   A
D5DE: 34 02          PSHS   A
D5E0: 86 03          LDA    #$03
D5E2: 34 02          PSHS   A
D5E4: EC 84          LDD    ,X
D5E6: A8 62          EORA   $2,S
D5E8: E8 62          EORB   $2,S
D5EA: ED 84          STD    ,X
D5EC: 30 89 01 00    LEAX   $0100,X
D5F0: 8C 00 00       CMPX   #$0000
D5F3: 2A 09          BPL    $D5FE
D5F5: 9F 39          STX    <$39
D5F7: BF 94 02       STX    $9402
D5FA: 30 89 80 00    LEAX   -$8000,X
D5FE: EC 84          LDD    ,X
D600: A8 62          EORA   $2,S
D602: E8 62          EORB   $2,S
D604: ED 84          STD    ,X
D606: 30 89 01 00    LEAX   $0100,X
D60A: 8C 00 00       CMPX   #$0000
D60D: 2A 09          BPL    $D618
D60F: 9F 39          STX    <$39
D611: BF 94 02       STX    $9402
D614: 30 89 80 00    LEAX   -$8000,X
D618: A6 62          LDA    $2,S
D61A: AB 61          ADDA   $1,S
D61C: A7 62          STA    $2,S
D61E: 6A E4          DEC    ,S
D620: 26 C2          BNE    $D5E4
D622: 32 63          LEAS   $3,S
D624: 39             RTS
D625: BD E4 79       JSR    $E479
D628: DD 3E          STD    <$3E
D62A: BD E4 59       JSR    $E459
D62D: 1F 89          TFR    A,B
D62F: 4F             CLRA
D630: 58             ASLB
D631: 1F 02          TFR    D,Y
D633: BD E4 59       JSR    $E459
D636: 1F 89          TFR    A,B
D638: 4F             CLRA
D639: 58             ASLB
D63A: C3 00 A6       ADDD   #$00A6
D63D: BD E0 A9       JSR    $E0A9
D640: 39             RTS
D641: CE C7 36       LDU    #$C736
D644: 96 2F          LDA    <$2F
D646: 26 0A          BNE    $D652
D648: CE C7 40       LDU    #$C740
D64B: 96 33          LDA    <$33
D64D: 27 03          BEQ    $D652
D64F: CE C7 4A       LDU    #$C74A
D652: DC 30          LDD    <$30
D654: 80 03          SUBA   #$03
D656: DD 3C          STD    <$3C
D658: BD E0 8A       JSR    $E08A
D65B: 39             RTS
D65C: BD E4 79       JSR    $E479
D65F: DD 3E          STD    <$3E
D661: BD E4 59       JSR    $E459
D664: 1F 89          TFR    A,B
D666: 4F             CLRA
D667: 58             ASLB
D668: 1F 02          TFR    D,Y
D66A: BD E4 59       JSR    $E459
D66D: 1F 89          TFR    A,B
D66F: 4F             CLRA
D670: 58             ASLB
D671: C3 00 B6       ADDD   #$00B6
D674: BD E0 A9       JSR    $E0A9
D677: 39             RTS
D678: BD E4 79       JSR    $E479
D67B: DD 3E          STD    <$3E
D67D: CC 01 16       LDD    #$0116
D680: BD E0 A5       JSR    $E0A5
D683: 39             RTS
D684: BD E4 79       JSR    $E479
D687: DD 3E          STD    <$3E
D689: CC 01 18       LDD    #$0118
D68C: BD E0 A5       JSR    $E0A5
D68F: CC 01 1A       LDD    #$011A
D692: BD E0 A5       JSR    $E0A5
D695: CC 01 1C       LDD    #$011C
D698: BD E0 A5       JSR    $E0A5
D69B: 39             RTS
D69C: BD E4 79       JSR    $E479
D69F: DD 3E          STD    <$3E
D6A1: BD E4 79       JSR    $E479
D6A4: 81 03          CMPA   #$03
D6A6: 22 02          BHI    $D6AA
D6A8: C6 01          LDB    #$01
D6AA: 34 06          PSHS   D
D6AC: 86 06          LDA    #$06
D6AE: E6 61          LDB    $1,S
D6B0: 5C             INCB
D6B1: 54             LSRB
D6B2: 34 04          PSHS   B
D6B4: AB E0          ADDA   ,S+
D6B6: 8E CA 37       LDX    #$CA37
D6B9: A6 86          LDA    A,X
D6BB: 1F 89          TFR    A,B
D6BD: 4F             CLRA
D6BE: 58             ASLB
D6BF: 1F 02          TFR    D,Y
D6C1: 4F             CLRA
D6C2: E6 E4          LDB    ,S
D6C4: 32 62          LEAS   $2,S
D6C6: 58             ASLB
D6C7: C3 01 1E       ADDD   #$011E
D6CA: BD E0 A9       JSR    $E0A9
D6CD: 39             RTS
D6CE: BD E4 79       JSR    $E479
D6D1: DD 3E          STD    <$3E
D6D3: CC 01 36       LDD    #$0136
D6D6: BD E0 A5       JSR    $E0A5
D6D9: 39             RTS
D6DA: CC 00 00       LDD    #$0000
D6DD: DD 1D          STD    <$1D
D6DF: 39             RTS
D6E0: BD E4 79       JSR    $E479
D6E3: DD 3E          STD    <$3E
D6E5: 7D 80 00       TST    $8000
D6E8: 26 03          BNE    $D6ED
D6EA: FD 80 25       STD    $8025
D6ED: 96 3E          LDA    <$3E
D6EF: B0 98 00       SUBA   $9800
D6F2: 81 61          CMPA   #$61
D6F4: 2C 09          BGE    $D6FF
D6F6: 81 09          CMPA   #$09
D6F8: 2F 05          BLE    $D6FF
D6FA: BD DD 42       JSR    $DD42
D6FD: 20 EE          BRA    $D6ED
D6FF: BD D2 F2       JSR    $D2F2
D702: BD D2 E5       JSR    $D2E5
D705: 39             RTS
D706: BD D3 FF       JSR    $D3FF
D709: BD D3 FF       JSR    $D3FF
D70C: 9E 3E          LDX    <$3E
D70E: 5F             CLRB
D70F: 30 89 FD FF    LEAX   -$0201,X
D713: 9F 39          STX    <$39
D715: BF 94 02       STX    $9402
D718: FA 94 00       ORB    $9400
D71B: 30 02          LEAX   $2,X
D71D: 9F 39          STX    <$39
D71F: BF 94 02       STX    $9402
D722: FA 94 00       ORB    $9400
D725: 30 89 00 FD    LEAX   $00FD,X
D729: 9F 39          STX    <$39
D72B: BF 94 02       STX    $9402
D72E: FA 94 00       ORB    $9400
D731: 30 04          LEAX   $4,X
D733: 9F 39          STX    <$39
D735: BF 94 02       STX    $9402
D738: FA 94 00       ORB    $9400
D73B: 30 89 00 FE    LEAX   $00FE,X
D73F: 9F 39          STX    <$39
D741: BF 94 02       STX    $9402
D744: FA 94 00       ORB    $9400
D747: 30 89 00 FE    LEAX   $00FE,X
D74B: 9F 39          STX    <$39
D74D: BF 94 02       STX    $9402
D750: FA 94 00       ORB    $9400
D753: 30 04          LEAX   $4,X
D755: 9F 39          STX    <$39
D757: BF 94 02       STX    $9402
D75A: FA 94 00       ORB    $9400
D75D: 30 89 00 FD    LEAX   $00FD,X
D761: 9F 39          STX    <$39
D763: BF 94 02       STX    $9402
D766: FA 94 00       ORB    $9400
D769: 30 02          LEAX   $2,X
D76B: 9F 39          STX    <$39
D76D: BF 94 02       STX    $9402
D770: FA 94 00       ORB    $9400
D773: BD E4 59       JSR    $E459
D776: 8E 80 28       LDX    #$8028
D779: EA 86          ORB    A,X
D77B: D4 25          ANDB   <$25
D77D: E7 86          STB    A,X
D77F: 39             RTS
D780: 10 8E 80 A0    LDY    #$80A0
D784: 6D 22          TST    $2,Y
D786: 10 27 00 B7    LBEQ   $D841
D78A: 34 20          PSHS   Y
D78C: BD DF 4D       JSR    $DF4D
D78F: 35 20          PULS   Y
D791: C6 02          LDB    #$02
D793: 6D 27          TST    $7,Y
D795: 27 02          BEQ    $D799
D797: C6 04          LDB    #$04
D799: EB 24          ADDB   $4,Y
D79B: 28 02          BVC    $D79F
D79D: C6 7F          LDB    #$7F
D79F: E7 24          STB    $4,Y
D7A1: 1D             SEX
D7A2: 58             ASLB
D7A3: 49             ROLA
D7A4: 58             ASLB
D7A5: 49             ROLA
D7A6: 58             ASLB
D7A7: 49             ROLA
D7A8: 58             ASLB
D7A9: 49             ROLA
D7AA: E3 A4          ADDD   ,Y
D7AC: ED A4          STD    ,Y
D7AE: 81 F7          CMPA   #$F7
D7B0: 25 05          BCS    $D7B7
D7B2: 6F 22          CLR    $2,Y
D7B4: 7E D8 41       JMP    $D841
D7B7: E6 25          LDB    $5,Y
D7B9: 1D             SEX
D7BA: 58             ASLB
D7BB: 49             ROLA
D7BC: 58             ASLB
D7BD: 49             ROLA
D7BE: 58             ASLB
D7BF: 49             ROLA
D7C0: 58             ASLB
D7C1: 49             ROLA
D7C2: E3 22          ADDD   $2,Y
D7C4: 81 0A          CMPA   #$0A
D7C6: 22 04          BHI    $D7CC
D7C8: 60 25          NEG    $5,Y
D7CA: 86 0A          LDA    #$0A
D7CC: 81 F5          CMPA   #$F5
D7CE: 25 04          BCS    $D7D4
D7D0: 60 25          NEG    $5,Y
D7D2: 86 F5          LDA    #$F5
D7D4: ED 22          STD    $2,Y
D7D6: A6 26          LDA    $6,Y
D7D8: 8B 20          ADDA   #$20
D7DA: 6D 25          TST    $5,Y
D7DC: 2A 02          BPL    $D7E0
D7DE: 80 40          SUBA   #$40
D7E0: A7 26          STA    $6,Y
D7E2: 34 20          PSHS   Y
D7E4: BD DF 4D       JSR    $DF4D
D7E7: 35 20          PULS   Y
D7E9: A6 A4          LDA    ,Y
D7EB: E6 22          LDB    $2,Y
D7ED: 80 04          SUBA   #$04
D7EF: 1F 01          TFR    D,X
D7F1: 9F 39          STX    <$39
D7F3: BF 94 02       STX    $9402
D7F6: B6 94 00       LDA    $9400
D7F9: 30 89 02 00    LEAX   $0200,X
D7FD: 9F 39          STX    <$39
D7FF: BF 94 02       STX    $9402
D802: BA 94 00       ORA    $9400
D805: 30 89 02 00    LEAX   $0200,X
D809: 9F 39          STX    <$39
D80B: BF 94 02       STX    $9402
D80E: BA 94 00       ORA    $9400
D811: 30 89 02 00    LEAX   $0200,X
D815: 9F 39          STX    <$39
D817: BF 94 02       STX    $9402
D81A: BA 94 00       ORA    $9400
D81D: 30 89 02 00    LEAX   $0200,X
D821: 9F 39          STX    <$39
D823: BF 94 02       STX    $9402
D826: BA 94 00       ORA    $9400
D829: 94 25          ANDA   <$25
D82B: 84 0F          ANDA   #$0F
D82D: 27 12          BEQ    $D841
D82F: A6 24          LDA    $4,Y
D831: 2B 06          BMI    $D839
D833: C6 80          LDB    #$80
D835: 3D             MUL
D836: 89 00          ADCA   #$00
D838: 40             NEGA
D839: 81 F4          CMPA   #$F4
D83B: 2D 02          BLT    $D83F
D83D: 86 F4          LDA    #$F4
D83F: A7 24          STA    $4,Y
D841: 31 28          LEAY   $8,Y
D843: 10 8C 81 40    CMPY   #$8140
D847: 10 25 FF 39    LBCS   $D784
D84B: 39             RTS
D84C: BD E4 79       JSR    $E479
D84F: 34 02          PSHS   A
D851: 84 7F          ANDA   #$7F
D853: 1F 01          TFR    D,X
D855: 10 8E 12 39    LDY    #$1239
D859: C6 12          LDB    #$12
D85B: 1A 40          ORCC   #$40
D85D: B6 98 00       LDA    $9800
D860: 81 12          CMPA   #$12
D862: 26 F9          BNE    $D85D
D864: 35 02          PULS   A
D866: 12             NOP
D867: 12             NOP
D868: 12             NOP
D869: 12             NOP
D86A: B7 94 02       STA    $9402
D86D: EE 81          LDU    ,X++
D86F: F7 94 02       STB    $9402
D872: EF A1          STU    ,Y++
D874: B7 94 02       STA    $9402
D877: EE 81          LDU    ,X++
D879: F7 94 02       STB    $9402
D87C: EF A1          STU    ,Y++
D87E: B7 94 02       STA    $9402
D881: EE 81          LDU    ,X++
D883: F7 94 02       STB    $9402
D886: EF A1          STU    ,Y++
D888: B7 94 02       STA    $9402
D88B: EE 81          LDU    ,X++
D88D: F7 94 02       STB    $9402
D890: EF A1          STU    ,Y++
D892: B7 94 02       STA    $9402
D895: EE 81          LDU    ,X++
D897: F7 94 02       STB    $9402
D89A: EF A1          STU    ,Y++
D89C: B7 94 02       STA    $9402
D89F: EE 81          LDU    ,X++
D8A1: F7 94 02       STB    $9402
D8A4: EF A1          STU    ,Y++
D8A6: B7 94 02       STA    $9402
D8A9: EE 81          LDU    ,X++
D8AB: F7 94 02       STB    $9402
D8AE: EF A1          STU    ,Y++
D8B0: B7 94 02       STA    $9402
D8B3: EE 81          LDU    ,X++
D8B5: F7 94 02       STB    $9402
D8B8: EF A1          STU    ,Y++
D8BA: B7 94 02       STA    $9402
D8BD: EE 81          LDU    ,X++
D8BF: F7 94 02       STB    $9402
D8C2: EF A1          STU    ,Y++
D8C4: B7 94 02       STA    $9402
D8C7: EE 81          LDU    ,X++
D8C9: F7 94 02       STB    $9402
D8CC: EF A1          STU    ,Y++
D8CE: B7 94 02       STA    $9402
D8D1: EE 81          LDU    ,X++
D8D3: F7 94 02       STB    $9402
D8D6: EF A1          STU    ,Y++
D8D8: B7 94 02       STA    $9402
D8DB: EE 81          LDU    ,X++
D8DD: F7 94 02       STB    $9402
D8E0: EF A1          STU    ,Y++
D8E2: B7 94 02       STA    $9402
D8E5: EE 81          LDU    ,X++
D8E7: F7 94 02       STB    $9402
D8EA: EF A1          STU    ,Y++
D8EC: B7 94 02       STA    $9402
D8EF: EE 81          LDU    ,X++
D8F1: F7 94 02       STB    $9402
D8F4: EF A1          STU    ,Y++
D8F6: B7 94 02       STA    $9402
D8F9: EE 81          LDU    ,X++
D8FB: F7 94 02       STB    $9402
D8FE: EF A1          STU    ,Y++
D900: B7 94 02       STA    $9402
D903: EE 81          LDU    ,X++
D905: F7 94 02       STB    $9402
D908: EF A1          STU    ,Y++
D90A: B7 94 02       STA    $9402
D90D: EE 81          LDU    ,X++
D90F: F7 94 02       STB    $9402
D912: EF A1          STU    ,Y++
D914: B7 94 02       STA    $9402
D917: EE 81          LDU    ,X++
D919: F7 94 02       STB    $9402
D91C: EF A1          STU    ,Y++
D91E: 30 89 00 DC    LEAX   $00DC,X
D922: 8C 00 00       CMPX   #$0000
D925: 2A 04          BPL    $D92B
D927: 30 89 80 00    LEAX   -$8000,X
D92B: 31 A9 00 DC    LEAY   $00DC,Y
D92F: 10 8C 00 00    CMPY   #$0000
D933: 2A 04          BPL    $D939
D935: 31 A9 80 00    LEAY   -$8000,Y
D939: 4C             INCA
D93A: 5C             INCB
D93B: C1 38          CMPB   #$38
D93D: 10 25 FF 29    LBCS   $D86A
D941: 1C BF          ANDCC  #$BF
D943: 39             RTS
D944: CE C7 36       LDU    #$C736
D947: 96 2F          LDA    <$2F
D949: 26 0A          BNE    $D955
D94B: CE C7 40       LDU    #$C740
D94E: 96 33          LDA    <$33
D950: 27 03          BEQ    $D955
D952: CE C7 4A       LDU    #$C74A
D955: DC 30          LDD    <$30
D957: 80 03          SUBA   #$03
D959: DD 3C          STD    <$3C
D95B: CC 00 03       LDD    #$0003
D95E: BD E5 5E       JSR    $E55E
D961: 39             RTS
D962: B6 98 00       LDA    $9800
D965: 90 30          SUBA   <$30
D967: 81 A6          CMPA   #$A6
D969: 2F 04          BLE    $D96F
D96B: 81 07          CMPA   #$07
D96D: 2D F3          BLT    $D962
D96F: 96 3B          LDA    <$3B
D971: 34 02          PSHS   A
D973: 0F 3B          CLR    <$3B
D975: BD DC 44       JSR    $DC44
D978: 35 02          PULS   A
D97A: 97 3B          STA    <$3B
D97C: 96 31          LDA    <$31
D97E: 8B 03          ADDA   #$03
D980: 97 31          STA    <$31
D982: BD DC 44       JSR    $DC44
D985: 96 31          LDA    <$31
D987: 80 03          SUBA   #$03
D989: 97 31          STA    <$31
D98B: 39             RTS
D98C: BD D6 5C       JSR    $D65C
D98F: BD D6 5C       JSR    $D65C
D992: 0D 1C          TST    <$1C
D994: 26 0F          BNE    $D9A5
D996: 7D 80 00       TST    $8000
D999: 26 0A          BNE    $D9A5
D99B: 96 3F          LDA    <$3F
D99D: 81 10          CMPA   #$10
D99F: 25 04          BCS    $D9A5
D9A1: 81 F0          CMPA   #$F0
D9A3: 23 05          BLS    $D9AA
D9A5: BD E4 59       JSR    $E459
D9A8: 20 3D          BRA    $D9E7
D9AA: 0F 04          CLR    <$04
D9AC: BD D9 E8       JSR    $D9E8
D9AF: 96 04          LDA    <$04
D9B1: 84 80          ANDA   #$80
D9B3: 27 1D          BEQ    $D9D2
D9B5: FC 80 25       LDD    $8025
D9B8: 80 10          SUBA   #$10
D9BA: 91 3E          CMPA   <$3E
D9BC: 22 12          BHI    $D9D0
D9BE: 8B 20          ADDA   #$20
D9C0: 91 3E          CMPA   <$3E
D9C2: 25 0C          BCS    $D9D0
D9C4: C0 10          SUBB   #$10
D9C6: D1 3F          CMPB   <$3F
D9C8: 22 06          BHI    $D9D0
D9CA: CB 20          ADDB   #$20
D9CC: D1 3F          CMPB   <$3F
D9CE: 24 02          BCC    $D9D2
D9D0: 0F 04          CLR    <$04
D9D2: BD E4 59       JSR    $E459
D9D5: D6 04          LDB    <$04
D9D7: C4 80          ANDB   #$80
D9D9: 27 0C          BEQ    $D9E7
D9DB: 8E 80 28       LDX    #$8028
D9DE: C6 01          LDB    #$01
D9E0: E7 86          STB    A,X
D9E2: 86 FF          LDA    #$FF
D9E4: B7 80 00       STA    $8000
D9E7: 39             RTS
D9E8: 9E 3E          LDX    <$3E
D9EA: D6 04          LDB    <$04
D9EC: 30 89 FE 00    LEAX   -$0200,X
D9F0: 9F 39          STX    <$39
D9F2: BF 94 02       STX    $9402
D9F5: FA 94 00       ORB    $9400
D9F8: 30 89 00 FE    LEAX   $00FE,X
D9FC: 9F 39          STX    <$39
D9FE: BF 94 02       STX    $9402
DA01: FA 94 00       ORB    $9400
DA04: 30 04          LEAX   $4,X
DA06: 9F 39          STX    <$39
DA08: BF 94 02       STX    $9402
DA0B: FA 94 00       ORB    $9400
DA0E: 30 89 00 FD    LEAX   $00FD,X
DA12: 9F 39          STX    <$39
DA14: BF 94 02       STX    $9402
DA17: FA 94 00       ORB    $9400
DA1A: 30 02          LEAX   $2,X
DA1C: 9F 39          STX    <$39
DA1E: BF 94 02       STX    $9402
DA21: FA 94 00       ORB    $9400
DA24: 30 89 00 FD    LEAX   $00FD,X
DA28: 9F 39          STX    <$39
DA2A: BF 94 02       STX    $9402
DA2D: FA 94 00       ORB    $9400
DA30: 30 04          LEAX   $4,X
DA32: 9F 39          STX    <$39
DA34: BF 94 02       STX    $9402
DA37: FA 94 00       ORB    $9400
DA3A: 30 89 00 FE    LEAX   $00FE,X
DA3E: 9F 39          STX    <$39
DA40: BF 94 02       STX    $9402
DA43: FA 94 00       ORB    $9400
DA46: D7 04          STB    <$04
DA48: 39             RTS
DA49: BD E4 79       JSR    $E479
DA4C: 34 06          PSHS   D
DA4E: BD E4 79       JSR    $E479
DA51: A0 E4          SUBA   ,S
DA53: 4C             INCA
DA54: E0 61          SUBB   $1,S
DA56: 5C             INCB
DA57: 34 06          PSHS   D
DA59: BD E4 59       JSR    $E459
DA5C: 34 02          PSHS   A
DA5E: EC 63          LDD    $3,S
DA60: 97 39          STA    <$39
DA62: B7 94 02       STA    $9402
DA65: 84 7F          ANDA   #$7F
DA67: 1F 01          TFR    D,X
DA69: E6 62          LDB    $2,S
DA6B: A6 84          LDA    ,X
DA6D: AA E4          ORA    ,S
DA6F: A7 80          STA    ,X+
DA71: 5A             DECB
DA72: 26 F7          BNE    $DA6B
DA74: 6C 63          INC    $3,S
DA76: 6A 61          DEC    $1,S
DA78: 26 E4          BNE    $DA5E
DA7A: 32 65          LEAS   $5,S
DA7C: 39             RTS
DA7D: BD E4 79       JSR    $E479
DA80: DD 39          STD    <$39
DA82: FD 94 02       STD    $9402
DA85: B6 94 00       LDA    $9400
DA88: B7 81 41       STA    $8141
DA8B: 7F 81 42       CLR    $8142
DA8E: 39             RTS
DA8F: BD E4 79       JSR    $E479
DA92: 1F 03          TFR    D,U
DA94: BD E4 79       JSR    $E479
DA97: 1F 01          TFR    D,X
DA99: 33 CB          LEAU   D,U
DA9B: BD E4 59       JSR    $E459
DA9E: BD E6 1A       JSR    $E61A
DAA1: 39             RTS
DAA2: BD E4 79       JSR    $E479
DAA5: DD 12          STD    <$12
DAA7: BD E4 79       JSR    $E479
DAAA: DD 14          STD    <$14
DAAC: BD E4 59       JSR    $E459
DAAF: 97 3B          STA    <$3B
DAB1: BD E6 91       JSR    $E691
DAB4: 39             RTS
DAB5: BD E4 59       JSR    $E459
DAB8: 97 1C          STA    <$1C
DABA: 39             RTS
DABB: 0F 39          CLR    <$39
DABD: 7F 94 02       CLR    $9402
DAC0: BD E4 79       JSR    $E479
DAC3: DE 1D          LDU    <$1D
DAC5: ED C1          STD    ,U++
DAC7: DF 1D          STU    <$1D
DAC9: 86 FF          LDA    #$FF
DACB: A7 C4          STA    ,U
DACD: 39             RTS
DACE: BD E4 59       JSR    $E459
DAD1: 8E 84 35       LDX    #$8435
DAD4: C6 04          LDB    #$04
DAD6: E7 86          STB    A,X
DAD8: 39             RTS
DAD9: BD E4 59       JSR    $E459
DADC: 8E 84 35       LDX    #$8435
DADF: C6 01          LDB    #$01
DAE1: EA 86          ORB    A,X
DAE3: E7 86          STB    A,X
DAE5: 39             RTS
DAE6: BD E4 79       JSR    $E479
DAE9: 1F 01          TFR    D,X
DAEB: BD E4 79       JSR    $E479
DAEE: 27 12          BEQ    $DB02
DAF0: 4C             INCA
DAF1: 97 06          STA    <$06
DAF3: 5D             TSTB
DAF4: 27 08          BEQ    $DAFE
DAF6: BD E4 59       JSR    $E459
DAF9: A7 80          STA    ,X+
DAFB: 5A             DECB
DAFC: 26 F8          BNE    $DAF6
DAFE: 0A 06          DEC    <$06
DB00: 26 F4          BNE    $DAF6
DB02: 39             RTS
DB03: BD E4 79       JSR    $E479
DB06: DD 3E          STD    <$3E
DB08: 7D 83 E8       TST    $83E8
DB0B: 10 26 00 65    LBNE   $DB74
DB0F: CE 80 A0       LDU    #$80A0
DB12: A6 42          LDA    $2,U
DB14: 27 56          BEQ    $DB6C
DB16: 90 3F          SUBA   <$3F
DB18: 2A 01          BPL    $DB1B
DB1A: 40             NEGA
DB1B: 81 04          CMPA   #$04
DB1D: 22 4D          BHI    $DB6C
DB1F: A6 C4          LDA    ,U
DB21: 90 3E          SUBA   <$3E
DB23: 2A 01          BPL    $DB26
DB25: 40             NEGA
DB26: 81 08          CMPA   #$08
DB28: 22 42          BHI    $DB6C
DB2A: 1F 32          TFR    U,Y
DB2C: 34 40          PSHS   U
DB2E: BD DF 4D       JSR    $DF4D
DB31: 35 40          PULS   U
DB33: 86 FF          LDA    #$FF
DB35: A7 47          STA    $7,U
DB37: 1F 32          TFR    U,Y
DB39: 34 40          PSHS   U
DB3B: BD DF 4D       JSR    $DF4D
DB3E: 35 40          PULS   U
DB40: 86 EC          LDA    #$EC
DB42: A7 45          STA    $5,U
DB44: 10 8E 81 38    LDY    #$8138
DB48: EC C4          LDD    ,U
DB4A: ED A4          STD    ,Y
DB4C: EC 42          LDD    $2,U
DB4E: ED 22          STD    $2,Y
DB50: EC 44          LDD    $4,U
DB52: ED 24          STD    $4,Y
DB54: EC 46          LDD    $6,U
DB56: ED 26          STD    $6,Y
DB58: 86 01          LDA    #$01
DB5A: A7 27          STA    $7,Y
DB5C: 34 60          PSHS   U,Y
DB5E: BD DF 4D       JSR    $DF4D
DB61: 35 60          PULS   Y,U
DB63: 86 14          LDA    #$14
DB65: A7 25          STA    $5,Y
DB67: 86 40          LDA    #$40
DB69: 7E DC 40       JMP    $DC40
DB6C: 33 48          LEAU   $8,U
DB6E: 11 83 81 40    CMPU   #$8140
DB72: 25 9E          BCS    $DB12
DB74: 9E 3E          LDX    <$3E
DB76: 30 89 08 00    LEAX   $0800,X
DB7A: 9F 39          STX    <$39
DB7C: BF 94 02       STX    $9402
DB7F: B6 94 00       LDA    $9400
DB82: 94 25          ANDA   <$25
DB84: 84 0F          ANDA   #$0F
DB86: 26 17          BNE    $DB9F
DB88: 30 89 01 00    LEAX   $0100,X
DB8C: 9F 39          STX    <$39
DB8E: BF 94 02       STX    $9402
DB91: B6 94 00       LDA    $9400
DB94: 94 25          ANDA   <$25
DB96: 84 0F          ANDA   #$0F
DB98: 27 05          BEQ    $DB9F
DB9A: 86 10          LDA    #$10
DB9C: 7E DC 40       JMP    $DC40
DB9F: 4F             CLRA
DBA0: 9E 3E          LDX    <$3E
DBA2: 30 89 08 00    LEAX   $0800,X
DBA6: 9F 39          STX    <$39
DBA8: BF 94 02       STX    $9402
DBAB: F6 94 00       LDB    $9400
DBAE: D4 25          ANDB   <$25
DBB0: C4 0F          ANDB   #$0F
DBB2: 26 12          BNE    $DBC6
DBB4: 30 89 FE 00    LEAX   -$0200,X
DBB8: 9F 39          STX    <$39
DBBA: BF 94 02       STX    $9402
DBBD: F6 94 00       LDB    $9400
DBC0: D4 25          ANDB   <$25
DBC2: C4 0F          ANDB   #$0F
DBC4: 27 02          BEQ    $DBC8
DBC6: 8A 04          ORA    #$04
DBC8: 9E 3E          LDX    <$3E
DBCA: 30 89 F8 00    LEAX   -$0800,X
DBCE: 9F 39          STX    <$39
DBD0: BF 94 02       STX    $9402
DBD3: F6 94 00       LDB    $9400
DBD6: D4 25          ANDB   <$25
DBD8: C4 0F          ANDB   #$0F
DBDA: 26 12          BNE    $DBEE
DBDC: 30 89 02 00    LEAX   $0200,X
DBE0: 9F 39          STX    <$39
DBE2: BF 94 02       STX    $9402
DBE5: F6 94 00       LDB    $9400
DBE8: D4 25          ANDB   <$25
DBEA: C4 0F          ANDB   #$0F
DBEC: 27 02          BEQ    $DBF0
DBEE: 8A 01          ORA    #$01
DBF0: 9E 3E          LDX    <$3E
DBF2: 30 89 02 FC    LEAX   $02FC,X
DBF6: 9F 39          STX    <$39
DBF8: BF 94 02       STX    $9402
DBFB: F6 94 00       LDB    $9400
DBFE: D4 25          ANDB   <$25
DC00: C4 0F          ANDB   #$0F
DC02: 26 12          BNE    $DC16
DC04: 30 89 FA 00    LEAX   -$0600,X
DC08: 9F 39          STX    <$39
DC0A: BF 94 02       STX    $9402
DC0D: F6 94 00       LDB    $9400
DC10: D4 25          ANDB   <$25
DC12: C4 0F          ANDB   #$0F
DC14: 27 02          BEQ    $DC18
DC16: 8A 08          ORA    #$08
DC18: 9E 3E          LDX    <$3E
DC1A: 30 89 03 04    LEAX   $0304,X
DC1E: 9F 39          STX    <$39
DC20: BF 94 02       STX    $9402
DC23: F6 94 00       LDB    $9400
DC26: D4 25          ANDB   <$25
DC28: C4 0F          ANDB   #$0F
DC2A: 26 12          BNE    $DC3E
DC2C: 30 89 FA 00    LEAX   -$0600,X
DC30: 9F 39          STX    <$39
DC32: BF 94 02       STX    $9402
DC35: F6 94 00       LDB    $9400
DC38: D4 25          ANDB   <$25
DC3A: C4 0F          ANDB   #$0F
DC3C: 27 02          BEQ    $DC40
DC3E: 8A 02          ORA    #$02
DC40: B7 81 40       STA    $8140
DC43: 39             RTS
DC44: DC 30          LDD    <$30
DC46: 80 06          SUBA   #$06
DC48: C0 1B          SUBB   #$1B
DC4A: DD 12          STD    <$12
DC4C: CB 36          ADDB   #$36
DC4E: DD 14          STD    <$14
DC50: BD E6 91       JSR    $E691
DC53: DC 30          LDD    <$30
DC55: 8B 07          ADDA   #$07
DC57: C0 1B          SUBB   #$1B
DC59: DD 12          STD    <$12
DC5B: CB 36          ADDB   #$36
DC5D: DD 14          STD    <$14
DC5F: BD E6 91       JSR    $E691
DC62: DC 30          LDD    <$30
DC64: 80 06          SUBA   #$06
DC66: C0 1B          SUBB   #$1B
DC68: DD 12          STD    <$12
DC6A: 8B 0D          ADDA   #$0D
DC6C: DD 14          STD    <$14
DC6E: BD E6 91       JSR    $E691
DC71: DC 30          LDD    <$30
DC73: 80 06          SUBA   #$06
DC75: CB 1B          ADDB   #$1B
DC77: DD 12          STD    <$12
DC79: 8B 0D          ADDA   #$0D
DC7B: DD 14          STD    <$14
DC7D: BD E6 91       JSR    $E691
DC80: 39             RTS
DC81: BD E4 79       JSR    $E479
DC84: DD 30          STD    <$30
DC86: BD E4 79       JSR    $E479
DC89: 97 3B          STA    <$3B
DC8B: 4F             CLRA
DC8C: DD 32          STD    <$32
DC8E: BD E4 59       JSR    $E459
DC91: 97 2F          STA    <$2F
DC93: 39             RTS
DC94: BD E4 59       JSR    $E459
DC97: 0F 32          CLR    <$32
DC99: 97 33          STA    <$33
DC9B: 26 04          BNE    $DCA1
DC9D: 86 83          LDA    #$83
DC9F: 20 02          BRA    $DCA3
DCA1: 86 8C          LDA    #$8C
DCA3: 97 25          STA    <$25
DCA5: 7F 80 00       CLR    $8000
DCA8: 39             RTS
DCA9: BD E4 59       JSR    $E459
DCAC: 97 39          STA    <$39
DCAE: B7 94 02       STA    $9402
DCB1: 39             RTS
DCB2: 34 16          PSHS   X,D
DCB4: 1F 21          TFR    Y,X
DCB6: 30 08          LEAX   $8,X
DCB8: CC 87 00       LDD    #$8700
DCBB: 34 10          PSHS   X
DCBD: A3 E1          SUBD   ,S++
DCBF: BD E5 03       JSR    $E503
DCC2: 8E 86 F8       LDX    #$86F8
DCC5: CC 00 00       LDD    #$0000
DCC8: ED 81          STD    ,X++
DCCA: CC 10 00       LDD    #$1000
DCCD: ED 81          STD    ,X++
DCCF: CC 41 41       LDD    #$4141
DCD2: ED 81          STD    ,X++
DCD4: A7 80          STA    ,X+
DCD6: 6F 84          CLR    ,X
DCD8: 35 16          PULS   D,X
DCDA: 39             RTS
DCDB: 34 26          PSHS   Y,D
DCDD: DC 1A          LDD    <$1A
DCDF: 83 00 01       SUBD   #$0001
DCE2: DD 1A          STD    <$1A
DCE4: 96 19          LDA    <$19
DCE6: 82 00          SBCA   #$00
DCE8: 97 19          STA    <$19
DCEA: 2A 53          BPL    $DD3F
DCEC: 96 2C          LDA    <$2C
DCEE: 27 09          BEQ    $DCF9
DCF0: CC 00 00       LDD    #$0000
DCF3: 97 19          STA    <$19
DCF5: DD 1A          STD    <$1A
DCF7: 20 46          BRA    $DD3F
DCF9: 86 03          LDA    #$03
DCFB: 97 19          STA    <$19
DCFD: CC 00 00       LDD    #$0000
DD00: DD 1A          STD    <$1A
DD02: 10 8E 86 60    LDY    #$8660
DD06: 86 0A          LDA    #$0A
DD08: 34 02          PSHS   A
DD0A: A6 27          LDA    $7,Y
DD0C: 27 09          BEQ    $DD17
DD0E: 85 0F          BITA   #$0F
DD10: 26 02          BNE    $DD14
DD12: 80 06          SUBA   #$06
DD14: 4A             DECA
DD15: A7 27          STA    $7,Y
DD17: 31 28          LEAY   $8,Y
DD19: 6A E4          DEC    ,S
DD1B: 26 ED          BNE    $DD0A
DD1D: 10 8E 86 B0    LDY    #$86B0
DD21: 86 0A          LDA    #$0A
DD23: A7 E4          STA    ,S
DD25: A6 27          LDA    $7,Y
DD27: 27 0E          BEQ    $DD37
DD29: 85 0F          BITA   #$0F
DD2B: 26 02          BNE    $DD2F
DD2D: 80 06          SUBA   #$06
DD2F: 4A             DECA
DD30: A7 27          STA    $7,Y
DD32: 26 03          BNE    $DD37
DD34: BD DC B2       JSR    $DCB2
DD37: 31 28          LEAY   $8,Y
DD39: 6A E4          DEC    ,S
DD3B: 26 E8          BNE    $DD25
DD3D: 35 02          PULS   A
DD3F: 35 26          PULS   D,Y
DD41: 39             RTS
DD42: 34 16          PSHS   X,D
DD44: 86 01          LDA    #$01
DD46: B7 80 4A       STA    $804A
DD49: 96 2E          LDA    <$2E
DD4B: 84 7F          ANDA   #$7F
DD4D: 97 2E          STA    <$2E
DD4F: B7 88 00       STA    $8800
DD52: DC 21          LDD    <$21
DD54: C3 00 01       ADDD   #$0001
DD57: DD 21          STD    <$21
DD59: 96 20          LDA    <$20
DD5B: 89 00          ADCA   #$00
DD5D: 97 20          STA    <$20
DD5F: 96 1F          LDA    <$1F
DD61: 89 00          ADCA   #$00
DD63: 97 1F          STA    <$1F
DD65: 8E 00 0A       LDX    #$000A
DD68: 30 1F          LEAX   -$1,X
DD6A: 26 FC          BNE    $DD68
DD6C: 96 2E          LDA    <$2E
DD6E: 8A 80          ORA    #$80
DD70: 97 2E          STA    <$2E
DD72: B7 88 00       STA    $8800
DD75: 7F 80 4A       CLR    $804A
DD78: 35 16          PULS   D,X
DD7A: 39             RTS
DD7B: 10 8E 00 00    LDY    #$0000
DD7F: CE C8 C4       LDU    #$C8C4
DD82: EE CB          LDU    D,U
DD84: EC C1          LDD    ,U++
DD86: DD 23          STD    <$23
DD88: 6D A9 A0 09    TST    -$5FF7,Y
DD8C: 27 06          BEQ    $DD94
DD8E: 4A             DECA
DD8F: 44             LSRA
DD90: A0 C0          SUBA   ,U+
DD92: 20 05          BRA    $DD99
DD94: 4A             DECA
DD95: 44             LSRA
DD96: 40             NEGA
DD97: AB C0          ADDA   ,U+
DD99: 6D A9 A0 0A    TST    -$5FF6,Y
DD9D: 27 06          BEQ    $DDA5
DD9F: 5C             INCB
DDA0: 54             LSRB
DDA1: E0 C0          SUBB   ,U+
DDA3: 20 05          BRA    $DDAA
DDA5: 5A             DECB
DDA6: 54             LSRB
DDA7: 50             NEGB
DDA8: EB C0          ADDB   ,U+
DDAA: 9B 3E          ADDA   <$3E
DDAC: DB 3F          ADDB   <$3F
DDAE: 97 39          STA    <$39
DDB0: B7 94 02       STA    $9402
DDB3: 84 7F          ANDA   #$7F
DDB5: 1F 01          TFR    D,X
DDB7: 10 AE A9 B8 48 LDY    -$47B8,Y
DDBC: 96 24          LDA    <$24
DDBE: 48             ASLA
DDBF: 10 AE A6       LDY    A,Y
DDC2: 6E A4          JMP    ,Y
DDC4: EC 84          LDD    ,X
DDC6: AA C0          ORA    ,U+
DDC8: EA C0          ORB    ,U+
DDCA: ED 81          STD    ,X++
DDCC: EC 84          LDD    ,X
DDCE: AA C0          ORA    ,U+
DDD0: EA C0          ORB    ,U+
DDD2: ED 81          STD    ,X++
DDD4: EC 84          LDD    ,X
DDD6: AA C0          ORA    ,U+
DDD8: EA C0          ORB    ,U+
DDDA: ED 81          STD    ,X++
DDDC: EC 84          LDD    ,X
DDDE: AA C0          ORA    ,U+
DDE0: EA C0          ORB    ,U+
DDE2: ED 81          STD    ,X++
DDE4: EC 84          LDD    ,X
DDE6: AA C0          ORA    ,U+
DDE8: EA C0          ORB    ,U+
DDEA: ED 81          STD    ,X++
DDEC: CC 00 00       LDD    #$0000
DDEF: D0 24          SUBB   <$24
DDF1: 30 8B          LEAX   D,X
DDF3: 8C 80 00       CMPX   #$8000
DDF6: 25 09          BCS    $DE01
DDF8: 9F 39          STX    <$39
DDFA: BF 94 02       STX    $9402
DDFD: 30 89 80 00    LEAX   -$8000,X
DE01: 0A 23          DEC    <$23
DE03: 27 02          BEQ    $DE07
DE05: 6E A4          JMP    ,Y
DE07: 39             RTS
DE08: EC 84          LDD    ,X
DE0A: AA C0          ORA    ,U+
DE0C: EA C0          ORB    ,U+
DE0E: ED 81          STD    ,X++
DE10: EC 84          LDD    ,X
DE12: AA C0          ORA    ,U+
DE14: EA C0          ORB    ,U+
DE16: ED 81          STD    ,X++
DE18: EC 84          LDD    ,X
DE1A: AA C0          ORA    ,U+
DE1C: EA C0          ORB    ,U+
DE1E: ED 81          STD    ,X++
DE20: EC 84          LDD    ,X
DE22: AA C0          ORA    ,U+
DE24: EA C0          ORB    ,U+
DE26: ED 81          STD    ,X++
DE28: EC 84          LDD    ,X
DE2A: AA C0          ORA    ,U+
DE2C: EA C0          ORB    ,U+
DE2E: ED 81          STD    ,X++
DE30: A6 84          LDA    ,X
DE32: AA C0          ORA    ,U+
DE34: A7 80          STA    ,X+
DE36: CC 00 00       LDD    #$0000
DE39: D0 24          SUBB   <$24
DE3B: 30 8B          LEAX   D,X
DE3D: 8C 80 00       CMPX   #$8000
DE40: 25 09          BCS    $DE4B
DE42: 9F 39          STX    <$39
DE44: BF 94 02       STX    $9402
DE47: 30 89 80 00    LEAX   -$8000,X
DE4B: 0A 23          DEC    <$23
DE4D: 27 02          BEQ    $DE51
DE4F: 6E A4          JMP    ,Y
DE51: 39             RTS
DE52: 34 36          PSHS   Y,X,D
DE54: 1F 21          TFR    Y,X
DE56: 31 28          LEAY   $8,Y
DE58: CC 86 B0       LDD    #$86B0
DE5B: 0D 2D          TST    <$2D
DE5D: 27 03          BEQ    $DE62
DE5F: CC 87 00       LDD    #$8700
DE62: 34 20          PSHS   Y
DE64: A3 E1          SUBD   ,S++
DE66: BD E5 1B       JSR    $E51B
DE69: AE 62          LDX    $2,S
DE6B: 31 38          LEAY   -$8,Y
DE6D: CC 00 08       LDD    #$0008
DE70: BD E5 03       JSR    $E503
DE73: 35 36          PULS   D,X,Y
DE75: 39             RTS
DE76: 10 8E 00 00    LDY    #$0000
DE7A: CE C8 C4       LDU    #$C8C4
DE7D: EE CB          LDU    D,U
DE7F: EC C1          LDD    ,U++
DE81: DD 23          STD    <$23
DE83: 6D A9 A0 09    TST    -$5FF7,Y
DE87: 27 06          BEQ    $DE8F
DE89: 4A             DECA
DE8A: 44             LSRA
DE8B: A0 C0          SUBA   ,U+
DE8D: 20 05          BRA    $DE94
DE8F: 4A             DECA
DE90: 44             LSRA
DE91: 40             NEGA
DE92: AB C0          ADDA   ,U+
DE94: 6D A9 A0 0A    TST    -$5FF6,Y
DE98: 27 06          BEQ    $DEA0
DE9A: 5C             INCB
DE9B: 54             LSRB
DE9C: E0 C0          SUBB   ,U+
DE9E: 20 05          BRA    $DEA5
DEA0: 5A             DECB
DEA1: 54             LSRB
DEA2: 50             NEGB
DEA3: EB C0          ADDB   ,U+
DEA5: 9B 3E          ADDA   <$3E
DEA7: DB 3F          ADDB   <$3F
DEA9: 97 39          STA    <$39
DEAB: B7 94 02       STA    $9402
DEAE: 84 7F          ANDA   #$7F
DEB0: 1F 01          TFR    D,X
DEB2: 10 AE A9 B9 27 LDY    -$46D9,Y
DEB7: 96 24          LDA    <$24
DEB9: 48             ASLA
DEBA: 10 AE A6       LDY    A,Y
DEBD: 6E A4          JMP    ,Y
DEBF: EC 84          LDD    ,X
DEC1: A4 C0          ANDA   ,U+
DEC3: E4 C0          ANDB   ,U+
DEC5: ED 81          STD    ,X++
DEC7: EC 84          LDD    ,X
DEC9: A4 C0          ANDA   ,U+
DECB: E4 C0          ANDB   ,U+
DECD: ED 81          STD    ,X++
DECF: EC 84          LDD    ,X
DED1: A4 C0          ANDA   ,U+
DED3: E4 C0          ANDB   ,U+
DED5: ED 81          STD    ,X++
DED7: EC 84          LDD    ,X
DED9: A4 C0          ANDA   ,U+
DEDB: E4 C0          ANDB   ,U+
DEDD: ED 81          STD    ,X++
DEDF: EC 84          LDD    ,X
DEE1: A4 C0          ANDA   ,U+
DEE3: E4 C0          ANDB   ,U+
DEE5: ED 81          STD    ,X++
DEE7: CC 00 00       LDD    #$0000
DEEA: D0 24          SUBB   <$24
DEEC: 30 8B          LEAX   D,X
DEEE: 8C 80 00       CMPX   #$8000
DEF1: 25 09          BCS    $DEFC
DEF3: 9F 39          STX    <$39
DEF5: BF 94 02       STX    $9402
DEF8: 30 89 80 00    LEAX   -$8000,X
DEFC: 0A 23          DEC    <$23
DEFE: 27 02          BEQ    $DF02
DF00: 6E A4          JMP    ,Y
DF02: 39             RTS
DF03: EC 84          LDD    ,X
DF05: A4 C0          ANDA   ,U+
DF07: E4 C0          ANDB   ,U+
DF09: ED 81          STD    ,X++
DF0B: EC 84          LDD    ,X
DF0D: A4 C0          ANDA   ,U+
DF0F: E4 C0          ANDB   ,U+
DF11: ED 81          STD    ,X++
DF13: EC 84          LDD    ,X
DF15: A4 C0          ANDA   ,U+
DF17: E4 C0          ANDB   ,U+
DF19: ED 81          STD    ,X++
DF1B: EC 84          LDD    ,X
DF1D: A4 C0          ANDA   ,U+
DF1F: E4 C0          ANDB   ,U+
DF21: ED 81          STD    ,X++
DF23: EC 84          LDD    ,X
DF25: A4 C0          ANDA   ,U+
DF27: E4 C0          ANDB   ,U+
DF29: ED 81          STD    ,X++
DF2B: A6 84          LDA    ,X
DF2D: A4 C0          ANDA   ,U+
DF2F: A7 80          STA    ,X+
DF31: CC 00 00       LDD    #$0000
DF34: D0 24          SUBB   <$24
DF36: 30 8B          LEAX   D,X
DF38: 8C 80 00       CMPX   #$8000
DF3B: 25 09          BCS    $DF46
DF3D: 9F 39          STX    <$39
DF3F: BF 94 02       STX    $9402
DF42: 30 89 80 00    LEAX   -$8000,X
DF46: 0A 23          DEC    <$23
DF48: 27 02          BEQ    $DF4C
DF4A: 6E A4          JMP    ,Y
DF4C: 39             RTS
DF4D: A6 A4          LDA    ,Y
DF4F: E6 22          LDB    $2,Y
DF51: DD 3E          STD    <$3E
DF53: A6 26          LDA    $6,Y
DF55: 44             LSRA
DF56: 44             LSRA
DF57: 44             LSRA
DF58: 44             LSRA
DF59: 44             LSRA
DF5A: 6D 27          TST    $7,Y
DF5C: 2A 02          BPL    $DF60
DF5E: 86 08          LDA    #$08
DF60: 6D 27          TST    $7,Y
DF62: 2F 02          BLE    $DF66
DF64: 86 09          LDA    #$09
DF66: BD D3 4E       JSR    $D34E
DF69: 39             RTS
DF6A: 34 56          PSHS   U,X,D
DF6C: 1F 10          TFR    X,D
DF6E: 97 39          STA    <$39
DF70: B7 94 02       STA    $9402
DF73: 84 7F          ANDA   #$7F
DF75: 1F 01          TFR    D,X
DF77: A6 E4          LDA    ,S
DF79: D6 3B          LDB    <$3B
DF7B: BD D3 7B       JSR    $D37B
DF7E: 35 56          PULS   D,X,U
DF80: 39             RTS
DF81: 34 56          PSHS   U,X,D
DF83: 4F             CLRA
DF84: C6 07          LDB    #$07
DF86: 34 06          PSHS   D
DF88: A6 C4          LDA    ,U
DF8A: 44             LSRA
DF8B: 44             LSRA
DF8C: 44             LSRA
DF8D: 44             LSRA
DF8E: BD DF A3       JSR    $DFA3
DF91: 6A 61          DEC    $1,S
DF93: A6 C0          LDA    ,U+
DF95: 84 0F          ANDA   #$0F
DF97: BD DF A3       JSR    $DFA3
DF9A: 6A 61          DEC    $1,S
DF9C: 2A EA          BPL    $DF88
DF9E: 35 06          PULS   D
DFA0: 35 56          PULS   D,X,U
DFA2: 39             RTS
DFA3: 26 1E          BNE    $DFC3
DFA5: E6 62          LDB    $2,S
DFA7: 26 1A          BNE    $DFC3
DFA9: E6 63          LDB    $3,S
DFAB: 27 16          BEQ    $DFC3
DFAD: C1 05          CMPB   #$05
DFAF: 22 32          BHI    $DFE3
DFB1: 96 3D          LDA    <$3D
DFB3: 8B 06          ADDA   #$06
DFB5: 97 3D          STA    <$3D
DFB7: C1 03          CMPB   #$03
DFB9: 26 28          BNE    $DFE3
DFBB: 96 3D          LDA    <$3D
DFBD: 8B 03          ADDA   #$03
DFBF: 97 3D          STA    <$3D
DFC1: 20 20          BRA    $DFE3
DFC3: 6C 62          INC    $2,S
DFC5: 8B 30          ADDA   #$30
DFC7: 9E 3C          LDX    <$3C
DFC9: BD DF 6A       JSR    $DF6A
DFCC: BD CE D1       JSR    $CED1
DFCF: A6 63          LDA    $3,S
DFD1: 81 06          CMPA   #$06
DFD3: 27 04          BEQ    $DFD9
DFD5: 81 03          CMPA   #$03
DFD7: 26 0A          BNE    $DFE3
DFD9: 86 2C          LDA    #$2C
DFDB: 9E 3C          LDX    <$3C
DFDD: BD DF 6A       JSR    $DF6A
DFE0: BD CE D1       JSR    $CED1
DFE3: 39             RTS
DFE4: 34 52          PSHS   U,X,A
DFE6: 33 44          LEAU   $4,U
DFE8: A6 C0          LDA    ,U+
DFEA: 9E 3C          LDX    <$3C
DFEC: BD DF 6A       JSR    $DF6A
DFEF: BD CE D1       JSR    $CED1
DFF2: A6 C0          LDA    ,U+
DFF4: 9E 3C          LDX    <$3C
DFF6: BD DF 6A       JSR    $DF6A
DFF9: BD CE D1       JSR    $CED1
DFFC: A6 C0          LDA    ,U+
DFFE: 9E 3C          LDX    <$3C
E000: BD DF 6A       JSR    $DF6A
E003: BD CE D1       JSR    $CED1
E006: 35 52          PULS   A,X,U
E008: 39             RTS
E009: 34 06          PSHS   D
E00B: 96 2A          LDA    <$2A
E00D: 44             LSRA
E00E: 44             LSRA
E00F: 44             LSRA
E010: 44             LSRA
E011: C6 0A          LDB    #$0A
E013: 3D             MUL
E014: 96 2A          LDA    <$2A
E016: 84 0F          ANDA   #$0F
E018: 34 02          PSHS   A
E01A: EB E0          ADDB   ,S+
E01C: 86 0C          LDA    #$0C
E01E: 3D             MUL
E01F: CB 54          ADDB   #$54
E021: 1F 98          TFR    B,A
E023: C6 21          LDB    #$21
E025: 0D 2D          TST    <$2D
E027: 27 02          BEQ    $E02B
E029: C6 85          LDB    #$85
E02B: DD 3C          STD    <$3C
E02D: 34 06          PSHS   D
E02F: BD E0 4D       JSR    $E04D
E032: 96 3D          LDA    <$3D
E034: 8B 14          ADDA   #$14
E036: 97 3D          STA    <$3D
E038: 34 02          PSHS   A
E03A: BD DF E4       JSR    $DFE4
E03D: 35 02          PULS   A
E03F: 8B 17          ADDA   #$17
E041: 97 3D          STA    <$3D
E043: BD DF 81       JSR    $DF81
E046: 35 06          PULS   D
E048: DD 3C          STD    <$3C
E04A: 35 06          PULS   D
E04C: 39             RTS
E04D: 34 16          PSHS   X,D
E04F: 9E 3C          LDX    <$3C
E051: 96 2A          LDA    <$2A
E053: 44             LSRA
E054: 44             LSRA
E055: 44             LSRA
E056: 44             LSRA
E057: 27 05          BEQ    $E05E
E059: 8B 30          ADDA   #$30
E05B: BD DF 6A       JSR    $DF6A
E05E: 30 06          LEAX   $6,X
E060: 96 2A          LDA    <$2A
E062: 84 0F          ANDA   #$0F
E064: 8B 30          ADDA   #$30
E066: BD DF 6A       JSR    $DF6A
E069: 30 06          LEAX   $6,X
E06B: 86 3A          LDA    #$3A
E06D: BD DF 6A       JSR    $DF6A
E070: 35 16          PULS   D,X
E072: 39             RTS
E073: 34 42          PSHS   U,A
E075: 86 01          LDA    #$01
E077: 97 2A          STA    <$2A
E079: BD E0 09       JSR    $E009
E07C: 33 48          LEAU   $8,U
E07E: 96 2A          LDA    <$2A
E080: 8B 01          ADDA   #$01
E082: 19             DAA
E083: 81 10          CMPA   #$10
E085: 23 F0          BLS    $E077
E087: 35 42          PULS   A,U
E089: 39             RTS
E08A: 34 56          PSHS   U,X,D
E08C: DC 3C          LDD    <$3C
E08E: EB C0          ADDB   ,U+
E090: DD 3C          STD    <$3C
E092: A6 C4          LDA    ,U
E094: 2B 0C          BMI    $E0A2
E096: 9E 3C          LDX    <$3C
E098: BD DF 6A       JSR    $DF6A
E09B: BD CE D1       JSR    $CED1
E09E: 33 41          LEAU   $1,U
E0A0: 20 F0          BRA    $E092
E0A2: 35 56          PULS   D,X,U
E0A4: 39             RTS
E0A5: 10 8E 00 00    LDY    #$0000
E0A9: 6F E2          CLR    ,-S
E0AB: 10 83 00 B6    CMPD   #$00B6
E0AF: 25 1A          BCS    $E0CB
E0B1: 10 83 01 16    CMPD   #$0116
E0B5: 25 0C          BCS    $E0C3
E0B7: 10 83 01 1E    CMPD   #$011E
E0BB: 25 0E          BCS    $E0CB
E0BD: 10 83 01 2E    CMPD   #$012E
E0C1: 24 08          BCC    $E0CB
E0C3: 6C E4          INC    ,S
E0C5: 6C E4          INC    ,S
E0C7: 6C E4          INC    ,S
E0C9: 6C E4          INC    ,S
E0CB: CE C8 C4       LDU    #$C8C4
E0CE: EE CB          LDU    D,U
E0D0: A6 E4          LDA    ,S
E0D2: 97 34          STA    <$34
E0D4: 96 2E          LDA    <$2E
E0D6: 84 FB          ANDA   #$FB
E0D8: 9A 34          ORA    <$34
E0DA: B7 88 01       STA    $8801
E0DD: EC C1          LDD    ,U++
E0DF: DD 23          STD    <$23
E0E1: 6D A9 A0 09    TST    -$5FF7,Y
E0E5: 27 06          BEQ    $E0ED
E0E7: 4A             DECA
E0E8: 44             LSRA
E0E9: A0 C0          SUBA   ,U+
E0EB: 20 05          BRA    $E0F2
E0ED: 4A             DECA
E0EE: 44             LSRA
E0EF: 40             NEGA
E0F0: AB C0          ADDA   ,U+
E0F2: 6D A9 A0 0A    TST    -$5FF6,Y
E0F6: 27 06          BEQ    $E0FE
E0F8: 5C             INCB
E0F9: 54             LSRB
E0FA: E0 C0          SUBB   ,U+
E0FC: 20 05          BRA    $E103
E0FE: 5A             DECB
E0FF: 54             LSRB
E100: 50             NEGB
E101: EB C0          ADDB   ,U+
E103: 9B 3E          ADDA   <$3E
E105: DB 3F          ADDB   <$3F
E107: 97 39          STA    <$39
E109: B7 94 02       STA    $9402
E10C: 84 7F          ANDA   #$7F
E10E: 1F 01          TFR    D,X
E110: 10 AE A9 A0 11 LDY    -$5FEF,Y
E115: 96 24          LDA    <$24
E117: 48             ASLA
E118: 0F 34          CLR    <$34
E11A: D6 2E          LDB    <$2E
E11C: C4 FB          ANDB   #$FB
E11E: F7 88 01       STB    $8801
E121: 10 AE A6       LDY    A,Y
E124: A6 E0          LDA    ,S+
E126: 97 34          STA    <$34
E128: 96 2E          LDA    <$2E
E12A: 84 FB          ANDA   #$FB
E12C: 9A 34          ORA    <$34
E12E: B7 88 01       STA    $8801
E131: 6E A4          JMP    ,Y
E133: 0F 34          CLR    <$34
E135: 96 2E          LDA    <$2E
E137: 84 FB          ANDA   #$FB
E139: B7 88 01       STA    $8801
E13C: 39             RTS
E13D: EC 84          LDD    ,X
E13F: A8 C0          EORA   ,U+
E141: E8 C0          EORB   ,U+
E143: ED 81          STD    ,X++
E145: EC 84          LDD    ,X
E147: A8 C0          EORA   ,U+
E149: E8 C0          EORB   ,U+
E14B: ED 81          STD    ,X++
E14D: EC 84          LDD    ,X
E14F: A8 C0          EORA   ,U+
E151: E8 C0          EORB   ,U+
E153: ED 81          STD    ,X++
E155: EC 84          LDD    ,X
E157: A8 C0          EORA   ,U+
E159: E8 C0          EORB   ,U+
E15B: ED 81          STD    ,X++
E15D: EC 84          LDD    ,X
E15F: A8 C0          EORA   ,U+
E161: E8 C0          EORB   ,U+
E163: ED 81          STD    ,X++
E165: EC 84          LDD    ,X
E167: A8 C0          EORA   ,U+
E169: E8 C0          EORB   ,U+
E16B: ED 81          STD    ,X++
E16D: EC 84          LDD    ,X
E16F: A8 C0          EORA   ,U+
E171: E8 C0          EORB   ,U+
E173: ED 81          STD    ,X++
E175: EC 84          LDD    ,X
E177: A8 C0          EORA   ,U+
E179: E8 C0          EORB   ,U+
E17B: ED 81          STD    ,X++
E17D: EC 84          LDD    ,X
E17F: A8 C0          EORA   ,U+
E181: E8 C0          EORB   ,U+
E183: ED 81          STD    ,X++
E185: CC 00 00       LDD    #$0000
E188: D0 24          SUBB   <$24
E18A: 30 8B          LEAX   D,X
E18C: 8C 80 00       CMPX   #$8000
E18F: 25 09          BCS    $E19A
E191: 9F 39          STX    <$39
E193: BF 94 02       STX    $9402
E196: 30 89 80 00    LEAX   -$8000,X
E19A: 0A 23          DEC    <$23
E19C: 10 27 FF 93    LBEQ   $E133
E1A0: 6E A4          JMP    ,Y
E1A2: EC 84          LDD    ,X
E1A4: A8 C0          EORA   ,U+
E1A6: E8 C0          EORB   ,U+
E1A8: ED 81          STD    ,X++
E1AA: EC 84          LDD    ,X
E1AC: A8 C0          EORA   ,U+
E1AE: E8 C0          EORB   ,U+
E1B0: ED 81          STD    ,X++
E1B2: EC 84          LDD    ,X
E1B4: A8 C0          EORA   ,U+
E1B6: E8 C0          EORB   ,U+
E1B8: ED 81          STD    ,X++
E1BA: EC 84          LDD    ,X
E1BC: A8 C0          EORA   ,U+
E1BE: E8 C0          EORB   ,U+
E1C0: ED 81          STD    ,X++
E1C2: EC 84          LDD    ,X
E1C4: A8 C0          EORA   ,U+
E1C6: E8 C0          EORB   ,U+
E1C8: ED 81          STD    ,X++
E1CA: EC 84          LDD    ,X
E1CC: A8 C0          EORA   ,U+
E1CE: E8 C0          EORB   ,U+
E1D0: ED 81          STD    ,X++
E1D2: EC 84          LDD    ,X
E1D4: A8 C0          EORA   ,U+
E1D6: E8 C0          EORB   ,U+
E1D8: ED 81          STD    ,X++
E1DA: EC 84          LDD    ,X
E1DC: A8 C0          EORA   ,U+
E1DE: E8 C0          EORB   ,U+
E1E0: ED 81          STD    ,X++
E1E2: A6 84          LDA    ,X
E1E4: A8 C0          EORA   ,U+
E1E6: A7 80          STA    ,X+
E1E8: CC 00 00       LDD    #$0000
E1EB: D0 24          SUBB   <$24
E1ED: 30 8B          LEAX   D,X
E1EF: 8C 80 00       CMPX   #$8000
E1F2: 25 09          BCS    $E1FD
E1F4: 9F 39          STX    <$39
E1F6: BF 94 02       STX    $9402
E1F9: 30 89 80 00    LEAX   -$8000,X
E1FD: 0A 23          DEC    <$23
E1FF: 10 27 FF 30    LBEQ   $E133
E203: 6E A4          JMP    ,Y
E205: EC 84          LDD    ,X
E207: A8 C0          EORA   ,U+
E209: E8 C0          EORB   ,U+
E20B: ED 81          STD    ,X++
E20D: EC 84          LDD    ,X
E20F: A8 C0          EORA   ,U+
E211: E8 C0          EORB   ,U+
E213: ED 81          STD    ,X++
E215: EC 84          LDD    ,X
E217: A8 C0          EORA   ,U+
E219: E8 C0          EORB   ,U+
E21B: ED 81          STD    ,X++
E21D: EC 84          LDD    ,X
E21F: A8 C0          EORA   ,U+
E221: E8 C0          EORB   ,U+
E223: ED 81          STD    ,X++
E225: EC 84          LDD    ,X
E227: A8 C0          EORA   ,U+
E229: E8 C0          EORB   ,U+
E22B: ED 81          STD    ,X++
E22D: EC 84          LDD    ,X
E22F: A8 C0          EORA   ,U+
E231: E8 C0          EORB   ,U+
E233: ED 81          STD    ,X++
E235: EC 84          LDD    ,X
E237: A8 C0          EORA   ,U+
E239: E8 C0          EORB   ,U+
E23B: ED 81          STD    ,X++
E23D: EC 84          LDD    ,X
E23F: A8 C0          EORA   ,U+
E241: E8 C0          EORB   ,U+
E243: ED 81          STD    ,X++
E245: EC 84          LDD    ,X
E247: A8 C0          EORA   ,U+
E249: E8 C0          EORB   ,U+
E24B: ED 81          STD    ,X++
E24D: CC FE 00       LDD    #$FE00
E250: D0 24          SUBB   <$24
E252: 30 8B          LEAX   D,X
E254: 8C 80 00       CMPX   #$8000
E257: 25 09          BCS    $E262
E259: 30 89 80 00    LEAX   -$8000,X
E25D: 9F 39          STX    <$39
E25F: BF 94 02       STX    $9402
E262: 0A 23          DEC    <$23
E264: 10 27 FE CB    LBEQ   $E133
E268: 6E A4          JMP    ,Y
E26A: EC 84          LDD    ,X
E26C: A8 C0          EORA   ,U+
E26E: E8 C0          EORB   ,U+
E270: ED 81          STD    ,X++
E272: EC 84          LDD    ,X
E274: A8 C0          EORA   ,U+
E276: E8 C0          EORB   ,U+
E278: ED 81          STD    ,X++
E27A: EC 84          LDD    ,X
E27C: A8 C0          EORA   ,U+
E27E: E8 C0          EORB   ,U+
E280: ED 81          STD    ,X++
E282: EC 84          LDD    ,X
E284: A8 C0          EORA   ,U+
E286: E8 C0          EORB   ,U+
E288: ED 81          STD    ,X++
E28A: EC 84          LDD    ,X
E28C: A8 C0          EORA   ,U+
E28E: E8 C0          EORB   ,U+
E290: ED 81          STD    ,X++
E292: EC 84          LDD    ,X
E294: A8 C0          EORA   ,U+
E296: E8 C0          EORB   ,U+
E298: ED 81          STD    ,X++
E29A: EC 84          LDD    ,X
E29C: A8 C0          EORA   ,U+
E29E: E8 C0          EORB   ,U+
E2A0: ED 81          STD    ,X++
E2A2: EC 84          LDD    ,X
E2A4: A8 C0          EORA   ,U+
E2A6: E8 C0          EORB   ,U+
E2A8: ED 81          STD    ,X++
E2AA: A6 84          LDA    ,X
E2AC: A8 C0          EORA   ,U+
E2AE: A7 80          STA    ,X+
E2B0: CC FE 00       LDD    #$FE00
E2B3: D0 24          SUBB   <$24
E2B5: 30 8B          LEAX   D,X
E2B7: 8C 80 00       CMPX   #$8000
E2BA: 25 09          BCS    $E2C5
E2BC: 30 89 80 00    LEAX   -$8000,X
E2C0: 9F 39          STX    <$39
E2C2: BF 94 02       STX    $9402
E2C5: 0A 23          DEC    <$23
E2C7: 10 27 FE 68    LBEQ   $E133
E2CB: 6E A4          JMP    ,Y
E2CD: EC 83          LDD    ,--X
E2CF: E8 C0          EORB   ,U+
E2D1: A8 C0          EORA   ,U+
E2D3: ED 84          STD    ,X
E2D5: EC 83          LDD    ,--X
E2D7: E8 C0          EORB   ,U+
E2D9: A8 C0          EORA   ,U+
E2DB: ED 84          STD    ,X
E2DD: EC 83          LDD    ,--X
E2DF: E8 C0          EORB   ,U+
E2E1: A8 C0          EORA   ,U+
E2E3: ED 84          STD    ,X
E2E5: EC 83          LDD    ,--X
E2E7: E8 C0          EORB   ,U+
E2E9: A8 C0          EORA   ,U+
E2EB: ED 84          STD    ,X
E2ED: EC 83          LDD    ,--X
E2EF: E8 C0          EORB   ,U+
E2F1: A8 C0          EORA   ,U+
E2F3: ED 84          STD    ,X
E2F5: EC 83          LDD    ,--X
E2F7: E8 C0          EORB   ,U+
E2F9: A8 C0          EORA   ,U+
E2FB: ED 84          STD    ,X
E2FD: EC 83          LDD    ,--X
E2FF: E8 C0          EORB   ,U+
E301: A8 C0          EORA   ,U+
E303: ED 84          STD    ,X
E305: EC 83          LDD    ,--X
E307: E8 C0          EORB   ,U+
E309: A8 C0          EORA   ,U+
E30B: ED 84          STD    ,X
E30D: EC 83          LDD    ,--X
E30F: E8 C0          EORB   ,U+
E311: A8 C0          EORA   ,U+
E313: ED 84          STD    ,X
E315: 86 01          LDA    #$01
E317: D6 24          LDB    <$24
E319: 30 8B          LEAX   D,X
E31B: 8C 80 00       CMPX   #$8000
E31E: 25 09          BCS    $E329
E320: 9F 39          STX    <$39
E322: BF 94 02       STX    $9402
E325: 30 89 80 00    LEAX   -$8000,X
E329: 0A 23          DEC    <$23
E32B: 10 27 FE 04    LBEQ   $E133
E32F: 6E A4          JMP    ,Y
E331: EC 83          LDD    ,--X
E333: E8 C0          EORB   ,U+
E335: A8 C0          EORA   ,U+
E337: ED 84          STD    ,X
E339: EC 83          LDD    ,--X
E33B: E8 C0          EORB   ,U+
E33D: A8 C0          EORA   ,U+
E33F: ED 84          STD    ,X
E341: EC 83          LDD    ,--X
E343: E8 C0          EORB   ,U+
E345: A8 C0          EORA   ,U+
E347: ED 84          STD    ,X
E349: EC 83          LDD    ,--X
E34B: E8 C0          EORB   ,U+
E34D: A8 C0          EORA   ,U+
E34F: ED 84          STD    ,X
E351: EC 83          LDD    ,--X
E353: E8 C0          EORB   ,U+
E355: A8 C0          EORA   ,U+
E357: ED 84          STD    ,X
E359: EC 83          LDD    ,--X
E35B: E8 C0          EORB   ,U+
E35D: A8 C0          EORA   ,U+
E35F: ED 84          STD    ,X
E361: EC 83          LDD    ,--X
E363: E8 C0          EORB   ,U+
E365: A8 C0          EORA   ,U+
E367: ED 84          STD    ,X
E369: EC 83          LDD    ,--X
E36B: E8 C0          EORB   ,U+
E36D: A8 C0          EORA   ,U+
E36F: ED 84          STD    ,X
E371: A6 82          LDA    ,-X
E373: A8 C0          EORA   ,U+
E375: A7 84          STA    ,X
E377: 86 01          LDA    #$01
E379: D6 24          LDB    <$24
E37B: 30 8B          LEAX   D,X
E37D: 8C 80 00       CMPX   #$8000
E380: 25 09          BCS    $E38B
E382: 9F 39          STX    <$39
E384: BF 94 02       STX    $9402
E387: 30 89 80 00    LEAX   -$8000,X
E38B: 0A 23          DEC    <$23
E38D: 10 27 FD A2    LBEQ   $E133
E391: 6E A4          JMP    ,Y
E393: EC 83          LDD    ,--X
E395: E8 C0          EORB   ,U+
E397: A8 C0          EORA   ,U+
E399: ED 84          STD    ,X
E39B: EC 83          LDD    ,--X
E39D: E8 C0          EORB   ,U+
E39F: A8 C0          EORA   ,U+
E3A1: ED 84          STD    ,X
E3A3: EC 83          LDD    ,--X
E3A5: E8 C0          EORB   ,U+
E3A7: A8 C0          EORA   ,U+
E3A9: ED 84          STD    ,X
E3AB: EC 83          LDD    ,--X
E3AD: E8 C0          EORB   ,U+
E3AF: A8 C0          EORA   ,U+
E3B1: ED 84          STD    ,X
E3B3: EC 83          LDD    ,--X
E3B5: E8 C0          EORB   ,U+
E3B7: A8 C0          EORA   ,U+
E3B9: ED 84          STD    ,X
E3BB: EC 83          LDD    ,--X
E3BD: E8 C0          EORB   ,U+
E3BF: A8 C0          EORA   ,U+
E3C1: ED 84          STD    ,X
E3C3: EC 83          LDD    ,--X
E3C5: E8 C0          EORB   ,U+
E3C7: A8 C0          EORA   ,U+
E3C9: ED 84          STD    ,X
E3CB: EC 83          LDD    ,--X
E3CD: E8 C0          EORB   ,U+
E3CF: A8 C0          EORA   ,U+
E3D1: ED 84          STD    ,X
E3D3: EC 83          LDD    ,--X
E3D5: E8 C0          EORB   ,U+
E3D7: A8 C0          EORA   ,U+
E3D9: ED 84          STD    ,X
E3DB: 86 FF          LDA    #$FF
E3DD: D6 24          LDB    <$24
E3DF: 30 8B          LEAX   D,X
E3E1: 8C 80 00       CMPX   #$8000
E3E4: 25 09          BCS    $E3EF
E3E6: 30 89 80 00    LEAX   -$8000,X
E3EA: 9F 39          STX    <$39
E3EC: BF 94 02       STX    $9402
E3EF: 0A 23          DEC    <$23
E3F1: 10 27 FD 3E    LBEQ   $E133
E3F5: 6E A4          JMP    ,Y
E3F7: EC 83          LDD    ,--X
E3F9: E8 C0          EORB   ,U+
E3FB: A8 C0          EORA   ,U+
E3FD: ED 84          STD    ,X
E3FF: EC 83          LDD    ,--X
E401: E8 C0          EORB   ,U+
E403: A8 C0          EORA   ,U+
E405: ED 84          STD    ,X
E407: EC 83          LDD    ,--X
E409: E8 C0          EORB   ,U+
E40B: A8 C0          EORA   ,U+
E40D: ED 84          STD    ,X
E40F: EC 83          LDD    ,--X
E411: E8 C0          EORB   ,U+
E413: A8 C0          EORA   ,U+
E415: ED 84          STD    ,X
E417: EC 83          LDD    ,--X
E419: E8 C0          EORB   ,U+
E41B: A8 C0          EORA   ,U+
E41D: ED 84          STD    ,X
E41F: EC 83          LDD    ,--X
E421: E8 C0          EORB   ,U+
E423: A8 C0          EORA   ,U+
E425: ED 84          STD    ,X
E427: EC 83          LDD    ,--X
E429: E8 C0          EORB   ,U+
E42B: A8 C0          EORA   ,U+
E42D: ED 84          STD    ,X
E42F: EC 83          LDD    ,--X
E431: E8 C0          EORB   ,U+
E433: A8 C0          EORA   ,U+
E435: ED 84          STD    ,X
E437: A6 82          LDA    ,-X
E439: A8 C0          EORA   ,U+
E43B: A7 84          STA    ,X
E43D: 86 FF          LDA    #$FF
E43F: D6 24          LDB    <$24
E441: 30 8B          LEAX   D,X
E443: 8C 80 00       CMPX   #$8000
E446: 25 09          BCS    $E451
E448: 30 89 80 00    LEAX   -$8000,X
E44C: 9F 39          STX    <$39
E44E: BF 94 02       STX    $9402
E451: 0A 23          DEC    <$23
E453: 10 27 FC DC    LBEQ   $E133
E457: 6E A4          JMP    ,Y
E459: 34 10          PSHS   X
E45B: BE 80 03       LDX    $8003
E45E: BC 80 05       CMPX   $8005
E461: 26 05          BNE    $E468
E463: BD DD 42       JSR    $DD42
E466: 20 F6          BRA    $E45E
E468: A6 80          LDA    ,X+
E46A: 8C 80 20       CMPX   #$8020
E46D: 26 03          BNE    $E472
E46F: 8E 80 07       LDX    #$8007
E472: BF 80 03       STX    $8003
E475: 35 10          PULS   X
E477: 4D             TSTA
E478: 39             RTS
E479: 34 10          PSHS   X
E47B: BE 80 03       LDX    $8003
E47E: BC 80 05       CMPX   $8005
E481: 26 05          BNE    $E488
E483: BD DD 42       JSR    $DD42
E486: 20 F6          BRA    $E47E
E488: A6 80          LDA    ,X+
E48A: 8C 80 20       CMPX   #$8020
E48D: 26 03          BNE    $E492
E48F: 8E 80 07       LDX    #$8007
E492: BC 80 05       CMPX   $8005
E495: 26 05          BNE    $E49C
E497: BD DD 42       JSR    $DD42
E49A: 20 F6          BRA    $E492
E49C: E6 80          LDB    ,X+
E49E: 8C 80 20       CMPX   #$8020
E4A1: 26 03          BNE    $E4A6
E4A3: 8E 80 07       LDX    #$8007
E4A6: BF 80 03       STX    $8003
E4A9: 35 10          PULS   X
E4AB: 10 83 00 00    CMPD   #$0000
E4AF: 39             RTS
E4B0: 96 28          LDA    <$28
E4B2: 44             LSRA
E4B3: 44             LSRA
E4B4: 44             LSRA
E4B5: 98 28          EORA   <$28
E4B7: 44             LSRA
E4B8: 06 29          ROR    <$29
E4BA: 06 28          ROR    <$28
E4BC: 96 29          LDA    <$29
E4BE: 39             RTS
E4BF: 34 06          PSHS   D
E4C1: 86 01          LDA    #$01
E4C3: 97 2A          STA    <$2A
E4C5: EC 84          LDD    ,X
E4C7: 10 A3 A4       CMPD   ,Y
E4CA: 25 09          BCS    $E4D5
E4CC: 22 14          BHI    $E4E2
E4CE: EC 02          LDD    $2,X
E4D0: 10 A3 22       CMPD   $2,Y
E4D3: 24 0D          BCC    $E4E2
E4D5: 31 28          LEAY   $8,Y
E4D7: 96 2A          LDA    <$2A
E4D9: 8B 01          ADDA   #$01
E4DB: 19             DAA
E4DC: 97 2A          STA    <$2A
E4DE: 81 10          CMPA   #$10
E4E0: 23 E3          BLS    $E4C5
E4E2: 35 06          PULS   D
E4E4: 39             RTS
E4E5: 86 FC          LDA    #$FC
E4E7: 97 2E          STA    <$2E
E4E9: B7 88 00       STA    $8800
E4EC: 86 0D          LDA    #$0D
E4EE: 8E B3 73       LDX    #$B373
E4F1: B7 9C 00       STA    $9C00
E4F4: E6 80          LDB    ,X+
E4F6: F7 9C 01       STB    $9C01
E4F9: 4A             DECA
E4FA: 2A F5          BPL    $E4F1
E4FC: BD D1 0D       JSR    $D10D
E4FF: BD CF 41       JSR    $CF41
E502: 39             RTS
E503: 34 36          PSHS   Y,X,D
E505: 4C             INCA
E506: 34 02          PSHS   A
E508: 5D             TSTB
E509: 27 07          BEQ    $E512
E50B: A6 80          LDA    ,X+
E50D: A7 A0          STA    ,Y+
E50F: 5A             DECB
E510: 26 F9          BNE    $E50B
E512: 6A E4          DEC    ,S
E514: 26 F5          BNE    $E50B
E516: 35 02          PULS   A
E518: 35 36          PULS   D,X,Y
E51A: 39             RTS
E51B: 34 36          PSHS   Y,X,D
E51D: 30 8B          LEAX   D,X
E51F: 31 AB          LEAY   D,Y
E521: 4C             INCA
E522: 34 02          PSHS   A
E524: 5D             TSTB
E525: 27 07          BEQ    $E52E
E527: A6 82          LDA    ,-X
E529: A7 A2          STA    ,-Y
E52B: 5A             DECB
E52C: 26 F9          BNE    $E527
E52E: 6A E4          DEC    ,S
E530: 26 F5          BNE    $E527
E532: 35 02          PULS   A
E534: 35 36          PULS   D,X,Y
E536: 39             RTS
E537: C3 00 01       ADDD   #$0001
E53A: DD 0A          STD    <$0A
E53C: 4D             TSTA
E53D: 27 0D          BEQ    $E54C
E53F: 0F 0D          CLR    <$0D
E541: 86 10          LDA    #$10
E543: 97 0C          STA    <$0C
E545: BD E5 91       JSR    $E591
E548: 0A 0A          DEC    <$0A
E54A: 26 F5          BNE    $E541
E54C: 96 0B          LDA    <$0B
E54E: 84 0E          ANDA   #$0E
E550: 97 0D          STA    <$0D
E552: 96 0B          LDA    <$0B
E554: 44             LSRA
E555: 44             LSRA
E556: 44             LSRA
E557: 44             LSRA
E558: 97 0C          STA    <$0C
E55A: BD E5 B3       JSR    $E5B3
E55D: 39             RTS
E55E: 34 56          PSHS   U,X,D
E560: DC 3C          LDD    <$3C
E562: EB C0          ADDB   ,U+
E564: DD 3C          STD    <$3C
E566: A6 C4          LDA    ,U
E568: 2B 24          BMI    $E58E
E56A: F6 98 00       LDB    $9800
E56D: D0 3C          SUBB   <$3C
E56F: C1 CE          CMPB   #$CE
E571: 2F 04          BLE    $E577
E573: C1 00          CMPB   #$00
E575: 2D F3          BLT    $E56A
E577: 9E 3C          LDX    <$3C
E579: BD DF 6A       JSR    $DF6A
E57C: 1F 10          TFR    X,D
E57E: AB E4          ADDA   ,S
E580: EB 61          ADDB   $1,S
E582: 1F 01          TFR    D,X
E584: A6 C0          LDA    ,U+
E586: BD DF 6A       JSR    $DF6A
E589: BD CE D1       JSR    $CED1
E58C: 20 D8          BRA    $E566
E58E: 35 56          PULS   D,X,U
E590: 39             RTS
E591: EC 81          LDD    ,X++
E593: ED A1          STD    ,Y++
E595: EC 81          LDD    ,X++
E597: ED A1          STD    ,Y++
E599: EC 81          LDD    ,X++
E59B: ED A1          STD    ,Y++
E59D: EC 81          LDD    ,X++
E59F: ED A1          STD    ,Y++
E5A1: EC 81          LDD    ,X++
E5A3: ED A1          STD    ,Y++
E5A5: EC 81          LDD    ,X++
E5A7: ED A1          STD    ,Y++
E5A9: EC 81          LDD    ,X++
E5AB: ED A1          STD    ,Y++
E5AD: EC 81          LDD    ,X++
E5AF: ED A1          STD    ,Y++
E5B1: 0A 0C          DEC    <$0C
E5B3: 27 03          BEQ    $E5B8
E5B5: 2A DA          BPL    $E591
E5B7: 39             RTS
E5B8: 96 0D          LDA    <$0D
E5BA: CE C7 54       LDU    #$C754
E5BD: 6E D6          JMP    [A,U]
E5BF: 34 30          PSHS   Y,X
E5C1: 8E 0A 2C       LDX    #$0A2C
E5C4: 30 1F          LEAX   -$1,X
E5C6: 26 FC          BNE    $E5C4
E5C8: 31 3F          LEAY   -$1,Y
E5CA: 26 F5          BNE    $E5C1
E5CC: 35 30          PULS   X,Y
E5CE: 39             RTS
E5CF: BD E4 59       JSR    $E459
E5D2: 8E A0 19       LDX    #$A019
E5D5: AD 96          JSR    [A,X]
E5D7: 20 F6          BRA    $E5CF
E5D9: 10 CE 86 2E    LDS    #$862E
E5DD: 0F 34          CLR    <$34
E5DF: 7F 88 01       CLR    $8801
E5E2: 1A 40          ORCC   #$40
E5E4: 86 84          LDA    #$84
E5E6: 1F 8B          TFR    A,DP
E5E8: BD E4 E5       JSR    $E4E5
E5EB: CC 00 00       LDD    #$0000
E5EE: DD 1F          STD    <$1F
E5F0: DD 21          STD    <$21
E5F2: 0F 2C          CLR    <$2C
E5F4: CC 00 00       LDD    #$0000
E5F7: 97 19          STA    <$19
E5F9: DD 1A          STD    <$1A
E5FB: CC A5 5A       LDD    #$A55A
E5FE: DD 28          STD    <$28
E600: 86 01          LDA    #$01
E602: B7 80 4B       STA    $804B
E605: 7F 80 4A       CLR    $804A
E608: 1C BF          ANDCC  #$BF
E60A: B6 80 27       LDA    $8027
E60D: 26 05          BNE    $E614
E60F: BD DD 42       JSR    $DD42
E612: 20 F6          BRA    $E60A
E614: 7F 80 27       CLR    $8027
E617: 7E E5 CF       JMP    $E5CF
E61A: 97 3B          STA    <$3B
E61C: D6 3B          LDB    <$3B
E61E: 1F 02          TFR    D,Y
E620: 8C 00 80       CMPX   #$0080
E623: 25 0B          BCS    $E630
E625: BD E6 50       JSR    $E650
E628: 30 88 80       LEAX   -$80,X
E62B: 8C 00 80       CMPX   #$0080
E62E: 24 F5          BCC    $E625
E630: 1F 10          TFR    X,D
E632: C5 02          BITB   #$02
E634: 27 04          BEQ    $E63A
E636: 36 20          PSHU   Y
E638: C0 02          SUBB   #$02
E63A: 96 3B          LDA    <$3B
E63C: C5 01          BITB   #$01
E63E: 27 04          BEQ    $E644
E640: 36 02          PSHU   A
E642: C0 01          SUBB   #$01
E644: 54             LSRB
E645: 50             NEGB
E646: 8E E6 90       LDX    #$E690
E649: 30 85          LEAX   B,X
E64B: D6 3B          LDB    <$3B
E64D: AD 84          JSR    ,X
E64F: 39             RTS
E650: 36 26          PSHU   Y,D
E652: 36 26          PSHU   Y,D
E654: 36 26          PSHU   Y,D
E656: 36 26          PSHU   Y,D
E658: 36 26          PSHU   Y,D
E65A: 36 26          PSHU   Y,D
E65C: 36 26          PSHU   Y,D
E65E: 36 26          PSHU   Y,D
E660: 36 26          PSHU   Y,D
E662: 36 26          PSHU   Y,D
E664: 36 26          PSHU   Y,D
E666: 36 26          PSHU   Y,D
E668: 36 26          PSHU   Y,D
E66A: 36 26          PSHU   Y,D
E66C: 36 26          PSHU   Y,D
E66E: 36 26          PSHU   Y,D
E670: 36 26          PSHU   Y,D
E672: 36 26          PSHU   Y,D
E674: 36 26          PSHU   Y,D
E676: 36 26          PSHU   Y,D
E678: 36 26          PSHU   Y,D
E67A: 36 26          PSHU   Y,D
E67C: 36 26          PSHU   Y,D
E67E: 36 26          PSHU   Y,D
E680: 36 26          PSHU   Y,D
E682: 36 26          PSHU   Y,D
E684: 36 26          PSHU   Y,D
E686: 36 26          PSHU   Y,D
E688: 36 26          PSHU   Y,D
E68A: 36 26          PSHU   Y,D
E68C: 36 26          PSHU   Y,D
E68E: 36 26          PSHU   Y,D
E690: 39             RTS
E691: 4F             CLRA
E692: D6 15          LDB    <$15
E694: D0 13          SUBB   <$13
E696: C3 00 01       ADDD   #$0001
E699: DD 16          STD    <$16
E69B: 96 12          LDA    <$12
E69D: 98 14          EORA   <$14
E69F: 2A 15          BPL    $E6B6
E6A1: 96 12          LDA    <$12
E6A3: D6 15          LDB    <$15
E6A5: 34 06          PSHS   D
E6A7: 86 80          LDA    #$80
E6A9: 97 12          STA    <$12
E6AB: BD E6 B6       JSR    $E6B6
E6AE: 35 06          PULS   D
E6B0: 97 12          STA    <$12
E6B2: 86 7F          LDA    #$7F
E6B4: DD 14          STD    <$14
E6B6: 96 14          LDA    <$14
E6B8: 90 12          SUBA   <$12
E6BA: 4C             INCA
E6BB: 97 0E          STA    <$0E
E6BD: DC 14          LDD    <$14
E6BF: 97 39          STA    <$39
E6C1: B7 94 02       STA    $9402
E6C4: 84 7F          ANDA   #$7F
E6C6: C3 00 01       ADDD   #$0001
E6C9: DD 14          STD    <$14
E6CB: DE 14          LDU    <$14
E6CD: 9E 16          LDX    <$16
E6CF: 96 3B          LDA    <$3B
E6D1: BD E6 1A       JSR    $E61A
E6D4: 0A 14          DEC    <$14
E6D6: 0A 0E          DEC    <$0E
E6D8: 26 F1          BNE    $E6CB
E6DA: 39             RTS
E6DB: 4F             CLRA
E6DC: D6 15          LDB    <$15
E6DE: D0 13          SUBB   <$13
E6E0: C3 00 01       ADDD   #$0001
E6E3: DD 16          STD    <$16
E6E5: 96 12          LDA    <$12
E6E7: 98 14          EORA   <$14
E6E9: 2A 15          BPL    $E700
E6EB: 96 12          LDA    <$12
E6ED: D6 15          LDB    <$15
E6EF: 34 06          PSHS   D
E6F1: 86 80          LDA    #$80
E6F3: 97 12          STA    <$12
E6F5: BD E7 00       JSR    $E700
E6F8: 35 06          PULS   D
E6FA: 97 12          STA    <$12
E6FC: 86 7F          LDA    #$7F
E6FE: DD 14          STD    <$14
E700: 96 14          LDA    <$14
E702: 90 12          SUBA   <$12
E704: 4C             INCA
E705: 97 0E          STA    <$0E
E707: DC 14          LDD    <$14
E709: 97 39          STA    <$39
E70B: B7 94 02       STA    $9402
E70E: 84 7F          ANDA   #$7F
E710: C3 00 01       ADDD   #$0001
E713: DD 14          STD    <$14
E715: DE 14          LDU    <$14
E717: 9E 16          LDX    <$16
E719: 96 28          LDA    <$28
E71B: 44             LSRA
E71C: 44             LSRA
E71D: 44             LSRA
E71E: 98 28          EORA   <$28
E720: 44             LSRA
E721: 06 29          ROR    <$29
E723: 06 28          ROR    <$28
E725: 96 29          LDA    <$29
E727: 91 11          CMPA   <$11
E729: 22 EE          BHI    $E719
E72B: 91 10          CMPA   <$10
E72D: 25 EA          BCS    $E719
E72F: A6 C2          LDA    ,-U
E731: 94 0F          ANDA   <$0F
E733: 9A 29          ORA    <$29
E735: 9A 3B          ORA    <$3B
E737: A7 C4          STA    ,U
E739: 30 1F          LEAX   -$1,X
E73B: 26 DC          BNE    $E719
E73D: 0A 14          DEC    <$14
E73F: 0A 0E          DEC    <$0E
E741: 26 D2          BNE    $E715
E743: 39             RTS
E744: 34 76          PSHS   U,Y,X,D
E746: A6 C4          LDA    ,U
E748: A1 42          CMPA   $2,U
E74A: 22 15          BHI    $E761
E74C: EC C1          LDD    ,U++
E74E: DD 12          STD    <$12
E750: EC C1          LDD    ,U++
E752: DD 14          STD    <$14
E754: A6 C0          LDA    ,U+
E756: 97 3B          STA    <$3B
E758: 34 40          PSHS   U
E75A: BD E6 91       JSR    $E691
E75D: 35 40          PULS   U
E75F: 20 E5          BRA    $E746
E761: 35 76          PULS   D,X,Y,U
E763: 39             RTS
E764: B7 8C 01       STA    $8C01
E767: 34 76          PSHS   U,Y,X,D
E769: 1F B8          TFR    DP,A
E76B: 81 84          CMPA   #$84
E76D: 10 26 00 9E    LBNE   $E80F
E771: 96 2E          LDA    <$2E
E773: 84 FB          ANDA   #$FB
E775: B7 88 01       STA    $8801
E778: 86 03          LDA    #$03
E77A: 97 18          STA    <$18
E77C: 96 18          LDA    <$18
E77E: 8E 84 35       LDX    #$8435
E781: E6 86          LDB    A,X
E783: 27 65          BEQ    $E7EA
E785: 34 04          PSHS   B
E787: 6F 86          CLR    A,X
E789: C5 04          BITB   #$04
E78B: 27 04          BEQ    $E791
E78D: C6 02          LDB    #$02
E78F: E7 86          STB    A,X
E791: 96 0C          LDA    <$0C
E793: D6 0D          LDB    <$0D
E795: 9E 0A          LDX    <$0A
E797: 34 16          PSHS   X,D
E799: A6 64          LDA    $4,S
E79B: 81 02          CMPA   #$02
E79D: 27 04          BEQ    $E7A3
E79F: 81 03          CMPA   #$03
E7A1: 26 05          BNE    $E7A8
E7A3: CC 00 80       LDD    #$0080
E7A6: 20 03          BRA    $E7AB
E7A8: CC 00 00       LDD    #$0000
E7AB: 9B 18          ADDA   <$18
E7AD: 1F 01          TFR    D,X
E7AF: 7F 94 02       CLR    $9402
E7B2: A6 64          LDA    $4,S
E7B4: 81 02          CMPA   #$02
E7B6: 27 04          BEQ    $E7BC
E7B8: 81 03          CMPA   #$03
E7BA: 26 05          BNE    $E7C1
E7BC: CC 90 80       LDD    #$9080
E7BF: 20 03          BRA    $E7C4
E7C1: CC 90 00       LDD    #$9000
E7C4: 9B 18          ADDA   <$18
E7C6: 1F 02          TFR    D,Y
E7C8: A6 64          LDA    $4,S
E7CA: 81 01          CMPA   #$01
E7CC: 26 05          BNE    $E7D3
E7CE: CC 00 10       LDD    #$0010
E7D1: 20 03          BRA    $E7D6
E7D3: CC 00 80       LDD    #$0080
E7D6: BD E5 37       JSR    $E537
E7D9: 35 16          PULS   D,X
E7DB: 97 0C          STA    <$0C
E7DD: D7 0D          STB    <$0D
E7DF: 9F 0A          STX    <$0A
E7E1: 96 39          LDA    <$39
E7E3: B7 94 02       STA    $9402
E7E6: 35 02          PULS   A
E7E8: 20 04          BRA    $E7EE
E7EA: 0A 18          DEC    <$18
E7EC: 2A 8E          BPL    $E77C
E7EE: 96 2E          LDA    <$2E
E7F0: 84 FC          ANDA   #$FC
E7F2: BA 80 22       ORA    $8022
E7F5: 97 2E          STA    <$2E
E7F7: B7 88 00       STA    $8800
E7FA: BD DC DB       JSR    $DCDB
E7FD: DC 26          LDD    <$26
E7FF: 27 05          BEQ    $E806
E801: 83 00 01       SUBD   #$0001
E804: DD 26          STD    <$26
E806: 96 2E          LDA    <$2E
E808: 84 FB          ANDA   #$FB
E80A: 9A 34          ORA    <$34
E80C: B7 88 01       STA    $8801
E80F: 35 76          PULS   D,X,Y,U
E811: 3B             RTI
E812: FF FF FF       STU    $FFFF
E815: FF FF FF       STU    $FFFF
E818: FF FF FF       STU    $FFFF
E81B: FF FF FF       STU    $FFFF
E81E: FF FF FF       STU    $FFFF
E821: FF FF FF       STU    $FFFF
E824: FF FF FF       STU    $FFFF
E827: FF FF FF       STU    $FFFF
E82A: FF FF FF       STU    $FFFF
E82D: FF FF FF       STU    $FFFF
E830: FF FF FF       STU    $FFFF
E833: FF FF FF       STU    $FFFF
E836: FF FF FF       STU    $FFFF
E839: FF FF FF       STU    $FFFF
E83C: FF FF FF       STU    $FFFF
E83F: FF FF FF       STU    $FFFF
E842: FF FF FF       STU    $FFFF
E845: FF FF FF       STU    $FFFF
E848: FF FF FF       STU    $FFFF
E84B: FF FF FF       STU    $FFFF
E84E: FF FF FF       STU    $FFFF
E851: FF FF FF       STU    $FFFF
E854: FF FF FF       STU    $FFFF
E857: FF FF FF       STU    $FFFF
E85A: FF FF FF       STU    $FFFF
E85D: FF FF FF       STU    $FFFF
E860: FF FF FF       STU    $FFFF
E863: FF FF FF       STU    $FFFF
E866: FF FF FF       STU    $FFFF
E869: FF FF FF       STU    $FFFF
E86C: FF FF FF       STU    $FFFF
E86F: FF FF FF       STU    $FFFF
E872: FF FF FF       STU    $FFFF
E875: FF FF FF       STU    $FFFF
E878: FF FF FF       STU    $FFFF
E87B: FF FF FF       STU    $FFFF
E87E: FF FF FF       STU    $FFFF
E881: FF FF FF       STU    $FFFF
E884: FF FF FF       STU    $FFFF
E887: FF FF FF       STU    $FFFF
E88A: FF FF FF       STU    $FFFF
E88D: FF FF FF       STU    $FFFF
E890: FF FF FF       STU    $FFFF
E893: FF FF FF       STU    $FFFF
E896: FF FF FF       STU    $FFFF
E899: FF FF FF       STU    $FFFF
E89C: FF FF FF       STU    $FFFF
E89F: FF FF FF       STU    $FFFF
E8A2: FF FF FF       STU    $FFFF
E8A5: FF FF FF       STU    $FFFF
E8A8: FF FF FF       STU    $FFFF
E8AB: FF FF FF       STU    $FFFF
E8AE: FF FF FF       STU    $FFFF
E8B1: FF FF FF       STU    $FFFF
E8B4: FF FF FF       STU    $FFFF
E8B7: FF FF FF       STU    $FFFF
E8BA: FF FF FF       STU    $FFFF
E8BD: FF FF FF       STU    $FFFF
E8C0: FF FF FF       STU    $FFFF
E8C3: FF FF FF       STU    $FFFF
E8C6: FF FF FF       STU    $FFFF
E8C9: FF FF FF       STU    $FFFF
E8CC: FF FF FF       STU    $FFFF
E8CF: FF FF FF       STU    $FFFF
E8D2: FF FF FF       STU    $FFFF
E8D5: FF FF FF       STU    $FFFF
E8D8: FF FF FF       STU    $FFFF
E8DB: FF FF FF       STU    $FFFF
E8DE: FF FF FF       STU    $FFFF
E8E1: FF FF FF       STU    $FFFF
E8E4: FF FF FF       STU    $FFFF
E8E7: FF FF FF       STU    $FFFF
E8EA: FF FF FF       STU    $FFFF
E8ED: FF FF FF       STU    $FFFF
E8F0: FF FF FF       STU    $FFFF
E8F3: FF FF FF       STU    $FFFF
E8F6: FF FF FF       STU    $FFFF
E8F9: FF FF FF       STU    $FFFF
E8FC: FF FF FF       STU    $FFFF
E8FF: FF FF FF       STU    $FFFF
E902: FF FF FF       STU    $FFFF
E905: FF FF FF       STU    $FFFF
E908: FF FF FF       STU    $FFFF
E90B: FF FF FF       STU    $FFFF
E90E: FF FF FF       STU    $FFFF
E911: FF FF FF       STU    $FFFF
E914: FF FF FF       STU    $FFFF
E917: FF FF FF       STU    $FFFF
E91A: FF FF FF       STU    $FFFF
E91D: FF FF FF       STU    $FFFF
E920: FF FF FF       STU    $FFFF
E923: FF FF FF       STU    $FFFF
E926: FF FF FF       STU    $FFFF
E929: FF FF FF       STU    $FFFF
E92C: FF FF FF       STU    $FFFF
E92F: FF FF FF       STU    $FFFF
E932: FF FF FF       STU    $FFFF
E935: FF FF FF       STU    $FFFF
E938: FF FF FF       STU    $FFFF
E93B: FF FF FF       STU    $FFFF
E93E: FF FF FF       STU    $FFFF
E941: FF FF FF       STU    $FFFF
E944: FF FF FF       STU    $FFFF
E947: FF FF FF       STU    $FFFF
E94A: FF FF FF       STU    $FFFF
E94D: FF FF FF       STU    $FFFF
E950: FF FF FF       STU    $FFFF
E953: FF FF FF       STU    $FFFF
E956: FF FF FF       STU    $FFFF
E959: FF FF FF       STU    $FFFF
E95C: FF FF FF       STU    $FFFF
E95F: FF FF FF       STU    $FFFF
E962: FF FF FF       STU    $FFFF
E965: FF FF FF       STU    $FFFF
E968: FF FF FF       STU    $FFFF
E96B: FF FF FF       STU    $FFFF
E96E: FF FF FF       STU    $FFFF
E971: FF FF FF       STU    $FFFF
E974: FF FF FF       STU    $FFFF
E977: FF FF FF       STU    $FFFF
E97A: FF FF FF       STU    $FFFF
E97D: FF FF FF       STU    $FFFF
E980: FF FF FF       STU    $FFFF
E983: FF FF FF       STU    $FFFF
E986: FF FF FF       STU    $FFFF
E989: FF FF FF       STU    $FFFF
E98C: FF FF FF       STU    $FFFF
E98F: FF FF FF       STU    $FFFF
E992: FF FF FF       STU    $FFFF
E995: FF FF FF       STU    $FFFF
E998: FF FF FF       STU    $FFFF
E99B: FF FF FF       STU    $FFFF
E99E: FF FF FF       STU    $FFFF
E9A1: FF FF FF       STU    $FFFF
E9A4: FF FF FF       STU    $FFFF
E9A7: FF FF FF       STU    $FFFF
E9AA: FF FF FF       STU    $FFFF
E9AD: FF FF FF       STU    $FFFF
E9B0: FF FF FF       STU    $FFFF
E9B3: FF FF FF       STU    $FFFF
E9B6: FF FF FF       STU    $FFFF
E9B9: FF FF FF       STU    $FFFF
E9BC: FF FF FF       STU    $FFFF
E9BF: FF FF FF       STU    $FFFF
E9C2: FF FF FF       STU    $FFFF
E9C5: FF FF FF       STU    $FFFF
E9C8: FF FF FF       STU    $FFFF
E9CB: FF FF FF       STU    $FFFF
E9CE: FF FF FF       STU    $FFFF
E9D1: FF FF FF       STU    $FFFF
E9D4: FF FF FF       STU    $FFFF
E9D7: FF FF FF       STU    $FFFF
E9DA: FF FF FF       STU    $FFFF
E9DD: FF FF FF       STU    $FFFF
E9E0: FF FF FF       STU    $FFFF
E9E3: FF FF FF       STU    $FFFF
E9E6: FF FF FF       STU    $FFFF
E9E9: FF FF FF       STU    $FFFF
E9EC: FF FF FF       STU    $FFFF
E9EF: FF FF FF       STU    $FFFF
E9F2: FF FF FF       STU    $FFFF
E9F5: FF FF FF       STU    $FFFF
E9F8: FF FF FF       STU    $FFFF
E9FB: FF FF FF       STU    $FFFF
E9FE: FF FF FF       STU    $FFFF
EA01: FF FF FF       STU    $FFFF
EA04: FF FF FF       STU    $FFFF
EA07: FF FF FF       STU    $FFFF
EA0A: FF FF FF       STU    $FFFF
EA0D: FF FF FF       STU    $FFFF
EA10: FF FF FF       STU    $FFFF
EA13: FF FF FF       STU    $FFFF
EA16: FF FF FF       STU    $FFFF
EA19: FF FF FF       STU    $FFFF
EA1C: FF FF FF       STU    $FFFF
EA1F: FF FF FF       STU    $FFFF
EA22: FF FF FF       STU    $FFFF
EA25: FF FF FF       STU    $FFFF
EA28: FF FF FF       STU    $FFFF
EA2B: FF FF FF       STU    $FFFF
EA2E: FF FF FF       STU    $FFFF
EA31: FF FF FF       STU    $FFFF
EA34: FF FF FF       STU    $FFFF
EA37: FF FF FF       STU    $FFFF
EA3A: FF FF FF       STU    $FFFF
EA3D: FF FF FF       STU    $FFFF
EA40: FF FF FF       STU    $FFFF
EA43: FF FF FF       STU    $FFFF
EA46: FF FF FF       STU    $FFFF
EA49: FF FF FF       STU    $FFFF
EA4C: FF FF FF       STU    $FFFF
EA4F: FF FF FF       STU    $FFFF
EA52: FF FF FF       STU    $FFFF
EA55: FF FF FF       STU    $FFFF
EA58: FF FF FF       STU    $FFFF
EA5B: FF FF FF       STU    $FFFF
EA5E: FF FF FF       STU    $FFFF
EA61: FF FF FF       STU    $FFFF
EA64: FF FF FF       STU    $FFFF
EA67: FF FF FF       STU    $FFFF
EA6A: FF FF FF       STU    $FFFF
EA6D: FF FF FF       STU    $FFFF
EA70: FF FF FF       STU    $FFFF
EA73: FF FF FF       STU    $FFFF
EA76: FF FF FF       STU    $FFFF
EA79: FF FF FF       STU    $FFFF
EA7C: FF FF FF       STU    $FFFF
EA7F: FF FF FF       STU    $FFFF
EA82: FF FF FF       STU    $FFFF
EA85: FF FF FF       STU    $FFFF
EA88: FF FF FF       STU    $FFFF
EA8B: FF FF FF       STU    $FFFF
EA8E: FF FF FF       STU    $FFFF
EA91: FF FF FF       STU    $FFFF
EA94: FF FF FF       STU    $FFFF
EA97: FF FF FF       STU    $FFFF
EA9A: FF FF FF       STU    $FFFF
EA9D: FF FF FF       STU    $FFFF
EAA0: FF FF FF       STU    $FFFF
EAA3: FF FF FF       STU    $FFFF
EAA6: FF FF FF       STU    $FFFF
EAA9: FF FF FF       STU    $FFFF
EAAC: FF FF FF       STU    $FFFF
EAAF: FF FF FF       STU    $FFFF
EAB2: FF FF FF       STU    $FFFF
EAB5: FF FF FF       STU    $FFFF
EAB8: FF FF FF       STU    $FFFF
EABB: FF FF FF       STU    $FFFF
EABE: FF FF FF       STU    $FFFF
EAC1: FF FF FF       STU    $FFFF
EAC4: FF FF FF       STU    $FFFF
EAC7: FF FF FF       STU    $FFFF
EACA: FF FF FF       STU    $FFFF
EACD: FF FF FF       STU    $FFFF
EAD0: FF FF FF       STU    $FFFF
EAD3: FF FF FF       STU    $FFFF
EAD6: FF FF FF       STU    $FFFF
EAD9: FF FF FF       STU    $FFFF
EADC: FF FF FF       STU    $FFFF
EADF: FF FF FF       STU    $FFFF
EAE2: FF FF FF       STU    $FFFF
EAE5: FF FF FF       STU    $FFFF
EAE8: FF FF FF       STU    $FFFF
EAEB: FF FF FF       STU    $FFFF
EAEE: FF FF FF       STU    $FFFF
EAF1: FF FF FF       STU    $FFFF
EAF4: FF FF FF       STU    $FFFF
EAF7: FF FF FF       STU    $FFFF
EAFA: FF FF FF       STU    $FFFF
EAFD: FF FF FF       STU    $FFFF
EB00: FF FF FF       STU    $FFFF
EB03: FF FF FF       STU    $FFFF
EB06: FF FF FF       STU    $FFFF
EB09: FF FF FF       STU    $FFFF
EB0C: FF FF FF       STU    $FFFF
EB0F: FF FF FF       STU    $FFFF
EB12: FF FF FF       STU    $FFFF
EB15: FF FF FF       STU    $FFFF
EB18: FF FF FF       STU    $FFFF
EB1B: FF FF FF       STU    $FFFF
EB1E: FF FF FF       STU    $FFFF
EB21: FF FF FF       STU    $FFFF
EB24: FF FF FF       STU    $FFFF
EB27: FF FF FF       STU    $FFFF
EB2A: FF FF FF       STU    $FFFF
EB2D: FF FF FF       STU    $FFFF
EB30: FF FF FF       STU    $FFFF
EB33: FF FF FF       STU    $FFFF
EB36: FF FF FF       STU    $FFFF
EB39: FF FF FF       STU    $FFFF
EB3C: FF FF FF       STU    $FFFF
EB3F: FF FF FF       STU    $FFFF
EB42: FF FF FF       STU    $FFFF
EB45: FF FF FF       STU    $FFFF
EB48: FF FF FF       STU    $FFFF
EB4B: FF FF FF       STU    $FFFF
EB4E: FF FF FF       STU    $FFFF
EB51: FF FF FF       STU    $FFFF
EB54: FF FF FF       STU    $FFFF
EB57: FF FF FF       STU    $FFFF
EB5A: FF FF FF       STU    $FFFF
EB5D: FF FF FF       STU    $FFFF
EB60: FF FF FF       STU    $FFFF
EB63: FF FF FF       STU    $FFFF
EB66: FF FF FF       STU    $FFFF
EB69: FF FF FF       STU    $FFFF
EB6C: FF FF FF       STU    $FFFF
EB6F: FF FF FF       STU    $FFFF
EB72: FF FF FF       STU    $FFFF
EB75: FF FF FF       STU    $FFFF
EB78: FF FF FF       STU    $FFFF
EB7B: FF FF FF       STU    $FFFF
EB7E: FF FF FF       STU    $FFFF
EB81: FF FF FF       STU    $FFFF
EB84: FF FF FF       STU    $FFFF
EB87: FF FF FF       STU    $FFFF
EB8A: FF FF FF       STU    $FFFF
EB8D: FF FF FF       STU    $FFFF
EB90: FF FF FF       STU    $FFFF
EB93: FF FF FF       STU    $FFFF
EB96: FF FF FF       STU    $FFFF
EB99: FF FF FF       STU    $FFFF
EB9C: FF FF FF       STU    $FFFF
EB9F: FF FF FF       STU    $FFFF
EBA2: FF FF FF       STU    $FFFF
EBA5: FF FF FF       STU    $FFFF
EBA8: FF FF FF       STU    $FFFF
EBAB: FF FF FF       STU    $FFFF
EBAE: FF FF FF       STU    $FFFF
EBB1: FF FF FF       STU    $FFFF
EBB4: FF FF FF       STU    $FFFF
EBB7: FF FF FF       STU    $FFFF
EBBA: FF FF FF       STU    $FFFF
EBBD: FF FF FF       STU    $FFFF
EBC0: FF FF FF       STU    $FFFF
EBC3: FF FF FF       STU    $FFFF
EBC6: FF FF FF       STU    $FFFF
EBC9: FF FF FF       STU    $FFFF
EBCC: FF FF FF       STU    $FFFF
EBCF: FF FF FF       STU    $FFFF
EBD2: FF FF FF       STU    $FFFF
EBD5: FF FF FF       STU    $FFFF
EBD8: FF FF FF       STU    $FFFF
EBDB: FF FF FF       STU    $FFFF
EBDE: FF FF FF       STU    $FFFF
EBE1: FF FF FF       STU    $FFFF
EBE4: FF FF FF       STU    $FFFF
EBE7: FF FF FF       STU    $FFFF
EBEA: FF FF FF       STU    $FFFF
EBED: FF FF FF       STU    $FFFF
EBF0: FF FF FF       STU    $FFFF
EBF3: FF FF FF       STU    $FFFF
EBF6: FF FF FF       STU    $FFFF
EBF9: FF FF FF       STU    $FFFF
EBFC: FF FF FF       STU    $FFFF
EBFF: FF 48 C0       STU    $48C0
EC02: 4D             TSTA
EC03: 45             LSRA
EC04: 4D             TSTA
EC05: 4F             CLRA
EC06: 52             XNCB
EC07: 59             ROLB
EC08: 20 46          BRA    $EC50
EC0A: 41             NEGA
EC0B: 49             ROLA
EC0C: 4C             INCA
EC0D: 55             LSRB
EC0E: 52             XNCB
EC0F: 45             LSRA
EC10: 00 48          NEG    <$48
EC12: A0 4F          SUBA   $F,U
EC14: 50             NEGB
EC15: 45             LSRA
EC16: 4E             XCLRA
EC17: 20 43          BRA    $EC5C
EC19: 4F             CLRA
EC1A: 49             ROLA
EC1B: 4E             XCLRA
EC1C: 20 44          BRA    $EC62
EC1E: 4F             CLRA
EC1F: 4F             CLRA
EC20: 52             XNCB
EC21: 00 50          NEG    <$50
EC23: 90 50          SUBA   <$50
EC25: 4F             CLRA
EC26: 57             ASRB
EC27: 45             LSRA
EC28: 52             XNCB
EC29: 20 4F          BRA    $EC7A
EC2B: 46             RORA
EC2C: 46             RORA
EC2D: 2D 4F          BLT    $EC7E
EC2F: 4E             XCLRA
EC30: 00 28          NEG    <$28
EC32: 60 53          NEG    -$D,U
EC34: 45             LSRA
EC35: 52             XNCB
EC36: 56             RORB
EC37: 49             ROLA
EC38: 43             COMA
EC39: 45             LSRA
EC3A: 20 4D          BRA    $EC89
EC3C: 41             NEGA
EC3D: 59             ROLB
EC3E: 20 42          BRA    $EC82
EC40: 45             LSRA
EC41: 20 52          BRA    $EC95
EC43: 45             LSRA
EC44: 51             NEGB
EC45: 55             LSRB
EC46: 49             ROLA
EC47: 52             XNCB
EC48: 45             LSRA
EC49: 44             LSRA
EC4A: 00 00          NEG    <$00
EC4C: 00 58          NEG    <$58
EC4E: C0 53          SUBB   #$53
EC50: 57             ASRB
EC51: 49             ROLA
EC52: 54             LSRB
EC53: 43             COMA
EC54: 48             ASLA
EC55: 20 54          BRA    $ECAB
EC57: 45             LSRA
EC58: 53             COMB
EC59: 54             LSRB
EC5A: 00 50          NEG    <$50
EC5C: B0 4F 50       SUBA   $4F50
EC5F: 45             LSRA
EC60: 4E             XCLRA
EC61: 00 00          NEG    <$00
EC63: 00 88          NEG    <$88
EC65: B0 43 4C       SUBA   $434C
EC68: 4F             CLRA
EC69: 53             COMB
EC6A: 45             LSRA
EC6B: 44             LSRA
EC6C: 00 00          NEG    <$00
EC6E: 00 30          NEG    <$30
EC70: E8 4C          EORB   $C,U
EC72: 4F             CLRA
EC73: 43             COMA
EC74: 41             NEGA
EC75: 54             LSRB
EC76: 49             ROLA
EC77: 4F             CLRA
EC78: 4E             XCLRA
EC79: 20 50          BRA    $ECCB
EC7B: 52             XNCB
EC7C: 4F             CLRA
EC7D: 47             ASRA
EC7E: 52             XNCB
EC7F: 41             NEGA
EC80: 4D             TSTA
EC81: 4D             TSTA
EC82: 49             ROLA
EC83: 4E             XCLRA
EC84: 47             ASRA
EC85: 02 10          XNC    <$10
EC87: 16 52 45       LBRA   $3ECF
EC8A: 53             COMB
EC8B: 45             LSRA
EC8C: 54             LSRB
EC8D: 20 54          BRA    $ECE3
EC8F: 4F             CLRA
EC90: 20 46          BRA    $ECD8
EC92: 41             NEGA
EC93: 43             COMA
EC94: 54             LSRB
EC95: 4F             CLRA
EC96: 52             XNCB
EC97: 59             ROLB
EC98: 20 2D          BRA    $ECC7
EC9A: 20 50          BRA    $ECEC
EC9C: 52             XNCB
EC9D: 45             LSRA
EC9E: 53             COMB
EC9F: 53             COMB
ECA0: 20 55          BRA    $ECF7
ECA2: 50             NEGB
ECA3: 02 10          XNC    <$10
ECA5: CA 48          ORB    #$48
ECA7: 49             ROLA
ECA8: 20 53          BRA    $ECFD
ECAA: 43             COMA
ECAB: 4F             CLRA
ECAC: 52             XNCB
ECAD: 45             LSRA
ECAE: 20 44          BRA    $ECF4
ECB0: 55             LSRB
ECB1: 52             XNCB
ECB2: 41             NEGA
ECB3: 54             LSRB
ECB4: 49             ROLA
ECB5: 4F             CLRA
ECB6: 4E             XCLRA
ECB7: 20 28          BRA    $ECE1
ECB9: 48             ASLA
ECBA: 4F             CLRA
ECBB: 55             LSRB
ECBC: 52             XNCB
ECBD: 53             COMB
ECBE: 29 02          BVS    $ECC2
ECC0: 10 C0 4D       SUBB   #$4D
ECC3: 41             NEGA
ECC4: 58             ASLB
ECC5: 49             ROLA
ECC6: 4D             TSTA
ECC7: 55             LSRB
ECC8: 4D             TSTA
ECC9: 20 43          BRA    $ED0E
ECCB: 52             XNCB
ECCC: 45             LSRA
ECCD: 44             LSRA
ECCE: 49             ROLA
ECCF: 54             LSRB
ECD0: 53             COMB
ECD1: 20 28          BRA    $ECFB
ECD3: 30 3D          LEAX   -$3,Y
ECD5: 46             RORA
ECD6: 52             XNCB
ECD7: 45             LSRA
ECD8: 45             LSRA
ECD9: 29 02          BVS    $ECDD
ECDB: 10 B6 49 4E    LDA    $494E
ECDF: 49             ROLA
ECE0: 54             LSRB
ECE1: 49             ROLA
ECE2: 41             NEGA
ECE3: 4C             INCA
ECE4: 20 4E          BRA    $ED34
ECE6: 55             LSRB
ECE7: 4D             TSTA
ECE8: 42             XNCA
ECE9: 45             LSRA
ECEA: 52             XNCB
ECEB: 20 4F          BRA    $ED3C
ECED: 46             RORA
ECEE: 20 4B          BRA    $ED3B
ECF0: 45             LSRA
ECF1: 45             LSRA
ECF2: 50             NEGB
ECF3: 45             LSRA
ECF4: 52             XNCB
ECF5: 53             COMB
ECF6: 02 10          XNC    <$10
ECF8: AC 48          CMPX   $8,U
ECFA: 49             ROLA
ECFB: 20 53          BRA    $ED50
ECFD: 43             COMA
ECFE: 4F             CLRA
ECFF: 52             XNCB
ED00: 45             LSRA
ED01: 20 45          BRA    $ED48
ED03: 4E             XCLRA
ED04: 41             NEGA
ED05: 42             XNCA
ED06: 4C             INCA
ED07: 45             LSRA
ED08: 02 10          XNC    <$10
ED0A: A2 41          SBCA   $1,U
ED0C: 54             LSRB
ED0D: 54             LSRB
ED0E: 52             XNCB
ED0F: 41             NEGA
ED10: 43             COMA
ED11: 54             LSRB
ED12: 20 4D          BRA    $ED61
ED14: 4F             CLRA
ED15: 44             LSRA
ED16: 45             LSRA
ED17: 20 53          BRA    $ED6C
ED19: 4F             CLRA
ED1A: 55             LSRB
ED1B: 4E             XCLRA
ED1C: 44             LSRA
ED1D: 02 10          XNC    <$10
ED1F: 98 43          EORA   <$43
ED21: 4F             CLRA
ED22: 43             COMA
ED23: 4B             XDECA
ED24: 54             LSRB
ED25: 41             NEGA
ED26: 49             ROLA
ED27: 4C             INCA
ED28: 20 54          BRA    $ED7E
ED2A: 41             NEGA
ED2B: 42             XNCA
ED2C: 4C             INCA
ED2D: 45             LSRA
ED2E: 20 4D          BRA    $ED7D
ED30: 4F             CLRA
ED31: 44             LSRA
ED32: 45             LSRA
ED33: 02 10          XNC    <$10
ED35: 8E 4E 4F       LDX    #$4E4F
ED38: 56             RORB
ED39: 49             ROLA
ED3A: 43             COMA
ED3B: 45             LSRA
ED3C: 20 41          BRA    $ED7F
ED3E: 4E             XCLRA
ED3F: 49             ROLA
ED40: 4D             TSTA
ED41: 41             NEGA
ED42: 4C             INCA
ED43: 20 53          BRA    $ED98
ED45: 50             NEGB
ED46: 45             LSRA
ED47: 45             LSRA
ED48: 44             LSRA
ED49: 02 10          XNC    <$10
ED4B: 84 45          ANDA   #$45
ED4D: 58             ASLB
ED4E: 50             NEGB
ED4F: 45             LSRA
ED50: 52             XNCB
ED51: 54             LSRB
ED52: 20 41          BRA    $ED95
ED54: 4E             XCLRA
ED55: 49             ROLA
ED56: 4D             TSTA
ED57: 41             NEGA
ED58: 4C             INCA
ED59: 20 53          BRA    $EDAE
ED5B: 50             NEGB
ED5C: 45             LSRA
ED5D: 45             LSRA
ED5E: 44             LSRA
ED5F: 02 10          XNC    <$10
ED61: 7A 4E 4F       DEC    $4E4F
ED64: 20 48          BRA    $EDAE
ED66: 49             ROLA
ED67: 54             LSRB
ED68: 20 4D          BRA    $EDB7
ED6A: 4F             CLRA
ED6B: 44             LSRA
ED6C: 45             LSRA
ED6D: 02 10          XNC    <$10
ED6F: 70 46 52       NEG    $4652
ED72: 45             LSRA
ED73: 45             LSRA
ED74: 20 47          BRA    $EDBD
ED76: 41             NEGA
ED77: 4D             TSTA
ED78: 45             LSRA
ED79: 20 52          BRA    $EDCD
ED7B: 41             NEGA
ED7C: 54             LSRB
ED7D: 45             LSRA
ED7E: 02 10          XNC    <$10
ED80: 66 02          ROR    $2,X
ED82: 10 5C          INCB
ED84: 00 10          NEG    <$10
ED86: 52             XNCB
ED87: E9 E5          ADCB   B,S
ED89: FA F3 F8       ORB    $F3F8
ED8C: E3 ED E2 FE    ADDD   $D08E,PCR
ED90: 8A 9B          ORA    #$9B
ED92: 93 92          SUBD   <$92
ED94: 98 02          EORA   <$02
ED96: 10 48          ASLA
ED98: E8 F3          EORB   [,--S]
ED9A: 8A FE          ORA    #$FE
ED9C: EB E3          ADDB   ,--S
ED9E: FE E5 8A       LDU    $E58A
EDA1: EB E7          ADDB   E,S
EDA3: EF F8 E3       STU    [-$1D,S]
EDA6: E9 EB          ADCB   D,S
EDA8: 8A E9          ORA    #$E9
EDAA: E5 F8 FA       BITB   [-$06,S]
EDAD: 84 02          ANDA   #$02
EDAF: 00 00          NEG    <$00
EDB1: 58             ASLB
EDB2: E8 48          EORB   $8,U
EDB4: 49             ROLA
EDB5: 47             ASRA
EDB6: 48             ASLA
EDB7: 20 53          BRA    $EE0C
EDB9: 43             COMA
EDBA: 4F             CLRA
EDBB: 52             XNCB
EDBC: 45             LSRA
EDBD: 53             COMB
EDBE: 00 68          NEG    <$68
EDC0: DE 54          LDU    <$54
EDC2: 4F             CLRA
EDC3: 20 44          BRA    $EE09
EDC5: 41             NEGA
EDC6: 54             LSRB
EDC7: 45             LSRA
EDC8: 00 48          NEG    <$48
EDCA: B6 53 43       LDA    $5343
EDCD: 4F             CLRA
EDCE: 52             XNCB
EDCF: 45             LSRA
EDD0: 53             COMB
EDD1: 20 20          BRA    $EDF3
EDD3: 49             ROLA
EDD4: 4E             XCLRA
EDD5: 49             ROLA
EDD6: 54             LSRB
EDD7: 49             ROLA
EDD8: 41             NEGA
EDD9: 4C             INCA
EDDA: 53             COMB
EDDB: 01 10          NEG    <$10
EDDD: 16 52 45       LBRA   $4025
EDE0: 53             COMB
EDE1: 45             LSRA
EDE2: 54             LSRB
EDE3: 20 54          BRA    $EE39
EDE5: 4F             CLRA
EDE6: 20 44          BRA    $EE2C
EDE8: 45             LSRA
EDE9: 46             RORA
EDEA: 41             NEGA
EDEB: 55             LSRB
EDEC: 4C             INCA
EDED: 54             LSRB
EDEE: 20 2D          BRA    $EE1D
EDF0: 20 50          BRA    $EE42
EDF2: 52             XNCB
EDF3: 45             LSRA
EDF4: 53             COMB
EDF5: 53             COMB
EDF6: 20 55          BRA    $EE4D
EDF8: 50             NEGB
EDF9: 00 00          NEG    <$00
EDFB: 00 50          NEG    <$50
EDFD: E8 41          EORB   $1,U
EDFF: 55             LSRB
EE00: 44             LSRA
EE01: 49             ROLA
EE02: 54             LSRB
EE03: 20 54          BRA    $EE59
EE05: 4F             CLRA
EE06: 54             LSRB
EE07: 41             NEGA
EE08: 4C             INCA
EE09: 53             COMB
EE0A: 40             NEGA
EE0B: 40             NEGA
EE0C: 40             NEGA
EE0D: 40             NEGA
EE0E: 20 54          BRA    $EE64
EE10: 4F             CLRA
EE11: 54             LSRB
EE12: 41             NEGA
EE13: 4C             INCA
EE14: 20 50          BRA    $EE66
EE16: 41             NEGA
EE17: 49             ROLA
EE18: 44             LSRA
EE19: 20 43          BRA    $EE5E
EE1B: 52             XNCB
EE1C: 45             LSRA
EE1D: 44             LSRA
EE1E: 49             ROLA
EE1F: 54             LSRB
EE20: 53             COMB
EE21: 40             NEGA
EE22: 20 4C          BRA    $EE70
EE24: 45             LSRA
EE25: 46             RORA
EE26: 54             LSRB
EE27: 20 43          BRA    $EE6C
EE29: 4F             CLRA
EE2A: 49             ROLA
EE2B: 4E             XCLRA
EE2C: 53             COMB
EE2D: 40             NEGA
EE2E: 20 43          BRA    $EE73
EE30: 45             LSRA
EE31: 4E             XCLRA
EE32: 54             LSRB
EE33: 45             LSRA
EE34: 52             XNCB
EE35: 20 43          BRA    $EE7A
EE37: 4F             CLRA
EE38: 49             ROLA
EE39: 4E             XCLRA
EE3A: 53             COMB
EE3B: 40             NEGA
EE3C: 20 52          BRA    $EE90
EE3E: 49             ROLA
EE3F: 47             ASRA
EE40: 48             ASLA
EE41: 54             LSRB
EE42: 20 43          BRA    $EE87
EE44: 4F             CLRA
EE45: 49             ROLA
EE46: 4E             XCLRA
EE47: 53             COMB
EE48: 40             NEGA
EE49: 20 50          BRA    $EE9B
EE4B: 41             NEGA
EE4C: 49             ROLA
EE4D: 44             LSRA
EE4E: 20 43          BRA    $EE93
EE50: 52             XNCB
EE51: 45             LSRA
EE52: 44             LSRA
EE53: 49             ROLA
EE54: 54             LSRB
EE55: 53             COMB
EE56: 40             NEGA
EE57: 20 41          BRA    $EE9A
EE59: 57             ASRB
EE5A: 41             NEGA
EE5B: 52             XNCB
EE5C: 44             LSRA
EE5D: 45             LSRA
EE5E: 44             LSRA
EE5F: 20 43          BRA    $EEA4
EE61: 52             XNCB
EE62: 45             LSRA
EE63: 44             LSRA
EE64: 49             ROLA
EE65: 54             LSRB
EE66: 53             COMB
EE67: 40             NEGA
EE68: 20 25          BRA    $EE8F
EE6A: 20 46          BRA    $EEB2
EE6C: 52             XNCB
EE6D: 45             LSRA
EE6E: 45             LSRA
EE6F: 20 50          BRA    $EEC1
EE71: 4C             INCA
EE72: 41             NEGA
EE73: 59             ROLB
EE74: 53             COMB
EE75: 40             NEGA
EE76: 20 4D          BRA    $EEC5
EE78: 49             ROLA
EE79: 4E             XCLRA
EE7A: 55             LSRB
EE7B: 54             LSRB
EE7C: 45             LSRA
EE7D: 53             COMB
EE7E: 20 50          BRA    $EED0
EE80: 4C             INCA
EE81: 41             NEGA
EE82: 59             ROLB
EE83: 45             LSRA
EE84: 44             LSRA
EE85: 40             NEGA
EE86: 20 4D          BRA    $EED5
EE88: 49             ROLA
EE89: 4E             XCLRA
EE8A: 55             LSRB
EE8B: 54             LSRB
EE8C: 45             LSRA
EE8D: 53             COMB
EE8E: 20 20          BRA    $EEB0
EE90: 41             NEGA
EE91: 57             ASRB
EE92: 41             NEGA
EE93: 52             XNCB
EE94: 44             LSRA
EE95: 45             LSRA
EE96: 44             LSRA
EE97: 40             NEGA
EE98: 20 25          BRA    $EEBF
EE9A: 20 46          BRA    $EEE2
EE9C: 52             XNCB
EE9D: 45             LSRA
EE9E: 45             LSRA
EE9F: 20 54          BRA    $EEF5
EEA1: 49             ROLA
EEA2: 4D             TSTA
EEA3: 45             LSRA
EEA4: 40             NEGA
EEA5: 20 41          BRA    $EEE8
EEA7: 56             RORB
EEA8: 47             ASRA
EEA9: 2E 20          BGT    $EECB
EEAB: 47             ASRA
EEAC: 41             NEGA
EEAD: 4D             TSTA
EEAE: 45             LSRA
EEAF: 20 28          BRA    $EED9
EEB1: 53             COMB
EEB2: 45             LSRA
EEB3: 43             COMA
EEB4: 29 40          BVS    $EEF6
EEB6: 20 48          BRA    $EF00
EEB8: 49             ROLA
EEB9: 47             ASRA
EEBA: 48             ASLA
EEBB: 20 53          BRA    $EF10
EEBD: 43             COMA
EEBE: 4F             CLRA
EEBF: 52             XNCB
EEC0: 45             LSRA
EEC1: 53             COMB
EEC2: 01 10          NEG    <$10
EEC4: 16 5A 45       LBRA   $490C
EEC7: 52             XNCB
EEC8: 4F             CLRA
EEC9: 20 41          BRA    $EF0C
EECB: 55             LSRB
EECC: 44             LSRA
EECD: 49             ROLA
EECE: 54             LSRB
EECF: 53             COMB
EED0: 20 2D          BRA    $EEFF
EED2: 20 50          BRA    $EF24
EED4: 52             XNCB
EED5: 45             LSRA
EED6: 53             COMB
EED7: 53             COMB
EED8: 20 55          BRA    $EF2F
EEDA: 50             NEGB
EEDB: 00 00          NEG    <$00
EEDD: 00 30          NEG    <$30
EEDF: E8 43          EORB   $3,U
EEE1: 4F             CLRA
EEE2: 49             ROLA
EEE3: 4E             XCLRA
EEE4: 20 53          BRA    $EF39
EEE6: 4C             INCA
EEE7: 4F             CLRA
EEE8: 54             LSRB
EEE9: 20 50          BRA    $EF3B
EEEB: 52             XNCB
EEEC: 4F             CLRA
EEED: 47             ASRA
EEEE: 52             XNCB
EEEF: 41             NEGA
EEF0: 4D             TSTA
EEF1: 4D             TSTA
EEF2: 49             ROLA
EEF3: 4E             XCLRA
EEF4: 47             ASRA
EEF5: 00 20          NEG    <$20
EEF7: D4 53          ANDB   <$53
EEF9: 54             LSRB
EEFA: 41             NEGA
EEFB: 4E             XCLRA
EEFC: 44             LSRA
EEFD: 41             NEGA
EEFE: 52             XNCB
EEFF: 44             LSRA
EF00: 20 43          BRA    $EF45
EF02: 4F             CLRA
EF03: 49             ROLA
EF04: 4E             XCLRA
EF05: 41             NEGA
EF06: 47             ASRA
EF07: 45             LSRA
EF08: 20 53          BRA    $EF5D
EF0A: 45             LSRA
EF0B: 54             LSRB
EF0C: 54             LSRB
EF0D: 49             ROLA
EF0E: 4E             XCLRA
EF0F: 47             ASRA
EF10: 00 40          NEG    <$40
EF12: A2 43          SBCA   $3,U
EF14: 4F             CLRA
EF15: 49             ROLA
EF16: 4E             XCLRA
EF17: 20 4D          BRA    $EF66
EF19: 55             LSRB
EF1A: 4C             INCA
EF1B: 54             LSRB
EF1C: 49             ROLA
EF1D: 50             NEGB
EF1E: 4C             INCA
EF1F: 49             ROLA
EF20: 45             LSRA
EF21: 52             XNCB
EF22: 53             COMB
EF23: 00 40          NEG    <$40
EF25: 66 43          ROR    $3,U
EF27: 4F             CLRA
EF28: 49             ROLA
EF29: 4E             XCLRA
EF2A: 20 55          BRA    $EF81
EF2C: 4E             XCLRA
EF2D: 49             ROLA
EF2E: 54             LSRB
EF2F: 53             COMB
EF30: 20 46          BRA    $EF78
EF32: 4F             CLRA
EF33: 52             XNCB
EF34: 01 08          NEG    <$08
EF36: 8E 02 2C       LDX    #$022C
EF39: 8E 4C 45       LDX    #$4C45
EF3C: 46             RORA
EF3D: 54             LSRB
EF3E: 02 70          XNC    <$70
EF40: 8E 43 45       LDX    #$4345
EF43: 4E             XCLRA
EF44: 54             LSRB
EF45: 45             LSRA
EF46: 52             XNCB
EF47: 02 B8          XNC    <$B8
EF49: 8E 52 49       LDX    #$5249
EF4C: 47             ASRA
EF4D: 48             ASLA
EF4E: 54             LSRB
EF4F: 02 30          XNC    <$30
EF51: 52             XNCB
EF52: 43             COMA
EF53: 52             XNCB
EF54: 45             LSRA
EF55: 44             LSRA
EF56: 49             ROLA
EF57: 54             LSRB
EF58: 02 90          XNC    <$90
EF5A: 52             XNCB
EF5B: 42             XNCA
EF5C: 4F             CLRA
EF5D: 4E             XCLRA
EF5E: 55             LSRB
EF5F: 53             COMB
EF60: 02 48          XNC    <$48
EF62: 34 4D          PSHS   U,DP,B,CC
EF64: 49             ROLA
EF65: 4E             XCLRA
EF66: 49             ROLA
EF67: 4D             TSTA
EF68: 55             LSRB
EF69: 4D             TSTA
EF6A: 20 43          BRA    $EFAF
EF6C: 4F             CLRA
EF6D: 49             ROLA
EF6E: 4E             XCLRA
EF6F: 53             COMB
EF70: 00 00          NEG    <$00
EF72: 00 70          NEG    <$70
EF74: A0 4F          SUBA   $F,U
EF76: 50             NEGB
EF77: 45             LSRA
EF78: 4E             XCLRA
EF79: 00 58          NEG    <$58
EF7B: 80 43          SUBA   #$43
EF7D: 4F             CLRA
EF7E: 49             ROLA
EF7F: 4E             XCLRA
EF80: 20 44          BRA    $EFC6
EF82: 4F             CLRA
EF83: 4F             CLRA
EF84: 52             XNCB
EF85: 00 60          NEG    <$60
EF87: 60 54          NEG    -$C,U
EF89: 4F             CLRA
EF8A: 20 54          BRA    $EFE0
EF8C: 45             LSRA
EF8D: 53             COMB
EF8E: 54             LSRB
EF8F: 00 00          NEG    <$00
EF91: 00 54          NEG    <$54
EF93: E8 4C          EORB   $C,U
EF95: 4F             CLRA
EF96: 43             COMA
EF97: 41             NEGA
EF98: 54             LSRB
EF99: 49             ROLA
EF9A: 4F             CLRA
EF9B: 4E             XCLRA
EF9C: 20 4E          BRA    $EFEC
EF9E: 41             NEGA
EF9F: 4D             TSTA
EFA0: 45             LSRA
EFA1: 00 00          NEG    <$00
EFA3: 00 54          NEG    <$54
EFA5: 48             ASLA
EFA6: 49             ROLA
EFA7: 53             COMB
EFA8: 20 4C          BRA    $EFF6
EFAA: 4F             CLRA
EFAB: 43             COMA
EFAC: 41             NEGA
EFAD: 54             LSRB
EFAE: 49             ROLA
EFAF: 4F             CLRA
EFB0: 4E             XCLRA
EFB1: 20 20          BRA    $EFD3
EFB3: 20 20          BRA    $EFD5
EFB5: 20 20          BRA    $EFD7
EFB7: 20 C6          BRA    $EF7F
EFB9: 80 1E          SUBA   #$1E
EFBB: 9B F7          ADDA   <$F7
EFBD: 8C 00 F7       CMPX   #$00F7
EFC0: 83 F1 0F       SUBD   #$F10F
EFC3: 00 8E          NEG    <$8E
EFC5: EF D3          STU    [,--U]
EFC7: 96 00          LDA    <$00
EFC9: 27 FC          BEQ    $EFC7
EFCB: AD 96          JSR    [A,X]
EFCD: B7 8C 00       STA    $8C00
EFD0: 7F 83 F1       CLR    $83F1
EFD3: 20 ED          BRA    $EFC2
EFD5: F0 07 F0       SUBB   $07F0
EFD8: 8F F0 C3       XSTX   #$F0C3
EFDB: F1 0A F1       CMPB   $0AF1
EFDE: 2B F1          BMI    $EFD1
EFE0: 3D             MUL
EFE1: F1 FE F2       CMPB   $FEF2
EFE4: 04 F2          LSR    <$F2
EFE6: 26 F2          BNE    $EFDA
EFE8: 5F             CLRB
EFE9: F2 81 F2       SBCB   $81F2
EFEC: FF F4 BB       STU    $F4BB
EFEF: F4 D4 F4       ANDB   $D4F4
EFF2: F0 F4 F7       SUBB   $F4F7
EFF5: F5 F8 F5       BITB   $F8F5
EFF8: 05 F8          LSR    <$F8
EFFA: 93 F5          SUBD   <$F5
EFFC: 23 F5          BLS    $EFF3
EFFE: 3B             RTI
EFFF: F5 4C F5       BITB   $4CF5
F002: 57             ASRB
F003: F5 9A FB       BITB   $9AFB
F006: 8F 34 76       XSTX   #$3476
F009: DC 03          LDD    <$03
F00B: 1E 89          EXG    A,B
F00D: 43             COMA
F00E: DD 03          STD    <$03
F010: D6 01          LDB    <$01
F012: C1 24          CMPB   #$24
F014: 26 1C          BNE    $F032
F016: DE 03          LDU    <$03
F018: 33 C9 01 09    LEAU   $0109,U
F01C: FF 94 02       STU    $9402
F01F: D6 02          LDB    <$02
F021: F7 94 00       STB    $9400
F024: 33 C9 04 00    LEAU   $0400,U
F028: FF 94 02       STU    $9402
F02B: F7 94 00       STB    $9400
F02E: DC 03          LDD    <$03
F030: 20 49          BRA    $F07B
F032: C1 40          CMPB   #$40
F034: 26 06          BNE    $F03C
F036: DC 03          LDD    <$03
F038: C6 08          LDB    #$08
F03A: 20 3D          BRA    $F079
F03C: C0 20          SUBB   #$20
F03E: 58             ASLB
F03F: 58             ASLB
F040: 8E FE 00       LDX    #$FE00
F043: 3A             ABX
F044: 3A             ABX
F045: 86 07          LDA    #$07
F047: 34 02          PSHS   A
F049: DE 03          LDU    <$03
F04B: 10 8E 00 08    LDY    #$0008
F04F: A6 80          LDA    ,X+
F051: FF 94 02       STU    $9402
F054: 33 C9 01 00    LEAU   $0100,U
F058: 44             LSRA
F059: 25 05          BCS    $F060
F05B: 7F 94 00       CLR    $9400
F05E: 20 05          BRA    $F065
F060: D6 02          LDB    <$02
F062: F7 94 00       STB    $9400
F065: 31 3F          LEAY   -$1,Y
F067: 26 E8          BNE    $F051
F069: 6A E4          DEC    ,S
F06B: 27 04          BEQ    $F071
F06D: 0C 04          INC    <$04
F06F: 20 D8          BRA    $F049
F071: 32 61          LEAS   $1,S
F073: DC 03          LDD    <$03
F075: CB 02          ADDB   #$02
F077: 26 02          BNE    $F07B
F079: 8B 0A          ADDA   #$0A
F07B: 43             COMA
F07C: 1E 89          EXG    A,B
F07E: DD 03          STD    <$03
F080: 35 76          PULS   D,X,Y,U
F082: 39             RTS
F083: 8E 87 01       LDX    #$8701
F086: 4F             CLRA
F087: AB 80          ADDA   ,X+
F089: 8C 88 00       CMPX   #$8800
F08C: 26 F9          BNE    $F087
F08E: 39             RTS
F08F: 34 36          PSHS   Y,X,D
F091: 8E 87 D9       LDX    #$87D9
F094: 10 8E 83 D9    LDY    #$83D9
F098: A6 80          LDA    ,X+
F09A: A7 A0          STA    ,Y+
F09C: 8C 87 F1       CMPX   #$87F1
F09F: 23 F7          BLS    $F098
F0A1: 7D 83 F3       TST    $83F3
F0A4: 2A 1A          BPL    $F0C0
F0A6: 8E 86 60       LDX    #$8660
F0A9: 10 8E 83 34    LDY    #$8334
F0AD: EC 81          LDD    ,X++
F0AF: ED A1          STD    ,Y++
F0B1: 8C 87 00       CMPX   #$8700
F0B4: 26 F7          BNE    $F0AD
F0B6: 10 8E 86 48    LDY    #$8648
F0BA: CE 83 10       LDU    #$8310
F0BD: BD F4 15       JSR    $F415
F0C0: 35 36          PULS   D,X,Y
F0C2: 39             RTS
F0C3: B6 83 D9       LDA    $83D9
F0C6: 27 2E          BEQ    $F0F6
F0C8: B7 87 D9       STA    $87D9
F0CB: BD F8 72       JSR    $F872
F0CE: 5A             DECB
F0CF: 86 06          LDA    #$06
F0D1: 3D             MUL
F0D2: 8E 87 9D       LDX    #$879D
F0D5: 3A             ABX
F0D6: 10 8E 87 DA    LDY    #$87DA
F0DA: CE 83 DA       LDU    #$83DA
F0DD: EC 81          LDD    ,X++
F0DF: ED A1          STD    ,Y++
F0E1: ED C1          STD    ,U++
F0E3: EC 81          LDD    ,X++
F0E5: ED A1          STD    ,Y++
F0E7: ED C1          STD    ,U++
F0E9: EC 81          LDD    ,X++
F0EB: ED A1          STD    ,Y++
F0ED: ED C1          STD    ,U++
F0EF: BD F0 83       JSR    $F083
F0F2: B7 87 00       STA    $8700
F0F5: 39             RTS
F0F6: 8E 87 DA       LDX    #$87DA
F0F9: 10 8E 83 DA    LDY    #$83DA
F0FD: EC 81          LDD    ,X++
F0FF: ED A1          STD    ,Y++
F101: EC 81          LDD    ,X++
F103: ED A1          STD    ,Y++
F105: EC 81          LDD    ,X++
F107: ED A1          STD    ,Y++
F109: 39             RTS
F10A: 4F             CLRA
F10B: 5F             CLRB
F10C: 1F 01          TFR    D,X
F10E: CE 80 00       LDU    #$8000
F111: FF 94 02       STU    $9402
F114: 36 16          PSHU   X,D
F116: 11 83 00 00    CMPU   #$0000
F11A: 26 F8          BNE    $F114
F11C: FF 94 02       STU    $9402
F11F: CE 80 00       LDU    #$8000
F122: 36 16          PSHU   X,D
F124: 11 83 00 00    CMPU   #$0000
F128: 26 F8          BNE    $F122
F12A: 39             RTS
F12B: DC 01          LDD    <$01
F12D: 9E 03          LDX    <$03
F12F: BF 94 02       STX    $9402
F132: F7 94 00       STB    $9400
F135: 30 89 01 00    LEAX   $0100,X
F139: 4A             DECA
F13A: 26 F3          BNE    $F12F
F13C: 39             RTS
F13D: 8E F1 5E       LDX    #$F15E
F140: CE 86 60       LDU    #$8660
F143: A6 80          LDA    ,X+
F145: A7 C0          STA    ,U+
F147: 11 83 87 00    CMPU   #$8700
F14B: 26 F6          BNE    $F143
F14D: 8E F1 5E       LDX    #$F15E
F150: CE 83 34       LDU    #$8334
F153: A6 80          LDA    ,X+
F155: A7 C0          STA    ,U+
F157: 11 83 83 D4    CMPU   #$83D4
F15B: 26 F6          BNE    $F153
F15D: 39             RTS
F15E: 00 06          NEG    <$06
F160: 17 56 4A       LBSR   $47AD
F163: 4F             CLRA
F164: 4E             XCLRA
F165: 99 00          ADCA   <$00
F167: 05 31          LSR    <$31
F169: 57             ASRB
F16A: 4D             TSTA
F16B: 4F             CLRA
F16C: 52             XNCB
F16D: 99 00          ADCA   <$00
F16F: 04 22          LSR    <$22
F171: 37 47          PULU   CC,D,S
F173: 41             NEGA
F174: 4E             XCLRA
F175: 99 00          ADCA   <$00
F177: 03 31          COM    <$31
F179: 57             ASRB
F17A: 45             LSRA
F17B: 56             RORB
F17C: 59             ROLB
F17D: 99 00          ADCA   <$00
F17F: 02 25          XNC    <$25
F181: 28 4B          BVC    $F1CE
F183: 4A             DECA
F184: 45             LSRA
F185: 99 00          ADCA   <$00
F187: 01 48          NEG    <$48
F189: 68 4D          ASL    $D,U
F18B: 41             NEGA
F18C: 42             XNCA
F18D: 99 00          ADCA   <$00
F18F: 01 25          NEG    <$25
F191: 99 52          ADCA   <$52
F193: 4A             DECA
F194: 48             ASLA
F195: 99 00          ADCA   <$00
F197: 00 87          NEG    <$87
F199: 23 44          BLS    $F1DF
F19B: 4C             INCA
F19C: 50             NEGB
F19D: 99 00          ADCA   <$00
F19F: 00 75          NEG    <$75
F1A1: 78 50 4A       ASL    $504A
F1A4: 52             XNCB
F1A5: 99 00          ADCA   <$00
F1A7: 00 63          NEG    <$63
F1A9: 83 43 44       SUBD   #$4344
F1AC: 53             COMB
F1AD: 99 00          ADCA   <$00
F1AF: 00 58          NEG    <$58
F1B1: 33 52          LEAU   -$E,U
F1B3: 52             XNCB
F1B4: 50             NEGB
F1B5: 00 00          NEG    <$00
F1B7: 00 47          NEG    <$47
F1B9: 29 52          BVS    $F20D
F1BB: 4A             DECA
F1BC: 50             NEGB
F1BD: 00 00          NEG    <$00
F1BF: 00 42          NEG    <$42
F1C1: 94 44          ANDA   <$44
F1C3: 41             NEGA
F1C4: 4E             XCLRA
F1C5: 00 00          NEG    <$00
F1C7: 00 39          NEG    <$39
F1C9: 55             LSRB
F1CA: 4C             INCA
F1CB: 55             LSRB
F1CC: 50             NEGB
F1CD: 00 00          NEG    <$00
F1CF: 00 34          NEG    <$34
F1D1: 28 52          BVC    $F225
F1D3: 45             LSRA
F1D4: 58             ASLB
F1D5: 00 00          NEG    <$00
F1D7: 00 27          NEG    <$27
F1D9: 55             LSRB
F1DA: 47             ASRA
F1DB: 4A             DECA
F1DC: 4C             INCA
F1DD: 00 00          NEG    <$00
F1DF: 00 22          NEG    <$22
F1E1: 28 52          BVC    $F235
F1E3: 41             NEGA
F1E4: 45             LSRA
F1E5: 00 00          NEG    <$00
F1E7: 00 18          NEG    <$18
F1E9: 45             LSRA
F1EA: 54             LSRB
F1EB: 47             ASRA
F1EC: 46             RORA
F1ED: 00 00          NEG    <$00
F1EF: 00 17          NEG    <$17
F1F1: 48             ASLA
F1F2: 42             XNCA
F1F3: 46             RORA
F1F4: 4D             TSTA
F1F5: 00 00          NEG    <$00
F1F7: 00 13          NEG    <$13
F1F9: 05 57          LSR    <$57
F1FB: 4C             INCA
F1FC: 4D             TSTA
F1FD: 00 96          NEG    <$96
F1FF: 01 B7          NEG    <$B7
F201: 88 00          EORA   #$00
F203: 39             RTS
F204: 34 12          PSHS   X,A
F206: 8E 90 00       LDX    #$9000
F209: B6 83 E5       LDA    $83E5
F20C: 27 09          BEQ    $F217
F20E: B6 98 00       LDA    $9800
F211: 81 F7          CMPA   #$F7
F213: 26 F9          BNE    $F20E
F215: 20 07          BRA    $F21E
F217: B6 98 00       LDA    $9800
F21A: 81 F7          CMPA   #$F7
F21C: 26 F9          BNE    $F217
F21E: 4F             CLRA
F21F: A7 80          STA    ,X+
F221: 4C             INCA
F222: 26 FB          BNE    $F21F
F224: 35 92          PULS   A,X,PC
F226: D6 01          LDB    <$01
F228: 8E 91 01       LDX    #$9101
F22B: 3A             ABX
F22C: B6 83 E5       LDA    $83E5
F22F: 27 0A          BEQ    $F23B
F231: B6 98 00       LDA    $9800
F234: 81 F7          CMPA   #$F7
F236: 26 F9          BNE    $F231
F238: 4F             CLRA
F239: 20 08          BRA    $F243
F23B: B6 98 00       LDA    $9800
F23E: 81 F7          CMPA   #$F7
F240: 26 F9          BNE    $F23B
F242: 4F             CLRA
F243: A7 80          STA    ,X+
F245: 8C 91 22       CMPX   #$9122
F248: 26 F9          BNE    $F243
F24A: 4A             DECA
F24B: 8E 91 00       LDX    #$9100
F24E: A7 85          STA    B,X
F250: 5A             DECB
F251: 26 FB          BNE    $F24E
F253: 86 33          LDA    #$33
F255: D6 02          LDB    <$02
F257: A7 85          STA    B,X
F259: 86 FD          LDA    #$FD
F25B: B7 88 00       STA    $8800
F25E: 39             RTS
F25F: 8E 92 00       LDX    #$9200
F262: B6 83 E5       LDA    $83E5
F265: 27 0A          BEQ    $F271
F267: B6 98 00       LDA    $9800
F26A: 81 F7          CMPA   #$F7
F26C: 26 F9          BNE    $F267
F26E: 4F             CLRA
F26F: 20 08          BRA    $F279
F271: B6 98 00       LDA    $9800
F274: 81 F7          CMPA   #$F7
F276: 26 F9          BNE    $F271
F278: 4F             CLRA
F279: A7 80          STA    ,X+
F27B: 8C 93 00       CMPX   #$9300
F27E: 26 F9          BNE    $F279
F280: 39             RTS
F281: 8E 93 00       LDX    #$9300
F284: B6 83 E5       LDA    $83E5
F287: 27 0A          BEQ    $F293
F289: B6 98 00       LDA    $9800
F28C: 81 F7          CMPA   #$F7
F28E: 26 F9          BNE    $F289
F290: 4F             CLRA
F291: 20 08          BRA    $F29B
F293: B6 98 00       LDA    $9800
F296: 81 F7          CMPA   #$F7
F298: 26 F9          BNE    $F293
F29A: 4F             CLRA
F29B: A7 80          STA    ,X+
F29D: 8C 94 00       CMPX   #$9400
F2A0: 26 F9          BNE    $F29B
F2A2: B6 83 E5       LDA    $83E5
F2A5: 27 10          BEQ    $F2B7
F2A7: B6 98 00       LDA    $9800
F2AA: 81 F7          CMPA   #$F7
F2AC: 27 F9          BEQ    $F2A7
F2AE: B6 98 00       LDA    $9800
F2B1: 81 F7          CMPA   #$F7
F2B3: 26 F9          BNE    $F2AE
F2B5: 20 0E          BRA    $F2C5
F2B7: B6 98 00       LDA    $9800
F2BA: 81 F7          CMPA   #$F7
F2BC: 27 F9          BEQ    $F2B7
F2BE: B6 98 00       LDA    $9800
F2C1: 81 F7          CMPA   #$F7
F2C3: 26 F9          BNE    $F2BE
F2C5: CC C3 D3       LDD    #$C3D3
F2C8: FD 93 01       STD    $9301
F2CB: B7 93 FE       STA    $93FE
F2CE: F7 93 FD       STB    $93FD
F2D1: CC F3 33       LDD    #$F333
F2D4: B7 93 04       STA    $9304
F2D7: F7 93 08       STB    $9308
F2DA: B7 93 FB       STA    $93FB
F2DD: F7 93 F7       STB    $93F7
F2E0: CC 3F 0F       LDD    #$3F0F
F2E3: B7 93 10       STA    $9310
F2E6: F7 93 20       STB    $9320
F2E9: B7 93 EF       STA    $93EF
F2EC: F7 93 DF       STB    $93DF
F2EF: CC CF FF       LDD    #$CFFF
F2F2: B7 93 40       STA    $9340
F2F5: F7 93 80       STB    $9380
F2F8: B7 93 BF       STA    $93BF
F2FB: F7 93 7F       STB    $937F
F2FE: 39             RTS
F2FF: B6 83 F6       LDA    $83F6
F302: BD F8 72       JSR    $F872
F305: 1D             SEX
F306: FD 86 5C       STD    $865C
F309: FC 86 52       LDD    $8652
F30C: F3 86 50       ADDD   $8650
F30F: FD 86 54       STD    $8654
F312: B3 86 5C       SUBD   $865C
F315: FD 86 5C       STD    $865C
F318: 8E 00 00       LDX    #$0000
F31B: FC 86 54       LDD    $8654
F31E: 2F 28          BLE    $F348
F320: FC 86 52       LDD    $8652
F323: 27 23          BEQ    $F348
F325: 8E 00 64       LDX    #$0064
F328: 30 1F          LEAX   -$1,X
F32A: 27 05          BEQ    $F331
F32C: F3 86 52       ADDD   $8652
F32F: 20 F7          BRA    $F328
F331: 10 B3 86 54    CMPD   $8654
F335: 25 07          BCS    $F33E
F337: 30 01          LEAX   $1,X
F339: B3 86 54       SUBD   $8654
F33C: 20 F3          BRA    $F331
F33E: 58             ASLB
F33F: 49             ROLA
F340: 10 B3 86 54    CMPD   $8654
F344: 25 02          BCS    $F348
F346: 30 01          LEAX   $1,X
F348: BF 86 54       STX    $8654
F34B: 8E 00 00       LDX    #$0000
F34E: FC 86 58       LDD    $8658
F351: 27 23          BEQ    $F376
F353: 8E 00 64       LDX    #$0064
F356: 30 1F          LEAX   -$1,X
F358: 27 05          BEQ    $F35F
F35A: F3 86 58       ADDD   $8658
F35D: 20 F7          BRA    $F356
F35F: 10 B3 86 56    CMPD   $8656
F363: 25 07          BCS    $F36C
F365: 30 01          LEAX   $1,X
F367: B3 86 56       SUBD   $8656
F36A: 20 F3          BRA    $F35F
F36C: 58             ASLB
F36D: 49             ROLA
F36E: 10 B3 86 56    CMPD   $8656
F372: 25 02          BCS    $F376
F374: 30 01          LEAX   $1,X
F376: BF 86 5A       STX    $865A
F379: 8E 00 00       LDX    #$0000
F37C: FC 86 5C       LDD    $865C
F37F: 2F 79          BLE    $F3FA
F381: FC 86 56       LDD    $8656
F384: 27 74          BEQ    $F3FA
F386: 10 B3 86 5C    CMPD   $865C
F38A: 25 07          BCS    $F393
F38C: 30 01          LEAX   $1,X
F38E: B3 86 5C       SUBD   $865C
F391: 20 F3          BRA    $F386
F393: AF E3          STX    ,--S
F395: 58             ASLB
F396: 49             ROLA
F397: ED E3          STD    ,--S
F399: 8E 00 04       LDX    #$0004
F39C: E3 E4          ADDD   ,S
F39E: 30 1F          LEAX   -$1,X
F3A0: 26 FA          BNE    $F39C
F3A2: 10 B3 86 5C    CMPD   $865C
F3A6: 25 07          BCS    $F3AF
F3A8: 30 01          LEAX   $1,X
F3AA: B3 86 5C       SUBD   $865C
F3AD: 20 F3          BRA    $F3A2
F3AF: AF E4          STX    ,S
F3B1: 58             ASLB
F3B2: 49             ROLA
F3B3: ED E3          STD    ,--S
F3B5: 8E 00 04       LDX    #$0004
F3B8: E3 E4          ADDD   ,S
F3BA: 30 1F          LEAX   -$1,X
F3BC: 26 FA          BNE    $F3B8
F3BE: 10 B3 86 5C    CMPD   $865C
F3C2: 25 07          BCS    $F3CB
F3C4: 30 01          LEAX   $1,X
F3C6: B3 86 5C       SUBD   $865C
F3C9: 20 F3          BRA    $F3BE
F3CB: 1F 10          TFR    X,D
F3CD: 44             LSRA
F3CE: 56             RORB
F3CF: ED E4          STD    ,S
F3D1: EC 62          LDD    $2,S
F3D3: 8E 00 05       LDX    #$0005
F3D6: E3 62          ADDD   $2,S
F3D8: 30 1F          LEAX   -$1,X
F3DA: 26 FA          BNE    $F3D6
F3DC: E3 E4          ADDD   ,S
F3DE: ED E4          STD    ,S
F3E0: EC 64          LDD    $4,S
F3E2: 58             ASLB
F3E3: 49             ROLA
F3E4: 58             ASLB
F3E5: 49             ROLA
F3E6: ED 62          STD    $2,S
F3E8: 8E 00 0E       LDX    #$000E
F3EB: E3 62          ADDD   $2,S
F3ED: 30 1F          LEAX   -$1,X
F3EF: 26 FA          BNE    $F3EB
F3F1: E3 E4          ADDD   ,S
F3F3: FD 86 5C       STD    $865C
F3F6: 32 66          LEAS   $6,S
F3F8: 20 03          BRA    $F3FD
F3FA: BF 86 5C       STX    $865C
F3FD: 4F             CLRA
F3FE: 5F             CLRB
F3FF: 8E 00 00       LDX    #$0000
F402: 10 8E 00 00    LDY    #$0000
F406: CE 83 34       LDU    #$8334
F409: 36 36          PSHU   Y,X,D
F40B: 11 83 83 10    CMPU   #$8310
F40F: 26 F8          BNE    $F409
F411: 10 8E 86 48    LDY    #$8648
F415: 8E 00 00       LDX    #$0000
F418: EC A1          LDD    ,Y++
F41A: 83 27 10       SUBD   #$2710
F41D: 25 04          BCS    $F423
F41F: 30 01          LEAX   $1,X
F421: 20 F7          BRA    $F41A
F423: C3 27 10       ADDD   #$2710
F426: 8C 00 00       CMPX   #$0000
F429: 27 0E          BEQ    $F439
F42B: 34 06          PSHS   D
F42D: 4F             CLRA
F42E: 8B 01          ADDA   #$01
F430: 19             DAA
F431: 30 1F          LEAX   -$1,X
F433: 26 F9          BNE    $F42E
F435: A7 C4          STA    ,U
F437: 35 06          PULS   D
F439: 83 03 E8       SUBD   #$03E8
F43C: 25 04          BCS    $F442
F43E: 30 01          LEAX   $1,X
F440: 20 F7          BRA    $F439
F442: C3 03 E8       ADDD   #$03E8
F445: 8C 00 00       CMPX   #$0000
F448: 27 0E          BEQ    $F458
F44A: 34 06          PSHS   D
F44C: 4F             CLRA
F44D: 8B 10          ADDA   #$10
F44F: 19             DAA
F450: 30 1F          LEAX   -$1,X
F452: 26 F9          BNE    $F44D
F454: A7 41          STA    $1,U
F456: 35 06          PULS   D
F458: 83 00 64       SUBD   #$0064
F45B: 25 04          BCS    $F461
F45D: 30 01          LEAX   $1,X
F45F: 20 F7          BRA    $F458
F461: C3 00 64       ADDD   #$0064
F464: 8C 00 00       CMPX   #$0000
F467: 27 0F          BEQ    $F478
F469: 34 06          PSHS   D
F46B: A6 41          LDA    $1,U
F46D: 8B 01          ADDA   #$01
F46F: 19             DAA
F470: 30 1F          LEAX   -$1,X
F472: 26 F9          BNE    $F46D
F474: A7 41          STA    $1,U
F476: 35 06          PULS   D
F478: 83 00 0A       SUBD   #$000A
F47B: 25 04          BCS    $F481
F47D: 30 01          LEAX   $1,X
F47F: 20 F7          BRA    $F478
F481: C3 00 0A       ADDD   #$000A
F484: 8C 00 00       CMPX   #$0000
F487: 27 0E          BEQ    $F497
F489: 34 06          PSHS   D
F48B: 4F             CLRA
F48C: 8B 10          ADDA   #$10
F48E: 19             DAA
F48F: 30 1F          LEAX   -$1,X
F491: 26 F9          BNE    $F48C
F493: A7 42          STA    $2,U
F495: 35 06          PULS   D
F497: 83 00 01       SUBD   #$0001
F49A: 25 04          BCS    $F4A0
F49C: 30 01          LEAX   $1,X
F49E: 20 F7          BRA    $F497
F4A0: 8C 00 00       CMPX   #$0000
F4A3: 27 0B          BEQ    $F4B0
F4A5: A6 42          LDA    $2,U
F4A7: 8B 01          ADDA   #$01
F4A9: 19             DAA
F4AA: 30 1F          LEAX   -$1,X
F4AC: 26 F9          BNE    $F4A7
F4AE: A7 42          STA    $2,U
F4B0: 33 43          LEAU   $3,U
F4B2: 10 8C 86 60    CMPY   #$8660
F4B6: 10 26 FF 5B    LBNE   $F415
F4BA: 39             RTS
F4BB: 8E 80 00       LDX    #$8000
F4BE: 86 01          LDA    #$01
F4C0: A7 80          STA    ,X+
F4C2: 8B 01          ADDA   #$01
F4C4: 89 00          ADCA   #$00
F4C6: 8C 84 00       CMPX   #$8400
F4C9: 26 F5          BNE    $F4C0
F4CB: 96 00          LDA    <$00
F4CD: 26 FC          BNE    $F4CB
F4CF: 32 62          LEAS   $2,S
F4D1: 7E EF C4       JMP    $EFC4
F4D4: C6 07          LDB    #$07
F4D6: CE 83 D9       LDU    #$83D9
F4D9: 8E 87 D9       LDX    #$87D9
F4DC: 10 8E FB 2C    LDY    #$FB2C
F4E0: A6 A0          LDA    ,Y+
F4E2: A7 80          STA    ,X+
F4E4: A7 C0          STA    ,U+
F4E6: 5A             DECB
F4E7: 26 F7          BNE    $F4E0
F4E9: BD F0 83       JSR    $F083
F4EC: B7 87 00       STA    $8700
F4EF: 39             RTS
F4F0: 9E 03          LDX    <$03
F4F2: A6 84          LDA    ,X
F4F4: 97 01          STA    <$01
F4F6: 39             RTS
F4F7: C6 10          LDB    #$10
F4F9: CE 83 E0       LDU    #$83E0
F4FC: 8E 87 E0       LDX    #$87E0
F4FF: 10 8E FB 33    LDY    #$FB33
F503: 20 DB          BRA    $F4E0
F505: 8E F5 1B       LDX    #$F51B
F508: F6 83 F0       LDB    $83F0
F50B: 58             ASLB
F50C: AE 85          LDX    B,X
F50E: CE 87 40       LDU    #$8740
F511: C6 14          LDB    #$14
F513: A6 80          LDA    ,X+
F515: A7 C0          STA    ,U+
F517: 5A             DECB
F518: 26 F9          BNE    $F513
F51A: 39             RTS
F51B: EF A4          STU    ,Y
F51D: EF A4          STU    ,Y
F51F: EF A4          STU    ,Y
F521: EF A4          STU    ,Y
F523: 96 01          LDA    <$01
F525: 8E 83 D9       LDX    #$83D9
F528: 10 8E 87 D9    LDY    #$87D9
F52C: E6 86          LDB    A,X
F52E: E7 A6          STB    A,Y
F530: E6 A6          LDB    A,Y
F532: E7 86          STB    A,X
F534: BD F0 83       JSR    $F083
F537: B7 87 00       STA    $8700
F53A: 39             RTS
F53B: DC 03          LDD    <$03
F53D: B7 94 02       STA    $9402
F540: 84 7F          ANDA   #$7F
F542: 1F 01          TFR    D,X
F544: DC 01          LDD    <$01
F546: E7 80          STB    ,X+
F548: 4A             DECA
F549: 26 FB          BNE    $F546
F54B: 39             RTS
F54C: 9E 03          LDX    <$03
F54E: 96 01          LDA    <$01
F550: A7 84          STA    ,X
F552: A6 84          LDA    ,X
F554: 97 01          STA    <$01
F556: 39             RTS
F557: 32 7F          LEAS   -$1,S
F559: 8E F5 BD       LDX    #$F5BD
F55C: D6 01          LDB    <$01
F55E: AE 85          LDX    B,X
F560: 6F E4          CLR    ,S
F562: 8C ED 85       CMPX   #$ED85
F565: 25 07          BCS    $F56E
F567: 8C ED 96       CMPX   #$ED96
F56A: 22 02          BHI    $F56E
F56C: 6C E4          INC    ,S
F56E: 10 AE 81       LDY    ,X++
F571: 27 24          BEQ    $F597
F573: 10 9F 03       STY    <$03
F576: E6 80          LDB    ,X+
F578: 27 E6          BEQ    $F560
F57A: C1 02          CMPB   #$02
F57C: 23 0D          BLS    $F58B
F57E: 6D E4          TST    ,S
F580: 27 02          BEQ    $F584
F582: C8 AA          EORB   #$AA
F584: D7 01          STB    <$01
F586: BD F0 07       JSR    $F007
F589: 20 EB          BRA    $F576
F58B: C1 01          CMPB   #$01
F58D: 27 04          BEQ    $F593
F58F: 0C 02          INC    <$02
F591: 20 CD          BRA    $F560
F593: D7 02          STB    <$02
F595: 20 C9          BRA    $F560
F597: 32 61          LEAS   $1,S
F599: 39             RTS
F59A: CE 00 00       LDU    #$0000
F59D: 8E 86 4A       LDX    #$864A
F5A0: EF 81          STU    ,X++
F5A2: 8C 86 60       CMPX   #$8660
F5A5: 26 F9          BNE    $F5A0
F5A7: 4F             CLRA
F5A8: CE 83 34       LDU    #$8334
F5AB: 10 AE 83       LDY    ,--X
F5AE: 36 22          PSHU   Y,A
F5B0: 11 83 83 13    CMPU   #$8313
F5B4: 26 F5          BNE    $F5AB
F5B6: 7F 86 47       CLR    $8647
F5B9: 7F 83 F6       CLR    $83F6
F5BC: 39             RTS
F5BD: EC 00          LDD    $0,X
F5BF: EC 4D          LDD    $D,U
F5C1: EC 64          LDD    $4,S
F5C3: 00 00          NEG    <$00
F5C5: EC 6F          LDD    $F,S
F5C7: EC 6F          LDD    $F,S
F5C9: EC 6F          LDD    $F,S
F5CB: EC 6F          LDD    $F,S
F5CD: ED B1          STD    [,Y++]
F5CF: ED B1          STD    [,Y++]
F5D1: ED B1          STD    [,Y++]
F5D3: ED B1          STD    [,Y++]
F5D5: ED FC ED       STD    [$F5C5,PCR]
F5D8: FC ED FC       LDD    $EDFC
F5DB: ED FC EE       STD    [$F5CC,PCR]
F5DE: DE EE          LDU    <$EE
F5E0: DE EE          LDU    <$EE
F5E2: DE EE          LDU    <$EE
F5E4: DE EF          LDU    <$EF
F5E6: 73 EF 73       COM    $EF73
F5E9: EF 73          STU    -$D,S
F5EB: EF 73          STU    -$D,S
F5ED: EF 92          STU    Illegal Postbyte
F5EF: EF 92          STU    Illegal Postbyte
F5F1: EF 92          STU    Illegal Postbyte
F5F3: EF 92          STU    Illegal Postbyte
F5F5: 7F 86 47       CLR    $8647
F5F8: 1A 50          ORCC   #$50
F5FA: 7F 8C 01       CLR    $8C01
F5FD: 10 CE 86 44    LDS    #$8644
F601: 7F 88 01       CLR    $8801
F604: 86 0D          LDA    #$0D
F606: 8E FA E2       LDX    #$FAE2
F609: B7 9F FC       STA    $9FFC
F60C: E6 80          LDB    ,X+
F60E: F7 9F FD       STB    $9FFD
F611: 4A             DECA
F612: 2A F5          BPL    $F609
F614: 4F             CLRA
F615: 5F             CLRB
F616: 8E 80 00       LDX    #$8000
F619: BF 94 02       STX    $9402
F61C: ED 83          STD    ,--X
F61E: 8C 00 00       CMPX   #$0000
F621: 26 F9          BNE    $F61C
F623: BF 94 02       STX    $9402
F626: ED 81          STD    ,X++
F628: 8C 86 44       CMPX   #$8644
F62B: 26 F9          BNE    $F626
F62D: 8E 90 00       LDX    #$9000
F630: 4F             CLRA
F631: A7 80          STA    ,X+
F633: 4C             INCA
F634: 26 FB          BNE    $F631
F636: 86 FC          LDA    #$FC
F638: B7 88 00       STA    $8800
F63B: 1C EF          ANDCC  #$EF
F63D: CC 80 02       LDD    #$8002
F640: 1F 8B          TFR    A,DP
F642: B7 83 F3       STA    $83F3
F645: F7 83 F1       STB    $83F1
F648: F7 8C 00       STB    $8C00
F64B: F6 83 F3       LDB    $83F3
F64E: 26 FB          BNE    $F64B
F650: B6 86 47       LDA    $8647
F653: B7 83 F6       STA    $83F6
F656: BD F0 8F       JSR    $F08F
F659: FC 86 45       LDD    $8645
F65C: 10 83 55 AA    CMPD   #$55AA
F660: 27 04          BEQ    $F666
F662: 1C AF          ANDCC  #$AF
F664: 20 0C          BRA    $F672
F666: BD F0 83       JSR    $F083
F669: 1C AF          ANDCC  #$AF
F66B: B1 87 00       CMPA   $8700
F66E: 10 27 A9 8E    LBEQ   $A000
F672: 7F 91 00       CLR    $9100
F675: BD F2 5F       JSR    $F25F
F678: C6 80          LDB    #$80
F67A: F7 83 F3       STB    $83F3
F67D: CC 00 00       LDD    #$0000
F680: 8E 84 00       LDX    #$8400
F683: ED 81          STD    ,X++
F685: 8C 88 00       CMPX   #$8800
F688: 26 F9          BNE    $F683
F68A: CC 55 AA       LDD    #$55AA
F68D: FD 86 45       STD    $8645
F690: 8E FA F0       LDX    #$FAF0
F693: 10 8E 87 9D    LDY    #$879D
F697: E6 80          LDB    ,X+
F699: E7 A0          STB    ,Y+
F69B: 8C FB 44       CMPX   #$FB44
F69E: 26 F7          BNE    $F697
F6A0: BD F1 3D       JSR    $F13D
F6A3: 8E EF A4       LDX    #$EFA4
F6A6: CE 87 40       LDU    #$8740
F6A9: A6 80          LDA    ,X+
F6AB: A7 C0          STA    ,U+
F6AD: 8C EF B8       CMPX   #$EFB8
F6B0: 26 F7          BNE    $F6A9
F6B2: CC 55 0A       LDD    #$550A
F6B5: B7 87 00       STA    $8700
F6B8: B1 87 00       CMPA   $8700
F6BB: 26 0D          BNE    $F6CA
F6BD: BD F0 83       JSR    $F083
F6C0: B7 87 00       STA    $8700
F6C3: B1 87 00       CMPA   $8700
F6C6: 27 0B          BEQ    $F6D3
F6C8: 0F 01          CLR    <$01
F6CA: C6 FF          LDB    #$FF
F6CC: D7 02          STB    <$02
F6CE: BD F5 57       JSR    $F557
F6D1: C6 04          LDB    #$04
F6D3: F7 83 F1       STB    $83F1
F6D6: F7 8C 00       STB    $8C00
F6D9: 7E EF C2       JMP    $EFC2
F6DC: 7F 8C 01       CLR    $8C01
F6DF: 7D 83 F2       TST    $83F2
F6E2: 2B 1B          BMI    $F6FF
F6E4: 26 08          BNE    $F6EE
F6E6: 7D 83 F3       TST    $83F3
F6E9: 10 2A A9 19    LBPL   $A006
F6ED: 3B             RTI
F6EE: B6 83 F2       LDA    $83F2
F6F1: 10 CE 86 44    LDS    #$8644
F6F5: 8E F7 62       LDX    #$F762
F6F8: 7F 83 F2       CLR    $83F2
F6FB: 1C AF          ANDCC  #$AF
F6FD: 6E 96          JMP    [A,X]
F6FF: 34 36          PSHS   Y,X,D
F701: 74 83 F2       LSR    $83F2
F704: 25 04          BCS    $F70A
F706: 26 0A          BNE    $F712
F708: 27 54          BEQ    $F75E
F70A: BE 86 56       LDX    $8656
F70D: 30 01          LEAX   $1,X
F70F: BF 86 56       STX    $8656
F712: 74 83 F2       LSR    $83F2
F715: 25 04          BCS    $F71B
F717: 26 0A          BNE    $F723
F719: 27 43          BEQ    $F75E
F71B: BE 86 58       LDX    $8658
F71E: 30 01          LEAX   $1,X
F720: BF 86 58       STX    $8658
F723: 74 83 F2       LSR    $83F2
F726: 25 04          BCS    $F72C
F728: 26 05          BNE    $F72F
F72A: 27 32          BEQ    $F75E
F72C: BD F7 70       JSR    $F770
F72F: 74 83 F2       LSR    $83F2
F732: 25 04          BCS    $F738
F734: 26 08          BNE    $F73E
F736: 27 26          BEQ    $F75E
F738: B6 83 F6       LDA    $83F6
F73B: B7 86 47       STA    $8647
F73E: 74 83 F2       LSR    $83F2
F741: 25 04          BCS    $F747
F743: 26 0A          BNE    $F74F
F745: 27 17          BEQ    $F75E
F747: BE 86 52       LDX    $8652
F74A: 30 01          LEAX   $1,X
F74C: BF 86 52       STX    $8652
F74F: 74 83 F2       LSR    $83F2
F752: 25 02          BCS    $F756
F754: 20 08          BRA    $F75E
F756: BE 86 5E       LDX    $865E
F759: 30 01          LEAX   $1,X
F75B: BF 86 5E       STX    $865E
F75E: 35 36          PULS   D,X,Y
F760: 7F 83 F2       CLR    $83F2
F763: 3B             RTI
F764: F7 6E EF       STB    $6EEF
F767: C2 F5          SBCB   #$F5
F769: F5 EF B8       BITB   $EFB8
F76C: F8 97 20       EORB   $9720
F76F: FE F6 83       LDU    $F683
F772: F7 C5 20       STB    $C520
F775: 27 1F          BEQ    $F796
F777: BE 86 4E       LDX    $864E
F77A: 30 01          LEAX   $1,X
F77C: BF 86 4E       STX    $864E
F77F: B6 87 DC       LDA    $87DC
F782: BD F8 72       JSR    $F872
F785: 1F 98          TFR    B,A
F787: BB 83 FA       ADDA   $83FA
F78A: B7 83 FA       STA    $83FA
F78D: FB 83 FB       ADDB   $83FB
F790: F7 83 FB       STB    $83FB
F793: F6 83 F7       LDB    $83F7
F796: C5 40          BITB   #$40
F798: 27 1F          BEQ    $F7B9
F79A: BE 86 4C       LDX    $864C
F79D: 30 01          LEAX   $1,X
F79F: BF 86 4C       STX    $864C
F7A2: B6 87 DB       LDA    $87DB
F7A5: BD F8 72       JSR    $F872
F7A8: 1F 98          TFR    B,A
F7AA: BB 83 FA       ADDA   $83FA
F7AD: B7 83 FA       STA    $83FA
F7B0: FB 83 FB       ADDB   $83FB
F7B3: F7 83 FB       STB    $83FB
F7B6: F6 83 F7       LDB    $83F7
F7B9: C5 10          BITB   #$10
F7BB: 27 1F          BEQ    $F7DC
F7BD: BE 86 4A       LDX    $864A
F7C0: 30 01          LEAX   $1,X
F7C2: BF 86 4A       STX    $864A
F7C5: B6 87 DA       LDA    $87DA
F7C8: BD F8 72       JSR    $F872
F7CB: 1F 98          TFR    B,A
F7CD: BB 83 FA       ADDA   $83FA
F7D0: B7 83 FA       STA    $83FA
F7D3: FB 83 FB       ADDB   $83FB
F7D6: F7 83 FB       STB    $83FB
F7D9: F6 83 F7       LDB    $83F7
F7DC: C4 8F          ANDB   #$8F
F7DE: F7 83 F7       STB    $83F7
F7E1: B6 87 DF       LDA    $87DF
F7E4: BD F8 72       JSR    $F872
F7E7: 5D             TSTB
F7E8: 27 06          BEQ    $F7F0
F7EA: F1 83 FA       CMPB   $83FA
F7ED: 23 01          BLS    $F7F0
F7EF: 39             RTS
F7F0: BE 86 50       LDX    $8650
F7F3: 10 BE 86 48    LDY    $8648
F7F7: B6 87 DD       LDA    $87DD
F7FA: 27 34          BEQ    $F830
F7FC: BD F8 72       JSR    $F872
F7FF: F1 83 FA       CMPB   $83FA
F802: 2E 2C          BGT    $F830
F804: E7 E2          STB    ,-S
F806: 4F             CLRA
F807: F6 83 FA       LDB    $83FA
F80A: E0 E4          SUBB   ,S
F80C: 25 08          BCS    $F816
F80E: 8B 01          ADDA   #$01
F810: 19             DAA
F811: 7C 83 EF       INC    $83EF
F814: 20 F4          BRA    $F80A
F816: EB E0          ADDB   ,S+
F818: F7 83 FA       STB    $83FA
F81B: A7 E2          STA    ,-S
F81D: BB 86 47       ADDA   $8647
F820: 19             DAA
F821: B7 83 F6       STA    $83F6
F824: B7 86 47       STA    $8647
F827: A6 E0          LDA    ,S+
F829: BD F8 72       JSR    $F872
F82C: 30 85          LEAX   B,X
F82E: 31 A5          LEAY   B,Y
F830: B6 87 DE       LDA    $87DE
F833: 27 35          BEQ    $F86A
F835: BD F8 72       JSR    $F872
F838: F1 83 FB       CMPB   $83FB
F83B: 2E 2D          BGT    $F86A
F83D: E7 E2          STB    ,-S
F83F: 4F             CLRA
F840: F6 83 FB       LDB    $83FB
F843: E0 E4          SUBB   ,S
F845: 25 08          BCS    $F84F
F847: 8B 01          ADDA   #$01
F849: 19             DAA
F84A: 7C 83 EF       INC    $83EF
F84D: 20 F4          BRA    $F843
F84F: 7F 83 FB       CLR    $83FB
F852: 7F 83 FA       CLR    $83FA
F855: A7 E4          STA    ,S
F857: BB 86 47       ADDA   $8647
F85A: 19             DAA
F85B: B7 83 F6       STA    $83F6
F85E: B7 86 47       STA    $8647
F861: A6 E0          LDA    ,S+
F863: BD F8 72       JSR    $F872
F866: 30 85          LEAX   B,X
F868: 31 A5          LEAY   B,Y
F86A: BF 86 50       STX    $8650
F86D: 10 BF 86 48    STY    $8648
F871: 39             RTS
F872: 34 02          PSHS   A
F874: 81 A0          CMPA   #$A0
F876: 24 06          BCC    $F87E
F878: 84 0F          ANDA   #$0F
F87A: 81 0A          CMPA   #$0A
F87C: 25 06          BCS    $F884
F87E: 7F 86 45       CLR    $8645
F881: 7E F5 F8       JMP    $F5F8
F884: A6 E4          LDA    ,S
F886: 5F             CLRB
F887: 4D             TSTA
F888: 27 06          BEQ    $F890
F88A: 5C             INCB
F88B: 8B 99          ADDA   #$99
F88D: 19             DAA
F88E: 20 F7          BRA    $F887
F890: 35 02          PULS   A
F892: 39             RTS
F893: 86 00          LDA    #$00
F895: 1F 8B          TFR    A,DP
F897: 86 80          LDA    #$80
F899: B7 83 F3       STA    $83F3
F89C: 7F 88 00       CLR    $8800
F89F: 8E 00 00       LDX    #$0000
F8A2: 30 1F          LEAX   -$1,X
F8A4: 26 FC          BNE    $F8A2
F8A6: 86 FC          LDA    #$FC
F8A8: B7 88 00       STA    $8800
F8AB: 30 1F          LEAX   -$1,X
F8AD: 26 FC          BNE    $F8AB
F8AF: 1C EF          ANDCC  #$EF
F8B1: F6 87 01       LDB    $8701
F8B4: 86 55          LDA    #$55
F8B6: B7 87 01       STA    $8701
F8B9: B1 87 01       CMPA   $8701
F8BC: 26 0B          BNE    $F8C9
F8BE: 43             COMA
F8BF: B7 87 01       STA    $8701
F8C2: B6 87 01       LDA    $8701
F8C5: 81 AA          CMPA   #$AA
F8C7: 27 20          BEQ    $F8E9
F8C9: F7 87 01       STB    $8701
F8CC: 86 80          LDA    #$80
F8CE: 1F 8B          TFR    A,DP
F8D0: BD F1 0A       JSR    $F10A
F8D3: B6 87 F0       LDA    $87F0
F8D6: 48             ASLA
F8D7: 8B 28          ADDA   #$28
F8D9: B7 80 01       STA    $8001
F8DC: 86 FF          LDA    #$FF
F8DE: B7 80 02       STA    $8002
F8E1: BD F2 04       JSR    $F204
F8E4: BD F5 57       JSR    $F557
F8E7: 20 FE          BRA    $F8E7
F8E9: F7 87 01       STB    $8701
F8EC: C6 06          LDB    #$06
F8EE: 1F B8          TFR    DP,A
F8F0: 4D             TSTA
F8F1: 2B 02          BMI    $F8F5
F8F3: C6 08          LDB    #$08
F8F5: 1F 9B          TFR    B,DP
F8F7: 86 F4          LDA    #$F4
F8F9: B7 88 00       STA    $8800
F8FC: 8E 00 00       LDX    #$0000
F8FF: CE FF F0       LDU    #$FFF0
F902: 5F             CLRB
F903: A6 C2          LDA    ,-U
F905: 27 21          BEQ    $F928
F907: 10 8E 10 00    LDY    #$1000
F90B: EB 82          ADDB   ,-X
F90D: 31 3F          LEAY   -$1,Y
F90F: 26 FA          BNE    $F90B
F911: E1 C4          CMPB   ,U
F913: 27 17          BEQ    $F92C
F915: 1F 10          TFR    X,D
F917: 80 80          SUBA   #$80
F919: 44             LSRA
F91A: 44             LSRA
F91B: 8A 43          ORA    #$43
F91D: 43             COMA
F91E: BD FA C3       JSR    $FAC3
F921: B7 88 00       STA    $8800
F924: A6 84          LDA    ,X
F926: 20 FC          BRA    $F924
F928: 30 89 F0 00    LEAX   -$1000,X
F92C: 8C A0 00       CMPX   #$A000
F92F: 26 D1          BNE    $F902
F931: 86 04          LDA    #$04
F933: B7 88 01       STA    $8801
F936: 8E C0 00       LDX    #$C000
F939: CE FF EA       LDU    #$FFEA
F93C: 5F             CLRB
F93D: A6 C2          LDA    ,-U
F93F: 27 24          BEQ    $F965
F941: 10 8E 10 00    LDY    #$1000
F945: EB 82          ADDB   ,-X
F947: 31 3F          LEAY   -$1,Y
F949: 26 FA          BNE    $F945
F94B: E1 C4          CMPB   ,U
F94D: 27 1A          BEQ    $F969
F94F: 1F 10          TFR    X,D
F951: 80 A0          SUBA   #$A0
F953: 44             LSRA
F954: 44             LSRA
F955: 8A 43          ORA    #$43
F957: 43             COMA
F958: BD FA C3       JSR    $FAC3
F95B: 7F 88 01       CLR    $8801
F95E: B7 88 00       STA    $8800
F961: A6 84          LDA    ,X
F963: 20 FC          BRA    $F961
F965: 30 89 F0 00    LEAX   -$1000,X
F969: 8C A0 00       CMPX   #$A000
F96C: 26 CE          BNE    $F93C
F96E: 7F 88 01       CLR    $8801
F971: 86 F8          LDA    #$F8
F973: B7 88 00       STA    $8800
F976: 86 55          LDA    #$55
F978: C6 04          LDB    #$04
F97A: F7 8C 00       STB    $8C00
F97D: F7 83 F1       STB    $83F1
F980: C6 FF          LDB    #$FF
F982: 5A             DECB
F983: 26 FD          BNE    $F982
F985: 8E 80 00       LDX    #$8000
F988: 10 8E 04 00    LDY    #$0400
F98C: 1F 13          TFR    X,U
F98E: C6 01          LDB    #$01
F990: 86 01          LDA    #$01
F992: A7 84          STA    ,X
F994: A1 84          CMPA   ,X
F996: 26 38          BNE    $F9D0
F998: 48             ASLA
F999: 26 F7          BNE    $F992
F99B: 86 FE          LDA    #$FE
F99D: A7 84          STA    ,X
F99F: A1 84          CMPA   ,X
F9A1: 26 2D          BNE    $F9D0
F9A3: 1A 01          ORCC   #$01
F9A5: 49             ROLA
F9A6: 81 FF          CMPA   #$FF
F9A8: 26 F3          BNE    $F99D
F9AA: E7 80          STB    ,X+
F9AC: CB 01          ADDB   #$01
F9AE: C9 00          ADCB   #$00
F9B0: 31 3F          LEAY   -$1,Y
F9B2: 26 DC          BNE    $F990
F9B4: 1F 30          TFR    U,D
F9B6: 43             COMA
F9B7: 53             COMB
F9B8: C3 00 01       ADDD   #$0001
F9BB: 31 8B          LEAY   D,X
F9BD: 1F 31          TFR    U,X
F9BF: 86 01          LDA    #$01
F9C1: A1 84          CMPA   ,X
F9C3: 26 0B          BNE    $F9D0
F9C5: 6F 80          CLR    ,X+
F9C7: 8B 01          ADDA   #$01
F9C9: 89 00          ADCA   #$00
F9CB: 31 3F          LEAY   -$1,Y
F9CD: 26 F2          BNE    $F9C1
F9CF: 4F             CLRA
F9D0: 8C 84 00       CMPX   #$8400
F9D3: 27 02          BEQ    $F9D7
F9D5: 4D             TSTA
F9D6: 39             RTS
F9D7: 4D             TSTA
F9D8: 27 05          BEQ    $F9DF
F9DA: B7 80 00       STA    $8000
F9DD: 20 FB          BRA    $F9DA
F9DF: 86 F0          LDA    #$F0
F9E1: B7 88 00       STA    $8800
F9E4: 8E 86 44       LDX    #$8644
F9E7: 10 8E 82 00    LDY    #$8200
F9EB: 1F 24          TFR    Y,S
F9ED: EC 81          LDD    ,X++
F9EF: ED A1          STD    ,Y++
F9F1: 8C 88 00       CMPX   #$8800
F9F4: 26 F7          BNE    $F9ED
F9F6: 1A 50          ORCC   #$50
F9F8: 8E 84 00       LDX    #$8400
F9FB: 10 8E 04 00    LDY    #$0400
F9FF: BD F9 8C       JSR    $F98C
FA02: 27 07          BEQ    $FA0B
FA04: 1C AF          ANDCC  #$AF
FA06: B7 84 00       STA    $8400
FA09: 20 FB          BRA    $FA06
FA0B: 8E 82 00       LDX    #$8200
FA0E: 10 8E 86 44    LDY    #$8644
FA12: EC 81          LDD    ,X++
FA14: ED A1          STD    ,Y++
FA16: 10 8C 88 00    CMPY   #$8800
FA1A: 26 F6          BNE    $FA12
FA1C: 10 CE 86 44    LDS    #$8644
FA20: 86 80          LDA    #$80
FA22: B7 83 F3       STA    $83F3
FA25: 1C AF          ANDCC  #$AF
FA27: 86 EC          LDA    #$EC
FA29: B7 88 00       STA    $8800
FA2C: 8E 90 00       LDX    #$9000
FA2F: 10 8E 04 00    LDY    #$0400
FA33: BD F9 8C       JSR    $F98C
FA36: 27 05          BEQ    $FA3D
FA38: B7 90 00       STA    $9000
FA3B: 20 FB          BRA    $FA38
FA3D: BD F2 04       JSR    $F204
FA40: 86 E4          LDA    #$E4
FA42: B7 88 00       STA    $8800
FA45: 8E 00 00       LDX    #$0000
FA48: 10 8E 80 00    LDY    #$8000
FA4C: BF 94 02       STX    $9402
FA4F: BD F9 8C       JSR    $F98C
FA52: 27 2B          BEQ    $FA7F
FA54: A8 84          EORA   ,X
FA56: B7 84 01       STA    $8401
FA59: 1F 10          TFR    X,D
FA5B: 58             ASLB
FA5C: 58             ASLB
FA5D: 58             ASLB
FA5E: C4 18          ANDB   #$18
FA60: F7 84 00       STB    $8400
FA63: 4F             CLRA
FA64: F6 84 01       LDB    $8401
FA67: 54             LSRB
FA68: 27 03          BEQ    $FA6D
FA6A: 4C             INCA
FA6B: 20 FA          BRA    $FA67
FA6D: BA 84 00       ORA    $8400
FA70: 8A 20          ORA    #$20
FA72: 43             COMA
FA73: 48             ASLA
FA74: 48             ASLA
FA75: BD FA C3       JSR    $FAC3
FA78: B7 88 00       STA    $8800
FA7B: A7 84          STA    ,X
FA7D: 20 FC          BRA    $FA7B
FA7F: 8E 00 00       LDX    #$0000
FA82: 10 8E 80 00    LDY    #$8000
FA86: 10 BF 94 02    STY    $9402
FA8A: BD F9 8C       JSR    $F98C
FA8D: 26 C5          BNE    $FA54
FA8F: CC 55 AA       LDD    #$55AA
FA92: 8E 00 00       LDX    #$0000
FA95: 10 8E 80 00    LDY    #$8000
FA99: BF 94 02       STX    $9402
FA9C: B7 94 00       STA    $9400
FA9F: 10 BF 94 02    STY    $9402
FAA3: F7 94 00       STB    $9400
FAA6: BF 94 02       STX    $9402
FAA9: B1 94 00       CMPA   $9400
FAAC: 26 FB          BNE    $FAA9
FAAE: 10 BF 94 02    STY    $9402
FAB2: F1 94 00       CMPB   $9400
FAB5: 26 FB          BNE    $FAB2
FAB7: 7F 94 00       CLR    $9400
FABA: BF 94 02       STX    $9402
FABD: 7F 94 00       CLR    $9400
FAC0: 7E EF B8       JMP    $EFB8
FAC3: 1F 89          TFR    A,B
FAC5: C4 93          ANDB   #$93
FAC7: 85 04          BITA   #$04
FAC9: 27 02          BEQ    $FACD
FACB: CA 08          ORB    #$08
FACD: 85 08          BITA   #$08
FACF: 27 02          BEQ    $FAD3
FAD1: CA 04          ORB    #$04
FAD3: 85 20          BITA   #$20
FAD5: 27 02          BEQ    $FAD9
FAD7: CA 40          ORB    #$40
FAD9: 85 40          BITA   #$40
FADB: 27 02          BEQ    $FADF
FADD: CA 20          ORB    #$20
FADF: 1E 89          EXG    A,B
FAE1: 39             RTS
FAE2: 20 00          BRA    $FAE4
FAE4: 00 00          NEG    <$00
FAE6: 07 00          ASR    <$00
FAE8: 1F 1E          TFR    X,inv
FAEA: 0B 1F          XDEC   <$1F
FAEC: 03 22          COM    <$22
FAEE: 20 26          BRA    $FB16
FAF0: 01 04          NEG    <$04
FAF2: 01 01          NEG    <$01
FAF4: 00 00          NEG    <$00
FAF6: 01 04          NEG    <$04
FAF8: 01 02          NEG    <$02
FAFA: 04 00          LSR    <$00
FAFC: 01 04          NEG    <$04
FAFE: 01 02          NEG    <$02
FB00: 00 00          NEG    <$00
FB02: 06 00          ROR    <$00
FB04: 01 01          NEG    <$01
FB06: 00 00          NEG    <$00
FB08: 01 16          NEG    <$16
FB0A: 06 02          ROR    <$02
FB0C: 00 00          NEG    <$00
FB0E: 01 00          NEG    <$00
FB10: 04 01          LSR    <$01
FB12: 00 00          NEG    <$00
FB14: 01 00          NEG    <$00
FB16: 02 01          XNC    <$01
FB18: 00 00          NEG    <$00
FB1A: 01 00          NEG    <$00
FB1C: 02 02          XNC    <$02
FB1E: 00 00          NEG    <$00
FB20: 00 04          NEG    <$04
FB22: 01 04          NEG    <$04
FB24: 00 00          NEG    <$00
FB26: 01 00          NEG    <$00
FB28: 06 02          ROR    <$02
FB2A: 00 00          NEG    <$00
FB2C: 01 01          NEG    <$01
FB2E: 04 01          LSR    <$01
FB30: 01 00          NEG    <$00
FB32: 00 12          NEG    <$12
FB34: 10 03 01       COM    <$01
FB37: 01 00          NEG    <$00
FB39: 39             RTS
FB3A: 30 00          LEAX   $0,X
FB3C: 00 00          NEG    <$00
FB3E: 00 00          NEG    <$00
FB40: 00 00          NEG    <$00
FB42: 00 00          NEG    <$00
FB44: CC 54 54       LDD    #$5454
FB47: 1F 01          TFR    D,X
FB49: CE 80 00       LDU    #$8000
FB4C: FF 94 02       STU    $9402
FB4F: 36 16          PSHU   X,D
FB51: 11 83 00 00    CMPU   #$0000
FB55: 26 F8          BNE    $FB4F
FB57: FF 94 02       STU    $9402
FB5A: CE 80 00       LDU    #$8000
FB5D: 36 16          PSHU   X,D
FB5F: 11 83 00 00    CMPU   #$0000
FB63: 26 F8          BNE    $FB5D
FB65: 39             RTS
FB66: 34 16          PSHS   X,D
FB68: EC 68          LDD    $8,S
FB6A: AE 66          LDX    $6,S
FB6C: BF 94 02       STX    $9402
FB6F: F7 94 00       STB    $9400
FB72: 30 89 01 00    LEAX   $0100,X
FB76: 4A             DECA
FB77: 26 F3          BNE    $FB6C
FB79: 35 96          PULS   D,X,PC
FB7B: 34 16          PSHS   X,D
FB7D: EC 66          LDD    $6,S
FB7F: B7 94 02       STA    $9402
FB82: 84 7F          ANDA   #$7F
FB84: 1F 01          TFR    D,X
FB86: EC 68          LDD    $8,S
FB88: E7 80          STB    ,X+
FB8A: 4A             DECA
FB8B: 26 FB          BNE    $FB88
FB8D: 35 96          PULS   D,X,PC
FB8F: BD FB 44       JSR    $FB44
FB92: 8E FB BF       LDX    #$FBBF
FB95: EC 84          LDD    ,X
FB97: 10 AE 02       LDY    $2,X
FB9A: 34 26          PSHS   Y,D
FB9C: BD FB 66       JSR    $FB66
FB9F: 32 64          LEAS   $4,S
FBA1: 30 04          LEAX   $4,X
FBA3: 8C FC 1B       CMPX   #$FC1B
FBA6: 26 ED          BNE    $FB95
FBA8: 8E FC 3B       LDX    #$FC3B
FBAB: EC 84          LDD    ,X
FBAD: 10 AE 02       LDY    $2,X
FBB0: 34 26          PSHS   Y,D
FBB2: BD FB 7B       JSR    $FB7B
FBB5: 32 64          LEAS   $4,S
FBB7: 30 04          LEAX   $4,X
FBB9: 8C FC 87       CMPX   #$FC87
FBBC: 26 ED          BNE    $FBAB
FBBE: 39             RTS
FBBF: 7C 80 09       INC    $8009
FBC2: FF 0B 08       STU    $0B08
FBC5: EA FF 0B 0D    ORB    [$0B0D]
FBC9: EA FF 0B 1A    ORB    [$0B1A]
FBCD: EA FF 0B 26    ORB    [$0B26]
FBD1: EA FF 0B 32    ORB    [$0B32]
FBD5: EA FF 0B 3E    ORB    [$0B3E]
FBD9: EA FF 0B 4A    ORB    [$0B4A]
FBDD: EA FF 0B 56    ORB    [$0B56]
FBE1: EA FF 0B 62    ORB    [$0B62]
FBE5: EA FF 0B 6E    ORB    [$0B6E]
FBE9: EA FF 0B 7A    ORB    [$0B7A]
FBED: EA FF 0B 86    ORB    [$0B86]
FBF1: EA FF 0B 92    ORB    [$0B92]
FBF5: EA FF 0B 9E    ORB    [$0B9E]
FBF9: EA FF 0B AA    ORB    [$0BAA]
FBFD: EA FF 0B B6    ORB    [$0BB6]
FC01: EA FF 0B C2    ORB    [$0BC2]
FC05: EA FF 0B CE    ORB    [$0BCE]
FC09: EA FF 0B DA    ORB    [$0BDA]
FC0D: EA FF 0B E6    ORB    [$0BE6]
FC11: EA FF 0B F2    ORB    [$0BF2]
FC15: EA FF 0B F7    ORB    [$0BF7]
FC19: EA FF 00 00    ORB    [$0000]
FC1D: 00 00          NEG    <$00
FC1F: 00 00          NEG    <$00
FC21: 00 00          NEG    <$00
FC23: 00 00          NEG    <$00
FC25: 00 00          NEG    <$00
FC27: 00 00          NEG    <$00
FC29: 00 00          NEG    <$00
FC2B: 00 00          NEG    <$00
FC2D: 00 00          NEG    <$00
FC2F: 00 00          NEG    <$00
FC31: 00 00          NEG    <$00
FC33: 00 00          NEG    <$00
FC35: 00 00          NEG    <$00
FC37: 00 00          NEG    <$00
FC39: 00 00          NEG    <$00
FC3B: 00 00          NEG    <$00
FC3D: 00 FF          NEG    <$FF
FC3F: FF 00 00       STU    >$0000
FC42: FF 0B 0D       STU    $0B0D
FC45: E6 FF 10 0D    LDB    [$100D]
FC49: E6 FF 20 0D    LDB    [$200D]
FC4D: E6 FF 30 0D    LDB    [$300D]
FC51: E6 FF 40 0D    LDB    [$400D]
FC55: E6 FF 50 0D    LDB    [$500D]
FC59: E6 FF 60 0D    LDB    [$600D]
FC5D: E6 FF 70 0D    LDB    [$700D]
FC61: E6 FF 80 0D    LDB    [$800D]
FC65: E6 FF 90 0D    LDB    [$900D]
FC69: E6 FF A0 0D    LDB    [$A00D]
FC6D: E6 FF B0 0D    LDB    [$B00D]
FC71: E6 FF C0 0D    LDB    [$C00D]
FC75: E6 FF D0 0D    LDB    [$D00D]
FC79: E6 FF E0 0D    LDB    [$E00D]
FC7D: E6 FF F0 0D    LDB    [$F00D]
FC81: E6 FF F4 0D    LDB    [$F40D]
FC85: E6 FF FF FF    LDB    [$FFFF]
FC89: FF FF FF       STU    $FFFF
FC8C: FF FF FF       STU    $FFFF
FC8F: FF FF FF       STU    $FFFF
FC92: FF FF FF       STU    $FFFF
FC95: FF FF FF       STU    $FFFF
FC98: FF FF FF       STU    $FFFF
FC9B: FF FF FF       STU    $FFFF
FC9E: FF FF FF       STU    $FFFF
FCA1: FF FF FF       STU    $FFFF
FCA4: FF FF FF       STU    $FFFF
FCA7: FF FF FF       STU    $FFFF
FCAA: FF FF FF       STU    $FFFF
FCAD: FF FF FF       STU    $FFFF
FCB0: FF FF FF       STU    $FFFF
FCB3: FF FF FF       STU    $FFFF
FCB6: FF FF FF       STU    $FFFF
FCB9: FF FF FF       STU    $FFFF
FCBC: FF FF FF       STU    $FFFF
FCBF: FF FF FF       STU    $FFFF
FCC2: FF FF FF       STU    $FFFF
FCC5: FF FF FF       STU    $FFFF
FCC8: FF FF FF       STU    $FFFF
FCCB: FF FF FF       STU    $FFFF
FCCE: FF FF FF       STU    $FFFF
FCD1: FF FF FF       STU    $FFFF
FCD4: FF FF FF       STU    $FFFF
FCD7: FF FF FF       STU    $FFFF
FCDA: FF FF FF       STU    $FFFF
FCDD: FF FF FF       STU    $FFFF
FCE0: FF FF FF       STU    $FFFF
FCE3: FF FF FF       STU    $FFFF
FCE6: FF FF FF       STU    $FFFF
FCE9: FF FF FF       STU    $FFFF
FCEC: FF FF FF       STU    $FFFF
FCEF: FF FF FF       STU    $FFFF
FCF2: FF FF FF       STU    $FFFF
FCF5: FF FF FF       STU    $FFFF
FCF8: FF FF FF       STU    $FFFF
FCFB: FF FF FF       STU    $FFFF
FCFE: FF FF FF       STU    $FFFF
FD01: FF FF FF       STU    $FFFF
FD04: FF FF FF       STU    $FFFF
FD07: FF FF FF       STU    $FFFF
FD0A: FF FF FF       STU    $FFFF
FD0D: FF FF FF       STU    $FFFF
FD10: FF FF FF       STU    $FFFF
FD13: FF FF FF       STU    $FFFF
FD16: FF FF FF       STU    $FFFF
FD19: FF FF FF       STU    $FFFF
FD1C: FF FF FF       STU    $FFFF
FD1F: FF FF FF       STU    $FFFF
FD22: FF FF FF       STU    $FFFF
FD25: FF FF FF       STU    $FFFF
FD28: FF FF FF       STU    $FFFF
FD2B: FF FF FF       STU    $FFFF
FD2E: FF FF FF       STU    $FFFF
FD31: FF FF FF       STU    $FFFF
FD34: FF FF FF       STU    $FFFF
FD37: FF FF FF       STU    $FFFF
FD3A: FF FF FF       STU    $FFFF
FD3D: FF FF FF       STU    $FFFF
FD40: FF FF FF       STU    $FFFF
FD43: FF FF FF       STU    $FFFF
FD46: FF FF FF       STU    $FFFF
FD49: FF FF FF       STU    $FFFF
FD4C: FF FF FF       STU    $FFFF
FD4F: FF FF FF       STU    $FFFF
FD52: FF FF FF       STU    $FFFF
FD55: FF FF FF       STU    $FFFF
FD58: FF FF FF       STU    $FFFF
FD5B: FF FF FF       STU    $FFFF
FD5E: FF FF FF       STU    $FFFF
FD61: FF FF FF       STU    $FFFF
FD64: FF FF FF       STU    $FFFF
FD67: FF FF FF       STU    $FFFF
FD6A: FF FF FF       STU    $FFFF
FD6D: FF FF FF       STU    $FFFF
FD70: FF FF FF       STU    $FFFF
FD73: FF FF FF       STU    $FFFF
FD76: FF FF FF       STU    $FFFF
FD79: FF FF FF       STU    $FFFF
FD7C: FF FF FF       STU    $FFFF
FD7F: FF FF FF       STU    $FFFF
FD82: FF FF FF       STU    $FFFF
FD85: FF FF FF       STU    $FFFF
FD88: FF FF FF       STU    $FFFF
FD8B: FF FF FF       STU    $FFFF
FD8E: FF FF FF       STU    $FFFF
FD91: FF FF FF       STU    $FFFF
FD94: FF FF FF       STU    $FFFF
FD97: FF FF FF       STU    $FFFF
FD9A: FF FF FF       STU    $FFFF
FD9D: FF FF FF       STU    $FFFF
FDA0: FF FF FF       STU    $FFFF
FDA3: FF FF FF       STU    $FFFF
FDA6: FF FF FF       STU    $FFFF
FDA9: FF FF FF       STU    $FFFF
FDAC: FF FF FF       STU    $FFFF
FDAF: FF FF FF       STU    $FFFF
FDB2: FF FF FF       STU    $FFFF
FDB5: FF FF FF       STU    $FFFF
FDB8: FF FF FF       STU    $FFFF
FDBB: FF FF FF       STU    $FFFF
FDBE: FF FF FF       STU    $FFFF
FDC1: FF FF FF       STU    $FFFF
FDC4: FF FF FF       STU    $FFFF
FDC7: FF FF FF       STU    $FFFF
FDCA: FF FF FF       STU    $FFFF
FDCD: FF FF FF       STU    $FFFF
FDD0: FF FF FF       STU    $FFFF
FDD3: FF FF FF       STU    $FFFF
FDD6: FF FF FF       STU    $FFFF
FDD9: FF FF FF       STU    $FFFF
FDDC: FF FF FF       STU    $FFFF
FDDF: FF FF FF       STU    $FFFF
FDE2: FF FF FF       STU    $FFFF
FDE5: FF FF FF       STU    $FFFF
FDE8: FF FF FF       STU    $FFFF
FDEB: FF FF FF       STU    $FFFF
FDEE: FF FF FF       STU    $FFFF
FDF1: FF FF FF       STU    $FFFF
FDF4: FF FF FF       STU    $FFFF
FDF7: FF FF FF       STU    $FFFF
FDFA: FF FF FF       STU    $FFFF
FDFD: FF FF FF       STU    $FFFF
FE00: 00 00          NEG    <$00
FE02: 00 00          NEG    <$00
FE04: 00 00          NEG    <$00
FE06: 00 00          NEG    <$00
FE08: 00 00          NEG    <$00
FE0A: 00 5F          NEG    <$5F
FE0C: 00 00          NEG    <$00
FE0E: 00 00          NEG    <$00
FE10: 00 04          NEG    <$04
FE12: 03 00          COM    <$00
FE14: 04 03          LSR    <$03
FE16: 00 00          NEG    <$00
FE18: 10 34 1C       PSHS   X,DP,B
FE1B: 36 1C          PSHU   X,DP,B
FE1D: 16 04 00       LBRA   $0220
FE20: 00 00          NEG    <$00
FE22: 00 00          NEG    <$00
FE24: 00 00          NEG    <$00
FE26: 00 00          NEG    <$00
FE28: 00 46          NEG    <$46
FE2A: 26 10          BNE    $FE3C
FE2C: 08 64          ASL    <$64
FE2E: 62 00          XNC    $0,X
FE30: 00 14          NEG    <$14
FE32: 2A 2A          BPL    $FE5E
FE34: 6B 2A          XDEC   $A,Y
FE36: 22 00          BHI    $FE38
FE38: 00 00          NEG    <$00
FE3A: 00 04          NEG    <$04
FE3C: 03 00          COM    <$00
FE3E: 00 00          NEG    <$00
FE40: 00 7F          NEG    <$7F
FE42: 7F 7F 41       CLR    $7F41
FE45: 41             NEGA
FE46: 00 00          NEG    <$00
FE48: 00 00          NEG    <$00
FE4A: 41             NEGA
FE4B: 41             NEGA
FE4C: 7F 7F 7F       CLR    $7F7F
FE4F: 00 08          NEG    <$08
FE51: 2A 1C          BPL    $FE6F
FE53: 7F 1C 2A       CLR    $1C2A
FE56: 08 00          ASL    <$00
FE58: 00 08          NEG    <$08
FE5A: 08 3E          ASL    <$3E
FE5C: 08 08          ASL    <$08
FE5E: 00 00          NEG    <$00
FE60: 00 00          NEG    <$00
FE62: 80 60          SUBA   #$60
FE64: 00 00          NEG    <$00
FE66: 00 00          NEG    <$00
FE68: 00 08          NEG    <$08
FE6A: 08 08          ASL    <$08
FE6C: 08 08          ASL    <$08
FE6E: 00 00          NEG    <$00
FE70: 00 00          NEG    <$00
FE72: 40             NEGA
FE73: 00 00          NEG    <$00
FE75: 00 00          NEG    <$00
FE77: 00 00          NEG    <$00
FE79: 40             NEGA
FE7A: 20 10          BRA    $FE8C
FE7C: 08 04          ASL    <$04
FE7E: 02 00          XNC    <$00
FE80: 7F 7F 7F       CLR    $7F7F
FE83: 41             NEGA
FE84: 41             NEGA
FE85: 41             NEGA
FE86: 7F 00 00       CLR    >$0000
FE89: 01 7F          NEG    <$7F
FE8B: 7F 7F 00       CLR    $7F00
FE8E: 00 00          NEG    <$00
FE90: 79 49 49       ROL    $4949
FE93: 49             ROLA
FE94: 6F 6F          CLR    $F,S
FE96: 6F 00          CLR    $0,X
FE98: 41             NEGA
FE99: 41             NEGA
FE9A: 49             ROLA
FE9B: 49             ROLA
FE9C: 7F 7F 7F       CLR    $7F7F
FE9F: 00 0F          NEG    <$0F
FEA1: 08 08          ASL    <$08
FEA3: 08 7F          ASL    <$7F
FEA5: 7F 7F 00       CLR    $7F00
FEA8: 6F 6F          CLR    $F,S
FEAA: 6F 49          CLR    $9,U
FEAC: 49             ROLA
FEAD: 49             ROLA
FEAE: 79 00 7F       ROL    >$007F
FEB1: 49             ROLA
FEB2: 49             ROLA
FEB3: 49             ROLA
FEB4: 7B 7B 7B       XDEC   $7B7B
FEB7: 00 01          NEG    <$01
FEB9: 01 01          NEG    <$01
FEBB: 01 7F          NEG    <$7F
FEBD: 7F 7F 00       CLR    $7F00
FEC0: 7F 7F 7F       CLR    $7F7F
FEC3: 49             ROLA
FEC4: 49             ROLA
FEC5: 49             ROLA
FEC6: 7F 00 0F       CLR    >$000F
FEC9: 09 09          ROL    <$09
FECB: 09 7F          ROL    <$7F
FECD: 7F 7F 00       CLR    $7F00
FED0: 00 00          NEG    <$00
FED2: 00 24          NEG    <$24
FED4: 00 00          NEG    <$00
FED6: 00 00          NEG    <$00
FED8: 00 00          NEG    <$00
FEDA: 80 64          SUBA   #$64
FEDC: 00 00          NEG    <$00
FEDE: 00 00          NEG    <$00
FEE0: 00 08          NEG    <$08
FEE2: 14             XHCF
FEE3: 22 41          BHI    $FF26
FEE5: 00 00          NEG    <$00
FEE7: 00 00          NEG    <$00
FEE9: 14             XHCF
FEEA: 14             XHCF
FEEB: 14             XHCF
FEEC: 14             XHCF
FEED: 14             XHCF
FEEE: 00 00          NEG    <$00
FEF0: 00 00          NEG    <$00
FEF2: 41             NEGA
FEF3: 22 14          BHI    $FF09
FEF5: 08 00          ASL    <$00
FEF7: 00 00          NEG    <$00
FEF9: 02 51          XNC    <$51
FEFB: 09 09          ROL    <$09
FEFD: 06 00          ROR    <$00
FEFF: 00 3E          NEG    <$3E
FF01: 41             NEGA
FF02: 59             ROLB
FF03: 55             LSRB
FF04: 5D             TSTB
FF05: 52             XNCB
FF06: 4C             INCA
FF07: 00 7F          NEG    <$7F
FF09: 09 09          ROL    <$09
FF0B: 09 7F          ROL    <$7F
FF0D: 7E 7C 00       JMP    $7C00
FF10: 7F 7F 7F       CLR    $7F7F
FF13: 49             ROLA
FF14: 49             ROLA
FF15: 49             ROLA
FF16: 7F 00 7F       CLR    >$007F
FF19: 41             NEGA
FF1A: 41             NEGA
FF1B: 41             NEGA
FF1C: 77 77 77       ASR    $7777
FF1F: 00 7F          NEG    <$7F
FF21: 41             NEGA
FF22: 41             NEGA
FF23: 41             NEGA
FF24: 7F 7F 3E       CLR    $7F3E
FF27: 00 7F          NEG    <$7F
FF29: 7F 7F 49       CLR    $7F49
FF2C: 49             ROLA
FF2D: 49             ROLA
FF2E: 41             NEGA
FF2F: 00 7F          NEG    <$7F
FF31: 7F 7F 09       CLR    $7F09
FF34: 09 09          ROL    <$09
FF36: 01 00          NEG    <$00
FF38: 7F 41 41       CLR    $4141
FF3B: 49             ROLA
FF3C: 7B 7B 7B       XDEC   $7B7B
FF3F: 00 7F          NEG    <$7F
FF41: 08 08          ASL    <$08
FF43: 08 7F          ASL    <$7F
FF45: 7F 7F 00       CLR    $7F00
FF48: 41             NEGA
FF49: 41             NEGA
FF4A: 7F 7F 7F       CLR    $7F7F
FF4D: 41             NEGA
FF4E: 41             NEGA
FF4F: 00 70          NEG    <$70
FF51: 70 40 40       NEG    $4040
FF54: 7F 7F 7F       CLR    $7F7F
FF57: 00 7F          NEG    <$7F
FF59: 0F 0F          CLR    <$0F
FF5B: 08 78          ASL    <$78
FF5D: 7F 78 00       CLR    $7800
FF60: 7F 7F 7F       CLR    $7F7F
FF63: 7F 40 40       CLR    $4040
FF66: 40             NEGA
FF67: 00 7F          NEG    <$7F
FF69: 01 7F          NEG    <$7F
FF6B: 7F 01 7F       CLR    $017F
FF6E: 7F 00 7F       CLR    >$007F
FF71: 01 01          NEG    <$01
FF73: 01 7F          NEG    <$7F
FF75: 7F 7F 00       CLR    $7F00
FF78: 7F 7F 7F       CLR    $7F7F
FF7B: 41             NEGA
FF7C: 41             NEGA
FF7D: 41             NEGA
FF7E: 7F 00 7F       CLR    >$007F
FF81: 7F 7F 09       CLR    $7F09
FF84: 09 09          ROL    <$09
FF86: 0F 00          CLR    <$00
FF88: 7F 7F 7F       CLR    $7F7F
FF8B: 41             NEGA
FF8C: 71 61 7F       NEG    $617F
FF8F: 00 7F          NEG    <$7F
FF91: 7F 7F 09       CLR    $7F09
FF94: 09 79          ROL    <$79
FF96: 77 00 6F       ASR    >$006F
FF99: 4F             CLRA
FF9A: 4F             CLRA
FF9B: 49             ROLA
FF9C: 79 79 73       ROL    $7973
FF9F: 00 01          NEG    <$01
FFA1: 01 7F          NEG    <$7F
FFA3: 7F 7F 01       CLR    $7F01
FFA6: 01 00          NEG    <$00
FFA8: 7F 40 40       CLR    $4040
FFAB: 40             NEGA
FFAC: 7F 7F 7F       CLR    $7F7F
FFAF: 00 1F          NEG    <$1F
FFB1: 20 60          BRA    $0013
FFB3: 70 3F 1F       NEG    $3F1F
FFB6: 0F 00          CLR    <$00
FFB8: 7F 40 7F       CLR    $407F
FFBB: 7F 40 7F       CLR    $407F
FFBE: 7F 00 77       CLR    >$0077
FFC1: 0F 0F          CLR    <$0F
FFC3: 08 78          ASL    <$78
FFC5: 78 77 00       ASL    $7700
FFC8: 0F 0F          CLR    <$0F
FFCA: 7F 78 7F       CLR    $787F
FFCD: 0F 0F          CLR    <$0F
FFCF: 00 61          NEG    <$61
FFD1: 71 79 5D       NEG    $795D
FFD4: 4F             CLRA
FFD5: 47             ASRA
FFD6: 43             COMA
FFD7: 00 FF          NEG    <$FF
FFD9: FF FF FF       STU    $FFFF
FFDC: FF FF FF       STU    $FFFF
FFDF: FF FF FF       STU    $FFFF
FFE2: FF FF FF       STU    $FFFF
FFE5: FF FF FF       STU    $FFFF
FFE8: B7 8F 2F       STA    $8F2F
FFEB: 46             RORA
FFEC: 66 88 CD       ROR    -$33,X
FFEF: 84 7C          ANDA   #$7C
FFF1: 00 F6          NEG    <$F6
FFF3: ED F6          STD    [A,S]
FFF5: ED F6          STD    [A,S]
FFF7: DC F8          LDD    <$F8
FFF9: 97 F6          STA    <$F6
FFFB: ED F6          STD    [A,S]
FFFD: ED F5          STD    [B,S]
FFFF: F8 00 00       EORB   >$0000
0002: 00 00          NEG    <$00
0004: 00 00          NEG    <$00
0006: 00 00          NEG    <$00
0008: 00 00          NEG    <$00
000A: 00 00          NEG    <$00
000C: 00 00          NEG    <$00
000E: 00 00          NEG    <$00
0010: 00 00          NEG    <$00
0012: 00 00          NEG    <$00
0014: 00 00          NEG    <$00
0016: 00 00          NEG    <$00
0018: 00 00          NEG    <$00
001A: 00 00          NEG    <$00
001C: 00 00          NEG    <$00
001E: 00 00          NEG    <$00
0020: 00 00          NEG    <$00
0022: 00 00          NEG    <$00
0024: 00 00          NEG    <$00
0026: 00 00          NEG    <$00
0028: 00 00          NEG    <$00
002A: 00 00          NEG    <$00
002C: 00 00          NEG    <$00
002E: 00 00          NEG    <$00
0030: 00 00          NEG    <$00
0032: 00 00          NEG    <$00
0034: 00 00          NEG    <$00
0036: 00 00          NEG    <$00
0038: 00 00          NEG    <$00
003A: 00 00          NEG    <$00
003C: 00 00          NEG    <$00
003E: 00 00          NEG    <$00
0040: 00 00          NEG    <$00
0042: 00 00          NEG    <$00
0044: 00 00          NEG    <$00
0046: 00 00          NEG    <$00
0048: 00 00          NEG    <$00
004A: 00 00          NEG    <$00
004C: 00 00          NEG    <$00
004E: 00 00          NEG    <$00
0050: 00 00          NEG    <$00
0052: 00 00          NEG    <$00
0054: 00 00          NEG    <$00
0056: 00 00          NEG    <$00
0058: 00 00          NEG    <$00
005A: 00 00          NEG    <$00
005C: 00 00          NEG    <$00
005E: 00 00          NEG    <$00
0060: 00 00          NEG    <$00
0062: 00 00          NEG    <$00
0064: 00 00          NEG    <$00
0066: 00 00          NEG    <$00
0068: 00 00          NEG    <$00
006A: 00 00          NEG    <$00
006C: 00 00          NEG    <$00
006E: 00 00          NEG    <$00
0070: 00 00          NEG    <$00
0072: 00 00          NEG    <$00
0074: 00 00          NEG    <$00
0076: 00 00          NEG    <$00
0078: 00 00          NEG    <$00
007A: 00 00          NEG    <$00
007C: 00 00          NEG    <$00
007E: 00 00          NEG    <$00
0080: FF 00 00       STU    >$0000
0083: 00 00          NEG    <$00
0085: 00 00          NEG    <$00
0087: 00 00          NEG    <$00
0089: 00 00          NEG    <$00
008B: 00 00          NEG    <$00
008D: 00 00          NEG    <$00
008F: 00 C3          NEG    <$C3
0091: C3 C3 C3       ADDD   #$C3C3
0094: C3 C3 C3       ADDD   #$C3C3
0097: C3 C3 C3       ADDD   #$C3C3
009A: C3 C3 C3       ADDD   #$C3C3
009D: C3 C3 C3       ADDD   #$C3C3
00A0: C3 C3 C3       ADDD   #$C3C3
00A3: C3 C3 C3       ADDD   #$C3C3
00A6: C3 C3 C3       ADDD   #$C3C3
00A9: C3 C3 C3       ADDD   #$C3C3
00AC: C3 C3 C3       ADDD   #$C3C3
00AF: C3 C3 C3       ADDD   #$C3C3
00B2: C3 C3 C3       ADDD   #$C3C3
00B5: C3 C3 C3       ADDD   #$C3C3
00B8: C3 C3 C3       ADDD   #$C3C3
00BB: C3 C3 C3       ADDD   #$C3C3
00BE: C3 C3 F3       ADDD   #$C3F3
00C1: F3 F3 F3       ADDD   $F3F3
00C4: F3 F3 F3       ADDD   $F3F3
00C7: F3 F3 F3       ADDD   $F3F3
00CA: F3 F3 F3       ADDD   $F3F3
00CD: F3 F3 F3       ADDD   $F3F3
00D0: F3 F3 F3       ADDD   $F3F3
00D3: F3 F3 F3       ADDD   $F3F3
00D6: F3 F3 F3       ADDD   $F3F3
00D9: F3 F3 F3       ADDD   $F3F3
00DC: F3 F3 F3       ADDD   $F3F3
00DF: F3 F3 F3       ADDD   $F3F3
00E2: F3 F3 F3       ADDD   $F3F3
00E5: F3 F3 F3       ADDD   $F3F3
00E8: F3 F3 F3       ADDD   $F3F3
00EB: F3 F3 F3       ADDD   $F3F3
00EE: F3 F3 F3       ADDD   $F3F3
00F1: F3 F3 F3       ADDD   $F3F3
00F4: F3 F3 F3       ADDD   $F3F3
00F7: F3 F3 F3       ADDD   $F3F3
00FA: F3 F3 F3       ADDD   $F3F3
00FD: F3 F3 F3       ADDD   $F3F3
0100: 00 00          NEG    <$00
0102: 00 00          NEG    <$00
0104: 00 00          NEG    <$00
0106: 00 00          NEG    <$00
0108: 00 00          NEG    <$00
010A: 00 00          NEG    <$00
010C: 00 00          NEG    <$00
010E: 00 00          NEG    <$00
0110: 00 00          NEG    <$00
0112: 00 00          NEG    <$00
0114: 00 00          NEG    <$00
0116: 00 00          NEG    <$00
0118: 00 00          NEG    <$00
011A: 00 00          NEG    <$00
011C: 00 00          NEG    <$00
011E: 00 00          NEG    <$00
0120: 00 00          NEG    <$00
0122: 00 00          NEG    <$00
0124: 00 00          NEG    <$00
0126: 00 00          NEG    <$00
0128: 00 00          NEG    <$00
012A: 00 00          NEG    <$00
012C: 00 00          NEG    <$00
012E: 00 00          NEG    <$00
0130: 00 00          NEG    <$00
0132: 00 00          NEG    <$00
0134: 00 00          NEG    <$00
0136: 00 00          NEG    <$00
0138: 00 00          NEG    <$00
013A: 00 00          NEG    <$00
013C: 00 00          NEG    <$00
013E: 00 00          NEG    <$00
0140: 00 00          NEG    <$00
0142: 00 00          NEG    <$00
0144: 00 00          NEG    <$00
0146: 00 00          NEG    <$00
0148: 00 00          NEG    <$00
014A: 00 00          NEG    <$00
014C: 00 00          NEG    <$00
014E: 00 00          NEG    <$00
0150: 00 00          NEG    <$00
0152: 00 00          NEG    <$00
0154: 00 00          NEG    <$00
0156: 00 00          NEG    <$00
0158: 00 00          NEG    <$00
015A: 00 00          NEG    <$00
015C: 00 00          NEG    <$00
015E: 00 00          NEG    <$00
0160: 00 00          NEG    <$00
0162: 00 00          NEG    <$00
0164: 00 00          NEG    <$00
0166: 00 00          NEG    <$00
0168: 00 00          NEG    <$00
016A: 00 00          NEG    <$00
016C: 00 00          NEG    <$00
016E: 00 00          NEG    <$00
0170: 00 00          NEG    <$00
0172: 00 00          NEG    <$00
0174: 00 00          NEG    <$00
0176: 00 00          NEG    <$00
0178: 00 00          NEG    <$00
017A: 00 00          NEG    <$00
017C: 00 00          NEG    <$00
017E: 00 00          NEG    <$00
0180: FF 00 00       STU    >$0000
0183: 00 00          NEG    <$00
0185: 00 00          NEG    <$00
0187: 00 00          NEG    <$00
0189: 00 00          NEG    <$00
018B: 00 00          NEG    <$00
018D: 00 00          NEG    <$00
018F: 00 C3          NEG    <$C3
0191: C3 C3 C3       ADDD   #$C3C3
0194: C3 C3 C3       ADDD   #$C3C3
0197: C3 C3 C3       ADDD   #$C3C3
019A: C3 C3 C3       ADDD   #$C3C3
019D: C3 C3 C3       ADDD   #$C3C3
01A0: C3 C3 C3       ADDD   #$C3C3
01A3: C3 C3 C3       ADDD   #$C3C3
01A6: C3 C3 C3       ADDD   #$C3C3
01A9: C3 C3 C3       ADDD   #$C3C3
01AC: C3 C3 C3       ADDD   #$C3C3
01AF: C3 C3 C3       ADDD   #$C3C3
01B2: C3 C3 C3       ADDD   #$C3C3
01B5: C3 C3 C3       ADDD   #$C3C3
01B8: C3 C3 C3       ADDD   #$C3C3
01BB: C3 C3 C3       ADDD   #$C3C3
01BE: C3 C3 F3       ADDD   #$C3F3
01C1: F3 F3 F3       ADDD   $F3F3
01C4: F3 F3 F3       ADDD   $F3F3
01C7: F3 F3 F3       ADDD   $F3F3
01CA: F3 F3 F3       ADDD   $F3F3
01CD: F3 F3 F3       ADDD   $F3F3
01D0: F3 F3 F3       ADDD   $F3F3
01D3: F3 F3 F3       ADDD   $F3F3
01D6: F3 F3 F3       ADDD   $F3F3
01D9: F3 F3 F3       ADDD   $F3F3
01DC: F3 F3 F3       ADDD   $F3F3
01DF: F3 F3 F3       ADDD   $F3F3
01E2: F3 F3 F3       ADDD   $F3F3
01E5: F3 F3 F3       ADDD   $F3F3
01E8: F3 F3 F3       ADDD   $F3F3
01EB: F3 F3 F3       ADDD   $F3F3
01EE: F3 F3 F3       ADDD   $F3F3
01F1: F3 F3 F3       ADDD   $F3F3
01F4: F3 F3 F3       ADDD   $F3F3
01F7: F3 F3 F3       ADDD   $F3F3
01FA: F3 F3 F3       ADDD   $F3F3
01FD: F3 F3 F3       ADDD   $F3F3
0200: 00 00          NEG    <$00
0202: 00 00          NEG    <$00
0204: 00 00          NEG    <$00
0206: 00 00          NEG    <$00
0208: 00 00          NEG    <$00
020A: 00 00          NEG    <$00
020C: 00 00          NEG    <$00
020E: 00 00          NEG    <$00
0210: 00 00          NEG    <$00
0212: 00 00          NEG    <$00
0214: 00 00          NEG    <$00
0216: 00 00          NEG    <$00
0218: 00 00          NEG    <$00
021A: 00 00          NEG    <$00
021C: 00 00          NEG    <$00
021E: 00 00          NEG    <$00
0220: 00 00          NEG    <$00
0222: 00 00          NEG    <$00
0224: 00 00          NEG    <$00
0226: 00 00          NEG    <$00
0228: 00 00          NEG    <$00
022A: 00 00          NEG    <$00
022C: 00 00          NEG    <$00
022E: 00 00          NEG    <$00
0230: 00 00          NEG    <$00
0232: 00 00          NEG    <$00
0234: 00 00          NEG    <$00
0236: 00 00          NEG    <$00
0238: 00 00          NEG    <$00
023A: 00 00          NEG    <$00
023C: 00 00          NEG    <$00
023E: 00 00          NEG    <$00
0240: 00 00          NEG    <$00
0242: 00 00          NEG    <$00
0244: 00 00          NEG    <$00
0246: 00 00          NEG    <$00
0248: 00 00          NEG    <$00
024A: 00 00          NEG    <$00
024C: 00 00          NEG    <$00
024E: 00 00          NEG    <$00
0250: 00 00          NEG    <$00
0252: 00 00          NEG    <$00
0254: 00 00          NEG    <$00
0256: 00 00          NEG    <$00
0258: 00 00          NEG    <$00
025A: 00 00          NEG    <$00
025C: 00 00          NEG    <$00
025E: 00 00          NEG    <$00
0260: 00 00          NEG    <$00
0262: 00 00          NEG    <$00
0264: 00 00          NEG    <$00
0266: 00 00          NEG    <$00
0268: 00 00          NEG    <$00
026A: 00 00          NEG    <$00
026C: 00 00          NEG    <$00
026E: 00 00          NEG    <$00
0270: 00 00          NEG    <$00
0272: 00 00          NEG    <$00
0274: 00 00          NEG    <$00
0276: 00 00          NEG    <$00
0278: 00 00          NEG    <$00
027A: 00 00          NEG    <$00
027C: 00 00          NEG    <$00
027E: 00 00          NEG    <$00
0280: FF 00 00       STU    >$0000
0283: 00 00          NEG    <$00
0285: 00 00          NEG    <$00
0287: 00 00          NEG    <$00
0289: 00 00          NEG    <$00
028B: 00 00          NEG    <$00
028D: 00 00          NEG    <$00
028F: 00 C3          NEG    <$C3
0291: C3 C3 C3       ADDD   #$C3C3
0294: C3 C3 C3       ADDD   #$C3C3
0297: C3 C3 C3       ADDD   #$C3C3
029A: C3 C3 C3       ADDD   #$C3C3
029D: C3 C3 C3       ADDD   #$C3C3
02A0: C3 C3 C3       ADDD   #$C3C3
02A3: C3 C3 C3       ADDD   #$C3C3
02A6: C3 C3 C3       ADDD   #$C3C3
02A9: C3 C3 C3       ADDD   #$C3C3
02AC: C3 C3 C3       ADDD   #$C3C3
02AF: C3 C3 C3       ADDD   #$C3C3
02B2: C3 C3 C3       ADDD   #$C3C3
02B5: C3 C3 C3       ADDD   #$C3C3
02B8: C3 C3 C3       ADDD   #$C3C3
02BB: C3 C3 C3       ADDD   #$C3C3
02BE: C3 C3 F3       ADDD   #$C3F3
02C1: F3 F3 F3       ADDD   $F3F3
02C4: F3 F3 F3       ADDD   $F3F3
02C7: F3 F3 F3       ADDD   $F3F3
02CA: F3 F3 F3       ADDD   $F3F3
02CD: F3 F3 F3       ADDD   $F3F3
02D0: F3 F3 F3       ADDD   $F3F3
02D3: F3 F3 F3       ADDD   $F3F3
02D6: F3 F3 F3       ADDD   $F3F3
02D9: F3 F3 F3       ADDD   $F3F3
02DC: F3 F3 F3       ADDD   $F3F3
02DF: F3 F3 F3       ADDD   $F3F3
02E2: F3 F3 F3       ADDD   $F3F3
02E5: F3 F3 F3       ADDD   $F3F3
02E8: F3 F3 F3       ADDD   $F3F3
02EB: F3 F3 F3       ADDD   $F3F3
02EE: F3 F3 F3       ADDD   $F3F3
02F1: F3 F3 F3       ADDD   $F3F3
02F4: F3 F3 F3       ADDD   $F3F3
02F7: F3 F3 F3       ADDD   $F3F3
02FA: F3 F3 F3       ADDD   $F3F3
02FD: F3 F3 F3       ADDD   $F3F3
0300: 00 00          NEG    <$00
0302: 00 00          NEG    <$00
0304: 00 00          NEG    <$00
0306: 00 00          NEG    <$00
0308: 00 00          NEG    <$00
030A: 00 00          NEG    <$00
030C: 00 00          NEG    <$00
030E: 00 00          NEG    <$00
0310: 00 00          NEG    <$00
0312: 00 00          NEG    <$00
0314: 00 00          NEG    <$00
0316: 00 00          NEG    <$00
0318: 00 00          NEG    <$00
031A: 00 00          NEG    <$00
031C: 00 00          NEG    <$00
031E: 00 00          NEG    <$00
0320: 00 00          NEG    <$00
0322: 00 00          NEG    <$00
0324: 00 00          NEG    <$00
0326: 00 00          NEG    <$00
0328: 00 00          NEG    <$00
032A: 00 00          NEG    <$00
032C: 00 00          NEG    <$00
032E: 00 00          NEG    <$00
0330: 00 00          NEG    <$00
0332: 00 00          NEG    <$00
0334: 00 00          NEG    <$00
0336: 00 00          NEG    <$00
0338: 00 00          NEG    <$00
033A: 00 00          NEG    <$00
033C: 00 00          NEG    <$00
033E: 00 00          NEG    <$00
0340: 00 00          NEG    <$00
0342: 00 00          NEG    <$00
0344: 00 00          NEG    <$00
0346: 00 00          NEG    <$00
0348: 00 00          NEG    <$00
034A: 00 00          NEG    <$00
034C: 00 00          NEG    <$00
034E: 00 00          NEG    <$00
0350: 00 00          NEG    <$00
0352: 00 00          NEG    <$00
0354: 00 00          NEG    <$00
0356: 00 00          NEG    <$00
0358: 00 00          NEG    <$00
035A: 00 00          NEG    <$00
035C: 00 00          NEG    <$00
035E: 00 00          NEG    <$00
0360: 00 00          NEG    <$00
0362: 00 00          NEG    <$00
0364: 00 00          NEG    <$00
0366: 00 00          NEG    <$00
0368: 00 00          NEG    <$00
036A: 00 00          NEG    <$00
036C: 00 00          NEG    <$00
036E: 00 00          NEG    <$00
0370: 00 00          NEG    <$00
0372: 00 00          NEG    <$00
0374: 00 00          NEG    <$00
0376: 00 00          NEG    <$00
0378: 00 00          NEG    <$00
037A: 00 00          NEG    <$00
037C: 00 00          NEG    <$00
037E: 00 00          NEG    <$00
0380: FF 00 00       STU    >$0000
0383: 00 00          NEG    <$00
0385: 00 00          NEG    <$00
0387: 00 00          NEG    <$00
0389: 00 00          NEG    <$00
038B: 00 00          NEG    <$00
038D: 00 00          NEG    <$00
038F: 00 C3          NEG    <$C3
0391: C3 C3 C3       ADDD   #$C3C3
0394: C3 C3 C3       ADDD   #$C3C3
0397: C3 C3 C3       ADDD   #$C3C3
039A: C3 C3 C3       ADDD   #$C3C3
039D: C3 C3 C3       ADDD   #$C3C3
03A0: C3 C3 C3       ADDD   #$C3C3
03A3: C3 C3 C3       ADDD   #$C3C3
03A6: C3 C3 C3       ADDD   #$C3C3
03A9: C3 C3 C3       ADDD   #$C3C3
03AC: C3 C3 C3       ADDD   #$C3C3
03AF: C3 C3 C3       ADDD   #$C3C3
03B2: C3 C3 C3       ADDD   #$C3C3
03B5: C3 C3 C3       ADDD   #$C3C3
03B8: C3 C3 C3       ADDD   #$C3C3
03BB: C3 C3 C3       ADDD   #$C3C3
03BE: C3 C3 F3       ADDD   #$C3F3
03C1: F3 F3 F3       ADDD   $F3F3
03C4: F3 F3 F3       ADDD   $F3F3
03C7: F3 F3 F3       ADDD   $F3F3
03CA: F3 F3 F3       ADDD   $F3F3
03CD: F3 F3 F3       ADDD   $F3F3
03D0: F3 F3 F3       ADDD   $F3F3
03D3: F3 F3 F3       ADDD   $F3F3
03D6: F3 F3 F3       ADDD   $F3F3
03D9: F3 F3 F3       ADDD   $F3F3
03DC: F3 F3 F3       ADDD   $F3F3
03DF: F3 F3 F3       ADDD   $F3F3
03E2: F3 F3 F3       ADDD   $F3F3
03E5: F3 F3 F3       ADDD   $F3F3
03E8: F3 F3 F3       ADDD   $F3F3
03EB: F3 F3 F3       ADDD   $F3F3
03EE: F3 F3 F3       ADDD   $F3F3
03F1: F3 F3 F3       ADDD   $F3F3
03F4: F3 F3 F3       ADDD   $F3F3
03F7: F3 F3 F3       ADDD   $F3F3
03FA: F3 F3 F3       ADDD   $F3F3
03FD: F3 F3 F3       ADDD   $F3F3
0400: 00 00          NEG    <$00
0402: 00 00          NEG    <$00
0404: 00 00          NEG    <$00
0406: 00 00          NEG    <$00
0408: 00 00          NEG    <$00
040A: 00 00          NEG    <$00
040C: 00 00          NEG    <$00
040E: 00 00          NEG    <$00
0410: 00 00          NEG    <$00
0412: 00 00          NEG    <$00
0414: 00 00          NEG    <$00
0416: 00 00          NEG    <$00
0418: 00 00          NEG    <$00
041A: 00 00          NEG    <$00
041C: 00 00          NEG    <$00
041E: 00 00          NEG    <$00
0420: 00 00          NEG    <$00
0422: 00 00          NEG    <$00
0424: 00 00          NEG    <$00
0426: 00 00          NEG    <$00
0428: 00 00          NEG    <$00
042A: 00 00          NEG    <$00
042C: 00 00          NEG    <$00
042E: 00 00          NEG    <$00
0430: 00 00          NEG    <$00
0432: 00 00          NEG    <$00
0434: 00 00          NEG    <$00
0436: 00 00          NEG    <$00
0438: 00 00          NEG    <$00
043A: 00 00          NEG    <$00
043C: 00 00          NEG    <$00
043E: 00 00          NEG    <$00
0440: 00 00          NEG    <$00
0442: 00 00          NEG    <$00
0444: 00 00          NEG    <$00
0446: 00 00          NEG    <$00
0448: 00 00          NEG    <$00
044A: 00 00          NEG    <$00
044C: 00 00          NEG    <$00
044E: 00 00          NEG    <$00
0450: 00 00          NEG    <$00
0452: 00 00          NEG    <$00
0454: 00 00          NEG    <$00
0456: 00 00          NEG    <$00
0458: 00 00          NEG    <$00
045A: 00 00          NEG    <$00
045C: 00 00          NEG    <$00
045E: 00 00          NEG    <$00
0460: 00 00          NEG    <$00
0462: 00 00          NEG    <$00
0464: 00 00          NEG    <$00
0466: 00 00          NEG    <$00
0468: 00 00          NEG    <$00
046A: 00 00          NEG    <$00
046C: 00 00          NEG    <$00
046E: 00 00          NEG    <$00
0470: 00 00          NEG    <$00
0472: 00 00          NEG    <$00
0474: 00 00          NEG    <$00
0476: 00 00          NEG    <$00
0478: 00 00          NEG    <$00
047A: 00 00          NEG    <$00
047C: 00 00          NEG    <$00
047E: 00 00          NEG    <$00
0480: 00 00          NEG    <$00
0482: 00 00          NEG    <$00
0484: 00 00          NEG    <$00
0486: 00 00          NEG    <$00
0488: 00 00          NEG    <$00
048A: 00 00          NEG    <$00
048C: 00 00          NEG    <$00
048E: 00 00          NEG    <$00
0490: 00 00          NEG    <$00
0492: 00 00          NEG    <$00
0494: 00 00          NEG    <$00
0496: 00 00          NEG    <$00
0498: 00 00          NEG    <$00
049A: 00 00          NEG    <$00
049C: 00 00          NEG    <$00
049E: 00 00          NEG    <$00
04A0: 00 00          NEG    <$00
04A2: 00 00          NEG    <$00
04A4: 00 00          NEG    <$00
04A6: 00 00          NEG    <$00
04A8: 00 00          NEG    <$00
04AA: 00 00          NEG    <$00
04AC: 00 00          NEG    <$00
04AE: 00 00          NEG    <$00
04B0: 00 00          NEG    <$00
04B2: 00 00          NEG    <$00
04B4: 00 00          NEG    <$00
04B6: 00 00          NEG    <$00
04B8: 00 00          NEG    <$00
04BA: 00 00          NEG    <$00
04BC: 00 00          NEG    <$00
04BE: 00 00          NEG    <$00
04C0: 00 00          NEG    <$00
04C2: 00 00          NEG    <$00
04C4: 00 00          NEG    <$00
04C6: 00 00          NEG    <$00
04C8: 00 00          NEG    <$00
04CA: 00 00          NEG    <$00
04CC: 00 00          NEG    <$00
04CE: 00 00          NEG    <$00
04D0: 00 00          NEG    <$00
04D2: 00 00          NEG    <$00
04D4: 00 00          NEG    <$00
04D6: 00 00          NEG    <$00
04D8: 00 00          NEG    <$00
04DA: 00 00          NEG    <$00
04DC: 00 00          NEG    <$00
04DE: 00 00          NEG    <$00
04E0: 00 00          NEG    <$00
04E2: 00 00          NEG    <$00
04E4: 00 00          NEG    <$00
04E6: 00 00          NEG    <$00
04E8: 00 00          NEG    <$00
04EA: 00 00          NEG    <$00
04EC: 00 00          NEG    <$00
04EE: 00 00          NEG    <$00
04F0: 00 00          NEG    <$00
04F2: 00 00          NEG    <$00
04F4: 00 00          NEG    <$00
04F6: 00 00          NEG    <$00
04F8: 00 00          NEG    <$00
04FA: 00 00          NEG    <$00
04FC: 00 00          NEG    <$00
04FE: 00 00          NEG    <$00
0500: 00 00          NEG    <$00
0502: 00 00          NEG    <$00
0504: 00 00          NEG    <$00
0506: 00 00          NEG    <$00
0508: 00 00          NEG    <$00
050A: 00 00          NEG    <$00
050C: 00 00          NEG    <$00
050E: 00 00          NEG    <$00
0510: 00 00          NEG    <$00
0512: 00 00          NEG    <$00
0514: 00 00          NEG    <$00
0516: 00 00          NEG    <$00
0518: 00 00          NEG    <$00
051A: 00 00          NEG    <$00
051C: 00 00          NEG    <$00
051E: 00 00          NEG    <$00
0520: 00 00          NEG    <$00
0522: 00 00          NEG    <$00
0524: 00 00          NEG    <$00
0526: 00 00          NEG    <$00
0528: 00 00          NEG    <$00
052A: 00 00          NEG    <$00
052C: 00 00          NEG    <$00
052E: 00 00          NEG    <$00
0530: 00 00          NEG    <$00
0532: 00 00          NEG    <$00
0534: 00 00          NEG    <$00
0536: 00 00          NEG    <$00
0538: 00 00          NEG    <$00
053A: 00 00          NEG    <$00
053C: 00 00          NEG    <$00
053E: 00 00          NEG    <$00
0540: 00 00          NEG    <$00
0542: 00 00          NEG    <$00
0544: 00 00          NEG    <$00
0546: 00 00          NEG    <$00
0548: 00 00          NEG    <$00
054A: 00 00          NEG    <$00
054C: 00 00          NEG    <$00
054E: 00 00          NEG    <$00
0550: 00 00          NEG    <$00
0552: 00 00          NEG    <$00
0554: 00 00          NEG    <$00
0556: 00 00          NEG    <$00
0558: 00 00          NEG    <$00
055A: 00 00          NEG    <$00
055C: 00 00          NEG    <$00
055E: 00 00          NEG    <$00
0560: 00 00          NEG    <$00
0562: 00 00          NEG    <$00
0564: 00 00          NEG    <$00
0566: 00 00          NEG    <$00
0568: 00 00          NEG    <$00
056A: 00 00          NEG    <$00
056C: 00 00          NEG    <$00
056E: 00 00          NEG    <$00
0570: 00 00          NEG    <$00
0572: 00 00          NEG    <$00
0574: 00 00          NEG    <$00
0576: 00 00          NEG    <$00
0578: 00 00          NEG    <$00
057A: 00 00          NEG    <$00
057C: 00 00          NEG    <$00
057E: 00 00          NEG    <$00
0580: 00 00          NEG    <$00
0582: 00 00          NEG    <$00
0584: 00 00          NEG    <$00
0586: 00 00          NEG    <$00
0588: 00 00          NEG    <$00
058A: 00 00          NEG    <$00
058C: 00 00          NEG    <$00
058E: 00 00          NEG    <$00
0590: 00 00          NEG    <$00
0592: 00 00          NEG    <$00
0594: 00 00          NEG    <$00
0596: 00 00          NEG    <$00
0598: 00 00          NEG    <$00
059A: 00 00          NEG    <$00
059C: 00 00          NEG    <$00
059E: 00 00          NEG    <$00
05A0: 00 00          NEG    <$00
05A2: 00 00          NEG    <$00
05A4: 00 00          NEG    <$00
05A6: 00 00          NEG    <$00
05A8: 00 00          NEG    <$00
05AA: 00 00          NEG    <$00
05AC: 00 00          NEG    <$00
05AE: 00 00          NEG    <$00
05B0: 00 00          NEG    <$00
05B2: 00 00          NEG    <$00
05B4: 00 00          NEG    <$00
05B6: 00 00          NEG    <$00
05B8: 00 00          NEG    <$00
05BA: 00 00          NEG    <$00
05BC: 00 00          NEG    <$00
05BE: 00 00          NEG    <$00
05C0: 00 00          NEG    <$00
05C2: 00 00          NEG    <$00
05C4: 00 00          NEG    <$00
05C6: 00 00          NEG    <$00
05C8: 00 00          NEG    <$00
05CA: 00 00          NEG    <$00
05CC: 00 00          NEG    <$00
05CE: 00 00          NEG    <$00
05D0: 00 00          NEG    <$00
05D2: 00 00          NEG    <$00
05D4: 00 00          NEG    <$00
05D6: 00 00          NEG    <$00
05D8: 00 00          NEG    <$00
05DA: 00 00          NEG    <$00
05DC: 00 00          NEG    <$00
05DE: 00 00          NEG    <$00
05E0: 00 00          NEG    <$00
05E2: 00 00          NEG    <$00
05E4: 00 00          NEG    <$00
05E6: 00 00          NEG    <$00
05E8: 00 00          NEG    <$00
05EA: 00 00          NEG    <$00
05EC: 00 00          NEG    <$00
05EE: 00 00          NEG    <$00
05F0: 00 00          NEG    <$00
05F2: 00 00          NEG    <$00
05F4: 00 00          NEG    <$00
05F6: 00 00          NEG    <$00
05F8: 00 00          NEG    <$00
05FA: 00 00          NEG    <$00
05FC: 00 00          NEG    <$00
05FE: 00 00          NEG    <$00
0600: 00 00          NEG    <$00
0602: 00 00          NEG    <$00
0604: 00 00          NEG    <$00
0606: 00 00          NEG    <$00
0608: 00 00          NEG    <$00
060A: 00 00          NEG    <$00
060C: 00 00          NEG    <$00
060E: 00 00          NEG    <$00
0610: 00 00          NEG    <$00
0612: 00 00          NEG    <$00
0614: 00 00          NEG    <$00
0616: 00 00          NEG    <$00
0618: 00 00          NEG    <$00
061A: 00 00          NEG    <$00
061C: 00 00          NEG    <$00
061E: 00 00          NEG    <$00
0620: 00 00          NEG    <$00
0622: 00 00          NEG    <$00
0624: 00 00          NEG    <$00
0626: 00 00          NEG    <$00
0628: 00 00          NEG    <$00
062A: 00 00          NEG    <$00
062C: 00 00          NEG    <$00
062E: 00 00          NEG    <$00
0630: 00 00          NEG    <$00
0632: 00 00          NEG    <$00
0634: 00 00          NEG    <$00
0636: 00 00          NEG    <$00
0638: 00 00          NEG    <$00
063A: 00 00          NEG    <$00
063C: 00 00          NEG    <$00
063E: 00 00          NEG    <$00
0640: 00 00          NEG    <$00
0642: 00 00          NEG    <$00
0644: 00 00          NEG    <$00
0646: 00 00          NEG    <$00
0648: 00 00          NEG    <$00
064A: 00 00          NEG    <$00
064C: 00 00          NEG    <$00
064E: 00 00          NEG    <$00
0650: 00 00          NEG    <$00
0652: 00 00          NEG    <$00
0654: 00 00          NEG    <$00
0656: 00 00          NEG    <$00
0658: 00 00          NEG    <$00
065A: 00 00          NEG    <$00
065C: 00 00          NEG    <$00
065E: 00 00          NEG    <$00
0660: 00 00          NEG    <$00
0662: 00 00          NEG    <$00
0664: 00 00          NEG    <$00
0666: 00 00          NEG    <$00
0668: 00 00          NEG    <$00
066A: 00 00          NEG    <$00
066C: 00 00          NEG    <$00
066E: 00 00          NEG    <$00
0670: 00 00          NEG    <$00
0672: 00 00          NEG    <$00
0674: 00 00          NEG    <$00
0676: 00 00          NEG    <$00
0678: 00 00          NEG    <$00
067A: 00 00          NEG    <$00
067C: 00 00          NEG    <$00
067E: 00 00          NEG    <$00
0680: 00 00          NEG    <$00
0682: 00 00          NEG    <$00
0684: 00 00          NEG    <$00
0686: 00 00          NEG    <$00
0688: 00 00          NEG    <$00
068A: 00 00          NEG    <$00
068C: 00 00          NEG    <$00
068E: 00 00          NEG    <$00
0690: 00 00          NEG    <$00
0692: 00 00          NEG    <$00
0694: 00 00          NEG    <$00
0696: 00 00          NEG    <$00
0698: 00 00          NEG    <$00
069A: 00 00          NEG    <$00
069C: 00 00          NEG    <$00
069E: 00 00          NEG    <$00
06A0: 00 00          NEG    <$00
06A2: 00 00          NEG    <$00
06A4: 00 00          NEG    <$00
06A6: 00 00          NEG    <$00
06A8: 00 00          NEG    <$00
06AA: 00 00          NEG    <$00
06AC: 00 00          NEG    <$00
06AE: 00 00          NEG    <$00
06B0: 00 00          NEG    <$00
06B2: 00 00          NEG    <$00
06B4: 00 00          NEG    <$00
06B6: 00 00          NEG    <$00
06B8: 00 00          NEG    <$00
06BA: 00 00          NEG    <$00
06BC: 00 00          NEG    <$00
06BE: 00 00          NEG    <$00
06C0: 00 00          NEG    <$00
06C2: 00 00          NEG    <$00
06C4: 00 00          NEG    <$00
06C6: 00 00          NEG    <$00
06C8: 00 00          NEG    <$00
06CA: 00 00          NEG    <$00
06CC: 00 00          NEG    <$00
06CE: 00 00          NEG    <$00
06D0: 00 00          NEG    <$00
06D2: 00 00          NEG    <$00
06D4: 00 00          NEG    <$00
06D6: 00 00          NEG    <$00
06D8: 00 00          NEG    <$00
06DA: 00 00          NEG    <$00
06DC: 00 00          NEG    <$00
06DE: 00 00          NEG    <$00
06E0: 00 00          NEG    <$00
06E2: 00 00          NEG    <$00
06E4: 00 00          NEG    <$00
06E6: 00 00          NEG    <$00
06E8: 00 00          NEG    <$00
06EA: 00 00          NEG    <$00
06EC: 00 00          NEG    <$00
06EE: 00 00          NEG    <$00
06F0: 00 00          NEG    <$00
06F2: 00 00          NEG    <$00
06F4: 00 00          NEG    <$00
06F6: 00 00          NEG    <$00
06F8: 00 00          NEG    <$00
06FA: 00 00          NEG    <$00
06FC: 00 00          NEG    <$00
06FE: 00 00          NEG    <$00
0700: 00 00          NEG    <$00
0702: 00 00          NEG    <$00
0704: 00 00          NEG    <$00
0706: 00 00          NEG    <$00
0708: 00 00          NEG    <$00
070A: 00 00          NEG    <$00
070C: 00 00          NEG    <$00
070E: 00 00          NEG    <$00
0710: 00 00          NEG    <$00
0712: 00 00          NEG    <$00
0714: 00 00          NEG    <$00
0716: 00 00          NEG    <$00
0718: 00 00          NEG    <$00
071A: 00 00          NEG    <$00
071C: 00 00          NEG    <$00
071E: 00 00          NEG    <$00
0720: 00 00          NEG    <$00
0722: 00 00          NEG    <$00
0724: 00 00          NEG    <$00
0726: 00 00          NEG    <$00
0728: 00 00          NEG    <$00
072A: 00 00          NEG    <$00
072C: 00 00          NEG    <$00
072E: 00 00          NEG    <$00
0730: 00 00          NEG    <$00
0732: 00 00          NEG    <$00
0734: 00 00          NEG    <$00
0736: 00 00          NEG    <$00
0738: 00 00          NEG    <$00
073A: 00 00          NEG    <$00
073C: 00 00          NEG    <$00
073E: 00 00          NEG    <$00
0740: 00 00          NEG    <$00
0742: 00 00          NEG    <$00
0744: 00 00          NEG    <$00
0746: 00 00          NEG    <$00
0748: 00 00          NEG    <$00
074A: 00 00          NEG    <$00
074C: 00 00          NEG    <$00
074E: 00 00          NEG    <$00
0750: 00 00          NEG    <$00
0752: 00 00          NEG    <$00
0754: 00 00          NEG    <$00
0756: 00 00          NEG    <$00
0758: 00 00          NEG    <$00
075A: 00 00          NEG    <$00
075C: 00 00          NEG    <$00
075E: 00 00          NEG    <$00
0760: 00 00          NEG    <$00
0762: 00 00          NEG    <$00
0764: 00 00          NEG    <$00
0766: 00 00          NEG    <$00
0768: 00 00          NEG    <$00
076A: 00 00          NEG    <$00
076C: 00 00          NEG    <$00
076E: 00 00          NEG    <$00
0770: 00 00          NEG    <$00
0772: 00 00          NEG    <$00
0774: 00 00          NEG    <$00
0776: 00 00          NEG    <$00
0778: 00 00          NEG    <$00
077A: 00 00          NEG    <$00
077C: 00 00          NEG    <$00
077E: 00 00          NEG    <$00
0780: 00 00          NEG    <$00
0782: 00 00          NEG    <$00
0784: 00 00          NEG    <$00
0786: 00 00          NEG    <$00
0788: 00 00          NEG    <$00
078A: 00 00          NEG    <$00
078C: 00 00          NEG    <$00
078E: 00 00          NEG    <$00
0790: 00 00          NEG    <$00
0792: 00 00          NEG    <$00
0794: 00 00          NEG    <$00
0796: 00 00          NEG    <$00
0798: 00 00          NEG    <$00
079A: 00 00          NEG    <$00
079C: 00 00          NEG    <$00
079E: 00 00          NEG    <$00
07A0: 00 00          NEG    <$00
07A2: 00 00          NEG    <$00
07A4: 00 00          NEG    <$00
07A6: 00 00          NEG    <$00
07A8: 00 00          NEG    <$00
07AA: 00 00          NEG    <$00
07AC: 00 00          NEG    <$00
07AE: 00 00          NEG    <$00
07B0: 00 00          NEG    <$00
07B2: 00 00          NEG    <$00
07B4: 00 00          NEG    <$00
07B6: 00 00          NEG    <$00
07B8: 00 00          NEG    <$00
07BA: 00 00          NEG    <$00
07BC: 00 00          NEG    <$00
07BE: 00 00          NEG    <$00
07C0: 00 00          NEG    <$00
07C2: 00 00          NEG    <$00
07C4: 00 00          NEG    <$00
07C6: 00 00          NEG    <$00
07C8: 00 00          NEG    <$00
07CA: 00 00          NEG    <$00
07CC: 00 00          NEG    <$00
07CE: 00 00          NEG    <$00
07D0: 00 00          NEG    <$00
07D2: 00 00          NEG    <$00
07D4: 00 00          NEG    <$00
07D6: 00 00          NEG    <$00
07D8: 00 00          NEG    <$00
07DA: 00 00          NEG    <$00
07DC: 00 00          NEG    <$00
07DE: 00 00          NEG    <$00
07E0: 00 00          NEG    <$00
07E2: 00 00          NEG    <$00
07E4: 00 00          NEG    <$00
07E6: 00 00          NEG    <$00
07E8: 00 00          NEG    <$00
07EA: 00 00          NEG    <$00
07EC: 00 00          NEG    <$00
07EE: 00 00          NEG    <$00
07F0: 00 00          NEG    <$00
07F2: 00 00          NEG    <$00
07F4: 00 00          NEG    <$00
07F6: 00 00          NEG    <$00
07F8: 00 00          NEG    <$00
07FA: 00 00          NEG    <$00
07FC: 00 00          NEG    <$00
07FE: 00 00          NEG    <$00
0800: 00 00          NEG    <$00
0802: 00 00          NEG    <$00
0804: 00 00          NEG    <$00
0806: 00 00          NEG    <$00
0808: 00 00          NEG    <$00
080A: 00 00          NEG    <$00
080C: 00 00          NEG    <$00
080E: 00 00          NEG    <$00
0810: 00 00          NEG    <$00
0812: 00 00          NEG    <$00
0814: 00 00          NEG    <$00
0816: 00 00          NEG    <$00
0818: 00 00          NEG    <$00
081A: 00 00          NEG    <$00
081C: 00 00          NEG    <$00
081E: 00 00          NEG    <$00
0820: 00 00          NEG    <$00
0822: 00 00          NEG    <$00
0824: 00 00          NEG    <$00
0826: 00 00          NEG    <$00
0828: 00 00          NEG    <$00
082A: 00 00          NEG    <$00
082C: 00 00          NEG    <$00
082E: 00 00          NEG    <$00
0830: 00 00          NEG    <$00
0832: 00 00          NEG    <$00
0834: 00 00          NEG    <$00
0836: 00 00          NEG    <$00
0838: 00 00          NEG    <$00
083A: 00 00          NEG    <$00
083C: 00 00          NEG    <$00
083E: 00 00          NEG    <$00
0840: 00 00          NEG    <$00
0842: 00 00          NEG    <$00
0844: 00 00          NEG    <$00
0846: 00 00          NEG    <$00
0848: 00 00          NEG    <$00
084A: 00 00          NEG    <$00
084C: 00 00          NEG    <$00
084E: 00 00          NEG    <$00
0850: 00 00          NEG    <$00
0852: 00 00          NEG    <$00
0854: 00 00          NEG    <$00
0856: 00 00          NEG    <$00
0858: 00 00          NEG    <$00
085A: 00 00          NEG    <$00
085C: 00 00          NEG    <$00
085E: 00 00          NEG    <$00
0860: 00 00          NEG    <$00
0862: 00 00          NEG    <$00
0864: 00 00          NEG    <$00
0866: 00 00          NEG    <$00
0868: 00 00          NEG    <$00
086A: 00 00          NEG    <$00
086C: 00 00          NEG    <$00
086E: 00 00          NEG    <$00
0870: 00 00          NEG    <$00
0872: 00 00          NEG    <$00
0874: 00 00          NEG    <$00
0876: 00 00          NEG    <$00
0878: 00 00          NEG    <$00
087A: 00 00          NEG    <$00
087C: 00 00          NEG    <$00
087E: 00 00          NEG    <$00
0880: 00 00          NEG    <$00
0882: 00 00          NEG    <$00
0884: 00 00          NEG    <$00
0886: 00 00          NEG    <$00
0888: 00 00          NEG    <$00
088A: 00 00          NEG    <$00
088C: 00 00          NEG    <$00
088E: 00 00          NEG    <$00
0890: 00 00          NEG    <$00
0892: 00 00          NEG    <$00
0894: 00 00          NEG    <$00
0896: 00 00          NEG    <$00
0898: 00 00          NEG    <$00
089A: 00 00          NEG    <$00
089C: 00 00          NEG    <$00
089E: 00 00          NEG    <$00
08A0: 00 00          NEG    <$00
08A2: 00 00          NEG    <$00
08A4: 00 00          NEG    <$00
08A6: 00 00          NEG    <$00
08A8: 00 00          NEG    <$00
08AA: 00 00          NEG    <$00
08AC: 00 00          NEG    <$00
08AE: 00 00          NEG    <$00
08B0: 00 00          NEG    <$00
08B2: 00 00          NEG    <$00
08B4: 00 00          NEG    <$00
08B6: 00 00          NEG    <$00
08B8: 00 00          NEG    <$00
08BA: 00 00          NEG    <$00
08BC: 00 00          NEG    <$00
08BE: 00 00          NEG    <$00
08C0: 00 00          NEG    <$00
08C2: 00 00          NEG    <$00
08C4: 00 00          NEG    <$00
08C6: 00 00          NEG    <$00
08C8: 00 00          NEG    <$00
08CA: 00 00          NEG    <$00
08CC: 00 00          NEG    <$00
08CE: 00 00          NEG    <$00
08D0: 00 00          NEG    <$00
08D2: 00 00          NEG    <$00
08D4: 00 00          NEG    <$00
08D6: 00 00          NEG    <$00
08D8: 00 00          NEG    <$00
08DA: 00 00          NEG    <$00
08DC: 00 00          NEG    <$00
08DE: 00 00          NEG    <$00
08E0: 00 00          NEG    <$00
08E2: 00 00          NEG    <$00
08E4: 00 00          NEG    <$00
08E6: 00 00          NEG    <$00
08E8: 00 00          NEG    <$00
08EA: 00 00          NEG    <$00
08EC: 00 00          NEG    <$00
08EE: 00 00          NEG    <$00
08F0: 00 00          NEG    <$00
08F2: 00 00          NEG    <$00
08F4: 00 00          NEG    <$00
08F6: 00 00          NEG    <$00
08F8: 00 00          NEG    <$00
08FA: 00 00          NEG    <$00
08FC: 00 00          NEG    <$00
08FE: 00 00          NEG    <$00
0900: 00 00          NEG    <$00
0902: 00 00          NEG    <$00
0904: 00 00          NEG    <$00
0906: 00 00          NEG    <$00
0908: 00 00          NEG    <$00
090A: 00 00          NEG    <$00
090C: 00 00          NEG    <$00
090E: 00 00          NEG    <$00
0910: 00 00          NEG    <$00
0912: 00 00          NEG    <$00
0914: 00 00          NEG    <$00
0916: 00 00          NEG    <$00
0918: 00 00          NEG    <$00
091A: 00 00          NEG    <$00
091C: 00 00          NEG    <$00
091E: 00 00          NEG    <$00
0920: 00 00          NEG    <$00
0922: 00 00          NEG    <$00
0924: 00 00          NEG    <$00
0926: 00 00          NEG    <$00
0928: 00 00          NEG    <$00
092A: 00 00          NEG    <$00
092C: 00 00          NEG    <$00
092E: 00 00          NEG    <$00
0930: 00 00          NEG    <$00
0932: 00 00          NEG    <$00
0934: 00 00          NEG    <$00
0936: 00 00          NEG    <$00
0938: 00 00          NEG    <$00
093A: 00 00          NEG    <$00
093C: 00 00          NEG    <$00
093E: 00 00          NEG    <$00
0940: 00 00          NEG    <$00
0942: 00 00          NEG    <$00
0944: 00 00          NEG    <$00
0946: 00 00          NEG    <$00
0948: 00 00          NEG    <$00
094A: 00 00          NEG    <$00
094C: 00 00          NEG    <$00
094E: 00 00          NEG    <$00
0950: 00 00          NEG    <$00
0952: 00 00          NEG    <$00
0954: 00 00          NEG    <$00
0956: 00 00          NEG    <$00
0958: 00 00          NEG    <$00
095A: 00 00          NEG    <$00
095C: 00 00          NEG    <$00
095E: 00 00          NEG    <$00
0960: 00 00          NEG    <$00
0962: 00 00          NEG    <$00
0964: 00 00          NEG    <$00
0966: 00 00          NEG    <$00
0968: 00 00          NEG    <$00
096A: 00 00          NEG    <$00
096C: 00 00          NEG    <$00
096E: 00 00          NEG    <$00
0970: 00 00          NEG    <$00
0972: 00 00          NEG    <$00
0974: 00 00          NEG    <$00
0976: 00 00          NEG    <$00
0978: 00 00          NEG    <$00
097A: 00 00          NEG    <$00
097C: 00 00          NEG    <$00
097E: 00 00          NEG    <$00
0980: 00 00          NEG    <$00
0982: 00 00          NEG    <$00
0984: 00 00          NEG    <$00
0986: 00 00          NEG    <$00
0988: 00 00          NEG    <$00
098A: 00 00          NEG    <$00
098C: 00 00          NEG    <$00
098E: 00 00          NEG    <$00
0990: 00 00          NEG    <$00
0992: 00 00          NEG    <$00
0994: 00 00          NEG    <$00
0996: 00 00          NEG    <$00
0998: 00 00          NEG    <$00
099A: 00 00          NEG    <$00
099C: 00 00          NEG    <$00
099E: 00 00          NEG    <$00
09A0: 00 00          NEG    <$00
09A2: 00 00          NEG    <$00
09A4: 00 00          NEG    <$00
09A6: 00 00          NEG    <$00
09A8: 00 00          NEG    <$00
09AA: 00 00          NEG    <$00
09AC: 00 00          NEG    <$00
09AE: 00 00          NEG    <$00
09B0: 00 00          NEG    <$00
09B2: 00 00          NEG    <$00
09B4: 00 00          NEG    <$00
09B6: 00 00          NEG    <$00
09B8: 00 00          NEG    <$00
09BA: 00 00          NEG    <$00
09BC: 00 00          NEG    <$00
09BE: 00 00          NEG    <$00
09C0: 00 00          NEG    <$00
09C2: 00 00          NEG    <$00
09C4: 00 00          NEG    <$00
09C6: 00 00          NEG    <$00
09C8: 00 00          NEG    <$00
09CA: 00 00          NEG    <$00
09CC: 00 00          NEG    <$00
09CE: 00 00          NEG    <$00
09D0: 00 00          NEG    <$00
09D2: 00 00          NEG    <$00
09D4: 00 00          NEG    <$00
09D6: 00 00          NEG    <$00
09D8: 00 00          NEG    <$00
09DA: 00 00          NEG    <$00
09DC: 00 00          NEG    <$00
09DE: 00 00          NEG    <$00
09E0: 00 00          NEG    <$00
09E2: 00 00          NEG    <$00
09E4: 00 00          NEG    <$00
09E6: 00 00          NEG    <$00
09E8: 00 00          NEG    <$00
09EA: 00 00          NEG    <$00
09EC: 00 00          NEG    <$00
09EE: 00 00          NEG    <$00
09F0: 00 00          NEG    <$00
09F2: 00 00          NEG    <$00
09F4: 00 00          NEG    <$00
09F6: 00 00          NEG    <$00
09F8: 00 00          NEG    <$00
09FA: 00 00          NEG    <$00
09FC: 00 00          NEG    <$00
09FE: 00 00          NEG    <$00
0A00: 00 00          NEG    <$00
0A02: 00 00          NEG    <$00
0A04: 00 00          NEG    <$00
0A06: 00 00          NEG    <$00
0A08: 00 00          NEG    <$00
0A0A: 00 00          NEG    <$00
0A0C: 00 00          NEG    <$00
0A0E: 00 00          NEG    <$00
0A10: 00 00          NEG    <$00
0A12: 00 00          NEG    <$00
0A14: 00 00          NEG    <$00
0A16: 00 00          NEG    <$00
0A18: 00 00          NEG    <$00
0A1A: 00 00          NEG    <$00
0A1C: 00 00          NEG    <$00
0A1E: 00 00          NEG    <$00
0A20: 00 00          NEG    <$00
0A22: 00 00          NEG    <$00
0A24: 00 00          NEG    <$00
0A26: 00 00          NEG    <$00
0A28: 00 00          NEG    <$00
0A2A: 00 00          NEG    <$00
0A2C: 00 00          NEG    <$00
0A2E: 00 00          NEG    <$00
0A30: 00 00          NEG    <$00
0A32: 00 00          NEG    <$00
0A34: 00 00          NEG    <$00
0A36: 00 00          NEG    <$00
0A38: 00 00          NEG    <$00
0A3A: 00 00          NEG    <$00
0A3C: 00 00          NEG    <$00
0A3E: 00 00          NEG    <$00
0A40: 00 00          NEG    <$00
0A42: 00 00          NEG    <$00
0A44: 00 00          NEG    <$00
0A46: 00 00          NEG    <$00
0A48: 00 00          NEG    <$00
0A4A: 00 00          NEG    <$00
0A4C: 00 00          NEG    <$00
0A4E: 00 00          NEG    <$00
0A50: 00 00          NEG    <$00
0A52: 00 00          NEG    <$00
0A54: 00 00          NEG    <$00
0A56: 00 00          NEG    <$00
0A58: 00 00          NEG    <$00
0A5A: 00 00          NEG    <$00
0A5C: 00 00          NEG    <$00
0A5E: 00 00          NEG    <$00
0A60: 00 00          NEG    <$00
0A62: 00 00          NEG    <$00
0A64: 00 00          NEG    <$00
0A66: 00 00          NEG    <$00
0A68: 00 00          NEG    <$00
0A6A: 00 00          NEG    <$00
0A6C: 00 00          NEG    <$00
0A6E: 00 00          NEG    <$00
0A70: 00 00          NEG    <$00
0A72: 00 00          NEG    <$00
0A74: 00 00          NEG    <$00
0A76: 00 00          NEG    <$00
0A78: 00 00          NEG    <$00
0A7A: 00 00          NEG    <$00
0A7C: 00 00          NEG    <$00
0A7E: 00 00          NEG    <$00
0A80: 00 00          NEG    <$00
0A82: 00 00          NEG    <$00
0A84: 00 00          NEG    <$00
0A86: 00 00          NEG    <$00
0A88: 00 00          NEG    <$00
0A8A: 00 00          NEG    <$00
0A8C: 00 00          NEG    <$00
0A8E: 00 00          NEG    <$00
0A90: 00 00          NEG    <$00
0A92: 00 00          NEG    <$00
0A94: 00 00          NEG    <$00
0A96: 00 00          NEG    <$00
0A98: 00 00          NEG    <$00
0A9A: 00 00          NEG    <$00
0A9C: 00 00          NEG    <$00
0A9E: 00 00          NEG    <$00
0AA0: 00 00          NEG    <$00
0AA2: 00 00          NEG    <$00
0AA4: 00 00          NEG    <$00
0AA6: 00 00          NEG    <$00
0AA8: 00 00          NEG    <$00
0AAA: 00 00          NEG    <$00
0AAC: 00 00          NEG    <$00
0AAE: 00 00          NEG    <$00
0AB0: 00 00          NEG    <$00
0AB2: 00 00          NEG    <$00
0AB4: 00 00          NEG    <$00
0AB6: 00 00          NEG    <$00
0AB8: 00 00          NEG    <$00
0ABA: 00 00          NEG    <$00
0ABC: 00 00          NEG    <$00
0ABE: 00 00          NEG    <$00
0AC0: 00 00          NEG    <$00
0AC2: 00 00          NEG    <$00
0AC4: 00 00          NEG    <$00
0AC6: 00 00          NEG    <$00
0AC8: 00 00          NEG    <$00
0ACA: 00 00          NEG    <$00
0ACC: 00 00          NEG    <$00
0ACE: 00 00          NEG    <$00
0AD0: 00 00          NEG    <$00
0AD2: 00 00          NEG    <$00
0AD4: 00 00          NEG    <$00
0AD6: 00 00          NEG    <$00
0AD8: 00 00          NEG    <$00
0ADA: 00 00          NEG    <$00
0ADC: 00 00          NEG    <$00
0ADE: 00 00          NEG    <$00
0AE0: 00 00          NEG    <$00
0AE2: 00 00          NEG    <$00
0AE4: 00 00          NEG    <$00
0AE6: 00 00          NEG    <$00
0AE8: 00 00          NEG    <$00
0AEA: 00 00          NEG    <$00
0AEC: 00 00          NEG    <$00
0AEE: 00 00          NEG    <$00
0AF0: 00 00          NEG    <$00
0AF2: 00 00          NEG    <$00
0AF4: 00 00          NEG    <$00
0AF6: 00 00          NEG    <$00
0AF8: 00 00          NEG    <$00
0AFA: 00 00          NEG    <$00
0AFC: 00 00          NEG    <$00
0AFE: 00 00          NEG    <$00
0B00: 00 00          NEG    <$00
0B02: 00 00          NEG    <$00
0B04: 00 00          NEG    <$00
0B06: 00 00          NEG    <$00
0B08: 00 00          NEG    <$00
0B0A: 00 00          NEG    <$00
0B0C: 00 00          NEG    <$00
0B0E: 00 00          NEG    <$00
0B10: 00 00          NEG    <$00
0B12: 00 00          NEG    <$00
0B14: 00 00          NEG    <$00
0B16: 00 00          NEG    <$00
0B18: 00 00          NEG    <$00
0B1A: 00 00          NEG    <$00
0B1C: 00 00          NEG    <$00
0B1E: 00 00          NEG    <$00
0B20: 00 00          NEG    <$00
0B22: 00 00          NEG    <$00
0B24: 00 00          NEG    <$00
0B26: 00 00          NEG    <$00
0B28: 00 00          NEG    <$00
0B2A: 00 00          NEG    <$00
0B2C: 00 00          NEG    <$00
0B2E: 00 00          NEG    <$00
0B30: 00 00          NEG    <$00
0B32: 00 00          NEG    <$00
0B34: 00 00          NEG    <$00
0B36: 00 00          NEG    <$00
0B38: 00 00          NEG    <$00
0B3A: 00 00          NEG    <$00
0B3C: 00 00          NEG    <$00
0B3E: 00 00          NEG    <$00
0B40: 00 00          NEG    <$00
0B42: 00 00          NEG    <$00
0B44: 00 00          NEG    <$00
0B46: 00 00          NEG    <$00
0B48: 00 00          NEG    <$00
0B4A: 00 00          NEG    <$00
0B4C: 00 00          NEG    <$00
0B4E: 00 00          NEG    <$00
0B50: 00 00          NEG    <$00
0B52: 00 00          NEG    <$00
0B54: 00 00          NEG    <$00
0B56: 00 00          NEG    <$00
0B58: 00 00          NEG    <$00
0B5A: 00 00          NEG    <$00
0B5C: 00 00          NEG    <$00
0B5E: 00 00          NEG    <$00
0B60: 00 00          NEG    <$00
0B62: 00 00          NEG    <$00
0B64: 00 00          NEG    <$00
0B66: 00 00          NEG    <$00
0B68: 00 00          NEG    <$00
0B6A: 00 00          NEG    <$00
0B6C: 00 00          NEG    <$00
0B6E: 00 00          NEG    <$00
0B70: 00 00          NEG    <$00
0B72: 00 00          NEG    <$00
0B74: 00 00          NEG    <$00
0B76: 00 00          NEG    <$00
0B78: 00 00          NEG    <$00
0B7A: 00 00          NEG    <$00
0B7C: 00 00          NEG    <$00
0B7E: 00 00          NEG    <$00
0B80: 00 00          NEG    <$00
0B82: 00 00          NEG    <$00
0B84: 00 00          NEG    <$00
0B86: 00 00          NEG    <$00
0B88: 00 00          NEG    <$00
0B8A: 00 00          NEG    <$00
0B8C: 00 00          NEG    <$00
0B8E: 00 00          NEG    <$00
0B90: 00 00          NEG    <$00
0B92: 00 00          NEG    <$00
0B94: 00 00          NEG    <$00
0B96: 00 00          NEG    <$00
0B98: 00 00          NEG    <$00
0B9A: 00 00          NEG    <$00
0B9C: 00 00          NEG    <$00
0B9E: 00 00          NEG    <$00
0BA0: 00 00          NEG    <$00
0BA2: 00 00          NEG    <$00
0BA4: 00 00          NEG    <$00
0BA6: 00 00          NEG    <$00
0BA8: 00 00          NEG    <$00
0BAA: 00 00          NEG    <$00
0BAC: 00 00          NEG    <$00
0BAE: 00 00          NEG    <$00
0BB0: 00 00          NEG    <$00
0BB2: 00 00          NEG    <$00
0BB4: 00 00          NEG    <$00
0BB6: 00 00          NEG    <$00
0BB8: 00 00          NEG    <$00
0BBA: 00 00          NEG    <$00
0BBC: 00 00          NEG    <$00
0BBE: 00 00          NEG    <$00
0BC0: 00 00          NEG    <$00
0BC2: 00 00          NEG    <$00
0BC4: 00 00          NEG    <$00
0BC6: 00 00          NEG    <$00
0BC8: 00 00          NEG    <$00
0BCA: 00 00          NEG    <$00
0BCC: 00 00          NEG    <$00
0BCE: 00 00          NEG    <$00
0BD0: 00 00          NEG    <$00
0BD2: 00 00          NEG    <$00
0BD4: 00 00          NEG    <$00
0BD6: 00 00          NEG    <$00
0BD8: 00 00          NEG    <$00
0BDA: 00 00          NEG    <$00
0BDC: 00 00          NEG    <$00
0BDE: 00 00          NEG    <$00
0BE0: 00 00          NEG    <$00
0BE2: 00 00          NEG    <$00
0BE4: 00 00          NEG    <$00
0BE6: 00 00          NEG    <$00
0BE8: 00 00          NEG    <$00
0BEA: 00 00          NEG    <$00
0BEC: 00 00          NEG    <$00
0BEE: 00 00          NEG    <$00
0BF0: 00 00          NEG    <$00
0BF2: 00 00          NEG    <$00
0BF4: 00 00          NEG    <$00
0BF6: 00 00          NEG    <$00
0BF8: 00 00          NEG    <$00
0BFA: 00 00          NEG    <$00
0BFC: 00 00          NEG    <$00
0BFE: 00 00          NEG    <$00
0C00: 00 00          NEG    <$00
0C02: 00 00          NEG    <$00
0C04: 00 00          NEG    <$00
0C06: 00 00          NEG    <$00
0C08: 00 00          NEG    <$00
0C0A: 00 00          NEG    <$00
0C0C: 00 00          NEG    <$00
0C0E: 00 00          NEG    <$00
0C10: 00 00          NEG    <$00
0C12: 00 00          NEG    <$00
0C14: 00 00          NEG    <$00
0C16: 00 00          NEG    <$00
0C18: 00 00          NEG    <$00
0C1A: 00 00          NEG    <$00
0C1C: 00 00          NEG    <$00
0C1E: 00 00          NEG    <$00
0C20: 00 00          NEG    <$00
0C22: 00 00          NEG    <$00
0C24: 00 00          NEG    <$00
0C26: 00 00          NEG    <$00
0C28: 00 00          NEG    <$00
0C2A: 00 00          NEG    <$00
0C2C: 00 00          NEG    <$00
0C2E: 00 00          NEG    <$00
0C30: 00 00          NEG    <$00
0C32: 00 00          NEG    <$00
0C34: 00 00          NEG    <$00
0C36: 00 00          NEG    <$00
0C38: 00 00          NEG    <$00
0C3A: 00 00          NEG    <$00
0C3C: 00 00          NEG    <$00
0C3E: 00 00          NEG    <$00
0C40: 00 00          NEG    <$00
0C42: 00 00          NEG    <$00
0C44: 00 00          NEG    <$00
0C46: 00 00          NEG    <$00
0C48: 00 00          NEG    <$00
0C4A: 00 00          NEG    <$00
0C4C: 00 00          NEG    <$00
0C4E: 00 00          NEG    <$00
0C50: 00 00          NEG    <$00
0C52: 00 00          NEG    <$00
0C54: 00 00          NEG    <$00
0C56: 00 00          NEG    <$00
0C58: 00 00          NEG    <$00
0C5A: 00 00          NEG    <$00
0C5C: 00 00          NEG    <$00
0C5E: 00 00          NEG    <$00
0C60: 00 00          NEG    <$00
0C62: 00 00          NEG    <$00
0C64: 00 00          NEG    <$00
0C66: 00 00          NEG    <$00
0C68: 00 00          NEG    <$00
0C6A: 00 00          NEG    <$00
0C6C: 00 00          NEG    <$00
0C6E: 00 00          NEG    <$00
0C70: 00 00          NEG    <$00
0C72: 00 00          NEG    <$00
0C74: 00 00          NEG    <$00
0C76: 00 00          NEG    <$00
0C78: 00 00          NEG    <$00
0C7A: 00 00          NEG    <$00
0C7C: 00 00          NEG    <$00
0C7E: 00 00          NEG    <$00
0C80: 00 00          NEG    <$00
0C82: 00 00          NEG    <$00
0C84: 00 00          NEG    <$00
0C86: 00 00          NEG    <$00
0C88: 00 00          NEG    <$00
0C8A: 00 00          NEG    <$00
0C8C: 00 00          NEG    <$00
0C8E: 00 00          NEG    <$00
0C90: 00 00          NEG    <$00
0C92: 00 00          NEG    <$00
0C94: 00 00          NEG    <$00
0C96: 00 00          NEG    <$00
0C98: 00 00          NEG    <$00
0C9A: 00 00          NEG    <$00
0C9C: 00 00          NEG    <$00
0C9E: 00 00          NEG    <$00
0CA0: 00 00          NEG    <$00
0CA2: 00 00          NEG    <$00
0CA4: 00 00          NEG    <$00
0CA6: 00 00          NEG    <$00
0CA8: 00 00          NEG    <$00
0CAA: 00 00          NEG    <$00
0CAC: 00 00          NEG    <$00
0CAE: 00 00          NEG    <$00
0CB0: 00 00          NEG    <$00
0CB2: 00 00          NEG    <$00
0CB4: 00 00          NEG    <$00
0CB6: 00 00          NEG    <$00
0CB8: 00 00          NEG    <$00
0CBA: 00 00          NEG    <$00
0CBC: 00 00          NEG    <$00
0CBE: 00 00          NEG    <$00
0CC0: 00 00          NEG    <$00
0CC2: 00 00          NEG    <$00
0CC4: 00 00          NEG    <$00
0CC6: 00 00          NEG    <$00
0CC8: 00 00          NEG    <$00
0CCA: 00 00          NEG    <$00
0CCC: 00 00          NEG    <$00
0CCE: 00 00          NEG    <$00
0CD0: 00 00          NEG    <$00
0CD2: 00 00          NEG    <$00
0CD4: 00 00          NEG    <$00
0CD6: 00 00          NEG    <$00
0CD8: 00 00          NEG    <$00
0CDA: 00 00          NEG    <$00
0CDC: 00 00          NEG    <$00
0CDE: 00 00          NEG    <$00
0CE0: 00 00          NEG    <$00
0CE2: 00 00          NEG    <$00
0CE4: 00 00          NEG    <$00
0CE6: 00 00          NEG    <$00
0CE8: 00 00          NEG    <$00
0CEA: 00 00          NEG    <$00
0CEC: 00 00          NEG    <$00
0CEE: 00 00          NEG    <$00
0CF0: 00 00          NEG    <$00
0CF2: 00 00          NEG    <$00
0CF4: 00 00          NEG    <$00
0CF6: 00 00          NEG    <$00
0CF8: 00 00          NEG    <$00
0CFA: 00 00          NEG    <$00
0CFC: 00 00          NEG    <$00
0CFE: 00 00          NEG    <$00
0D00: 00 00          NEG    <$00
0D02: 00 00          NEG    <$00
0D04: 00 00          NEG    <$00
0D06: 00 00          NEG    <$00
0D08: 00 00          NEG    <$00
0D0A: 00 00          NEG    <$00
0D0C: 00 00          NEG    <$00
0D0E: 00 00          NEG    <$00
0D10: 00 00          NEG    <$00
0D12: 00 00          NEG    <$00
0D14: 00 00          NEG    <$00
0D16: 00 00          NEG    <$00
0D18: 00 00          NEG    <$00
0D1A: 00 00          NEG    <$00
0D1C: 00 00          NEG    <$00
0D1E: 00 00          NEG    <$00
0D20: 00 00          NEG    <$00
0D22: 00 00          NEG    <$00
0D24: 00 00          NEG    <$00
0D26: 00 00          NEG    <$00
0D28: 00 00          NEG    <$00
0D2A: 00 00          NEG    <$00
0D2C: 00 00          NEG    <$00
0D2E: 00 00          NEG    <$00
0D30: 00 00          NEG    <$00
0D32: 00 00          NEG    <$00
0D34: 00 00          NEG    <$00
0D36: 00 00          NEG    <$00
0D38: 00 00          NEG    <$00
0D3A: 00 00          NEG    <$00
0D3C: 00 00          NEG    <$00
0D3E: 00 00          NEG    <$00
0D40: 00 00          NEG    <$00
0D42: 00 00          NEG    <$00
0D44: 00 00          NEG    <$00
0D46: 00 00          NEG    <$00
0D48: 00 00          NEG    <$00
0D4A: 00 00          NEG    <$00
0D4C: 00 00          NEG    <$00
0D4E: 00 00          NEG    <$00
0D50: 00 00          NEG    <$00
0D52: 00 00          NEG    <$00
0D54: 00 00          NEG    <$00
0D56: 00 00          NEG    <$00
0D58: 00 00          NEG    <$00
0D5A: 00 00          NEG    <$00
0D5C: 00 00          NEG    <$00
0D5E: 00 00          NEG    <$00
0D60: 00 00          NEG    <$00
0D62: 00 00          NEG    <$00
0D64: 00 00          NEG    <$00
0D66: 00 00          NEG    <$00
0D68: 00 00          NEG    <$00
0D6A: 00 00          NEG    <$00
0D6C: 00 00          NEG    <$00
0D6E: 00 00          NEG    <$00
0D70: 00 00          NEG    <$00
0D72: 00 00          NEG    <$00
0D74: 00 00          NEG    <$00
0D76: 00 00          NEG    <$00
0D78: 00 00          NEG    <$00
0D7A: 00 00          NEG    <$00
0D7C: 00 00          NEG    <$00
0D7E: 00 00          NEG    <$00
0D80: 00 00          NEG    <$00
0D82: 00 00          NEG    <$00
0D84: 00 00          NEG    <$00
0D86: 00 00          NEG    <$00
0D88: 00 00          NEG    <$00
0D8A: 00 00          NEG    <$00
0D8C: 00 00          NEG    <$00
0D8E: 00 00          NEG    <$00
0D90: 00 00          NEG    <$00
0D92: 00 00          NEG    <$00
0D94: 00 00          NEG    <$00
0D96: 00 00          NEG    <$00
0D98: 00 00          NEG    <$00
0D9A: 00 00          NEG    <$00
0D9C: 00 00          NEG    <$00
0D9E: 00 00          NEG    <$00
0DA0: 00 00          NEG    <$00
0DA2: 00 00          NEG    <$00
0DA4: 00 00          NEG    <$00
0DA6: 00 00          NEG    <$00
0DA8: 00 00          NEG    <$00
0DAA: 00 00          NEG    <$00
0DAC: 00 00          NEG    <$00
0DAE: 00 00          NEG    <$00
0DB0: 00 00          NEG    <$00
0DB2: 00 00          NEG    <$00
0DB4: 00 00          NEG    <$00
0DB6: 00 00          NEG    <$00
0DB8: 00 00          NEG    <$00
0DBA: 00 00          NEG    <$00
0DBC: 00 00          NEG    <$00
0DBE: 00 00          NEG    <$00
0DC0: 00 00          NEG    <$00
0DC2: 00 00          NEG    <$00
0DC4: 00 00          NEG    <$00
0DC6: 00 00          NEG    <$00
0DC8: 00 00          NEG    <$00
0DCA: 00 00          NEG    <$00
0DCC: 00 00          NEG    <$00
0DCE: 00 00          NEG    <$00
0DD0: 00 00          NEG    <$00
0DD2: 00 00          NEG    <$00
0DD4: 00 00          NEG    <$00
0DD6: 00 00          NEG    <$00
0DD8: 00 00          NEG    <$00
0DDA: 00 00          NEG    <$00
0DDC: 00 00          NEG    <$00
0DDE: 00 00          NEG    <$00
0DE0: 00 00          NEG    <$00
0DE2: 00 00          NEG    <$00
0DE4: 00 00          NEG    <$00
0DE6: 00 00          NEG    <$00
0DE8: 00 00          NEG    <$00
0DEA: 00 00          NEG    <$00
0DEC: 00 00          NEG    <$00
0DEE: 00 00          NEG    <$00
0DF0: 00 00          NEG    <$00
0DF2: 00 00          NEG    <$00
0DF4: 00 00          NEG    <$00
0DF6: 00 00          NEG    <$00
0DF8: 00 00          NEG    <$00
0DFA: 00 00          NEG    <$00
0DFC: 00 00          NEG    <$00
0DFE: 00 00          NEG    <$00
0E00: 00 00          NEG    <$00
0E02: 00 00          NEG    <$00
0E04: 00 00          NEG    <$00
0E06: 00 00          NEG    <$00
0E08: 00 00          NEG    <$00
0E0A: 00 00          NEG    <$00
0E0C: 00 00          NEG    <$00
0E0E: 00 00          NEG    <$00
0E10: 00 00          NEG    <$00
0E12: 00 00          NEG    <$00
0E14: 00 00          NEG    <$00
0E16: 00 00          NEG    <$00
0E18: 00 00          NEG    <$00
0E1A: 00 00          NEG    <$00
0E1C: 00 00          NEG    <$00
0E1E: 00 00          NEG    <$00
0E20: 00 00          NEG    <$00
0E22: 00 00          NEG    <$00
0E24: 00 00          NEG    <$00
0E26: 00 00          NEG    <$00
0E28: 00 00          NEG    <$00
0E2A: 00 00          NEG    <$00
0E2C: 00 00          NEG    <$00
0E2E: 00 00          NEG    <$00
0E30: 00 00          NEG    <$00
0E32: 00 00          NEG    <$00
0E34: 00 00          NEG    <$00
0E36: 00 00          NEG    <$00
0E38: 00 00          NEG    <$00
0E3A: 00 00          NEG    <$00
0E3C: 00 00          NEG    <$00
0E3E: 00 00          NEG    <$00
0E40: 00 00          NEG    <$00
0E42: 00 00          NEG    <$00
0E44: 00 00          NEG    <$00
0E46: 00 00          NEG    <$00
0E48: 00 00          NEG    <$00
0E4A: 00 00          NEG    <$00
0E4C: 00 00          NEG    <$00
0E4E: 00 00          NEG    <$00
0E50: 00 00          NEG    <$00
0E52: 00 00          NEG    <$00
0E54: 00 00          NEG    <$00
0E56: 00 00          NEG    <$00
0E58: 00 00          NEG    <$00
0E5A: 00 00          NEG    <$00
0E5C: 00 00          NEG    <$00
0E5E: 00 00          NEG    <$00
0E60: 00 00          NEG    <$00
0E62: 00 00          NEG    <$00
0E64: 00 00          NEG    <$00
0E66: 00 00          NEG    <$00
0E68: 00 00          NEG    <$00
0E6A: 00 00          NEG    <$00
0E6C: 00 00          NEG    <$00
0E6E: 00 00          NEG    <$00
0E70: 00 00          NEG    <$00
0E72: 00 00          NEG    <$00
0E74: 00 00          NEG    <$00
0E76: 00 00          NEG    <$00
0E78: 00 00          NEG    <$00
0E7A: 00 00          NEG    <$00
0E7C: 00 00          NEG    <$00
0E7E: 00 00          NEG    <$00
0E80: 00 00          NEG    <$00
0E82: 00 00          NEG    <$00
0E84: 00 00          NEG    <$00
0E86: 00 00          NEG    <$00
0E88: 00 00          NEG    <$00
0E8A: 00 00          NEG    <$00
0E8C: 00 00          NEG    <$00
0E8E: 00 00          NEG    <$00
0E90: 00 00          NEG    <$00
0E92: 00 00          NEG    <$00
0E94: 00 00          NEG    <$00
0E96: 00 00          NEG    <$00
0E98: 00 00          NEG    <$00
0E9A: 00 00          NEG    <$00
0E9C: 00 00          NEG    <$00
0E9E: 00 00          NEG    <$00
0EA0: 00 00          NEG    <$00
0EA2: 00 00          NEG    <$00
0EA4: 00 00          NEG    <$00
0EA6: 00 00          NEG    <$00
0EA8: 00 00          NEG    <$00
0EAA: 00 00          NEG    <$00
0EAC: 00 00          NEG    <$00
0EAE: 00 00          NEG    <$00
0EB0: 00 00          NEG    <$00
0EB2: 00 00          NEG    <$00
0EB4: 00 00          NEG    <$00
0EB6: 00 00          NEG    <$00
0EB8: 00 00          NEG    <$00
0EBA: 00 00          NEG    <$00
0EBC: 00 00          NEG    <$00
0EBE: 00 00          NEG    <$00
0EC0: 00 00          NEG    <$00
0EC2: 00 00          NEG    <$00
0EC4: 00 00          NEG    <$00
0EC6: 00 00          NEG    <$00
0EC8: 00 00          NEG    <$00
0ECA: 00 00          NEG    <$00
0ECC: 00 00          NEG    <$00
0ECE: 00 00          NEG    <$00
0ED0: 00 00          NEG    <$00
0ED2: 00 00          NEG    <$00
0ED4: 00 00          NEG    <$00
0ED6: 00 00          NEG    <$00
0ED8: 00 00          NEG    <$00
0EDA: 00 00          NEG    <$00
0EDC: 00 00          NEG    <$00
0EDE: 00 00          NEG    <$00
0EE0: 00 00          NEG    <$00
0EE2: 00 00          NEG    <$00
0EE4: 00 00          NEG    <$00
0EE6: 00 00          NEG    <$00
0EE8: 00 00          NEG    <$00
0EEA: 00 00          NEG    <$00
0EEC: 00 00          NEG    <$00
0EEE: 00 00          NEG    <$00
0EF0: 00 00          NEG    <$00
0EF2: 00 00          NEG    <$00
0EF4: 00 00          NEG    <$00
0EF6: 00 00          NEG    <$00
0EF8: 00 00          NEG    <$00
0EFA: 00 00          NEG    <$00
0EFC: 00 00          NEG    <$00
0EFE: 00 00          NEG    <$00
0F00: 00 00          NEG    <$00
0F02: 00 00          NEG    <$00
0F04: 00 00          NEG    <$00
0F06: 00 00          NEG    <$00
0F08: 00 00          NEG    <$00
0F0A: 00 00          NEG    <$00
0F0C: 00 00          NEG    <$00
0F0E: 00 00          NEG    <$00
0F10: 00 00          NEG    <$00
0F12: 00 00          NEG    <$00
0F14: 00 00          NEG    <$00
0F16: 00 00          NEG    <$00
0F18: 00 00          NEG    <$00
0F1A: 00 00          NEG    <$00
0F1C: 00 00          NEG    <$00
0F1E: 00 00          NEG    <$00
0F20: 00 00          NEG    <$00
0F22: 00 00          NEG    <$00
0F24: 00 00          NEG    <$00
0F26: 00 00          NEG    <$00
0F28: 00 00          NEG    <$00
0F2A: 00 00          NEG    <$00
0F2C: 00 00          NEG    <$00
0F2E: 00 00          NEG    <$00
0F30: 00 00          NEG    <$00
0F32: 00 00          NEG    <$00
0F34: 00 00          NEG    <$00
0F36: 00 00          NEG    <$00
0F38: 00 00          NEG    <$00
0F3A: 00 00          NEG    <$00
0F3C: 00 00          NEG    <$00
0F3E: 00 00          NEG    <$00
0F40: 00 00          NEG    <$00
0F42: 00 00          NEG    <$00
0F44: 00 00          NEG    <$00
0F46: 00 00          NEG    <$00
0F48: 00 00          NEG    <$00
0F4A: 00 00          NEG    <$00
0F4C: 00 00          NEG    <$00
0F4E: 00 00          NEG    <$00
0F50: 00 00          NEG    <$00
0F52: 00 00          NEG    <$00
0F54: 00 00          NEG    <$00
0F56: 00 00          NEG    <$00
0F58: 00 00          NEG    <$00
0F5A: 00 00          NEG    <$00
0F5C: 00 00          NEG    <$00
0F5E: 00 00          NEG    <$00
0F60: 00 00          NEG    <$00
0F62: 00 00          NEG    <$00
0F64: 00 00          NEG    <$00
0F66: 00 00          NEG    <$00
0F68: 00 00          NEG    <$00
0F6A: 00 00          NEG    <$00
0F6C: 00 00          NEG    <$00
0F6E: 00 00          NEG    <$00
0F70: 00 00          NEG    <$00
0F72: 00 00          NEG    <$00
0F74: 00 00          NEG    <$00
0F76: 00 00          NEG    <$00
0F78: 00 00          NEG    <$00
0F7A: 00 00          NEG    <$00
0F7C: 00 00          NEG    <$00
0F7E: 00 00          NEG    <$00
0F80: 00 00          NEG    <$00
0F82: 00 00          NEG    <$00
0F84: 00 00          NEG    <$00
0F86: 00 00          NEG    <$00
0F88: 00 00          NEG    <$00
0F8A: 00 00          NEG    <$00
0F8C: 00 00          NEG    <$00
0F8E: 00 00          NEG    <$00
0F90: 00 00          NEG    <$00
0F92: 00 00          NEG    <$00
0F94: 00 00          NEG    <$00
0F96: 00 00          NEG    <$00
0F98: 00 00          NEG    <$00
0F9A: 00 00          NEG    <$00
0F9C: 00 00          NEG    <$00
0F9E: 00 00          NEG    <$00
0FA0: 00 00          NEG    <$00
0FA2: 00 00          NEG    <$00
0FA4: 00 00          NEG    <$00
0FA6: 00 00          NEG    <$00
0FA8: 00 00          NEG    <$00
0FAA: 00 00          NEG    <$00
0FAC: 00 00          NEG    <$00
0FAE: 00 00          NEG    <$00
0FB0: 00 00          NEG    <$00
0FB2: 00 00          NEG    <$00
0FB4: 00 00          NEG    <$00
0FB6: 00 00          NEG    <$00
0FB8: 00 00          NEG    <$00
0FBA: 00 00          NEG    <$00
0FBC: 00 00          NEG    <$00
0FBE: 00 00          NEG    <$00
0FC0: 00 00          NEG    <$00
0FC2: 00 00          NEG    <$00
0FC4: 00 00          NEG    <$00
0FC6: 00 00          NEG    <$00
0FC8: 00 00          NEG    <$00
0FCA: 00 00          NEG    <$00
0FCC: 00 00          NEG    <$00
0FCE: 00 00          NEG    <$00
0FD0: 00 00          NEG    <$00
0FD2: 00 00          NEG    <$00
0FD4: 00 00          NEG    <$00
0FD6: 00 00          NEG    <$00
0FD8: 00 00          NEG    <$00
0FDA: 00 00          NEG    <$00
0FDC: 00 00          NEG    <$00
0FDE: 00 00          NEG    <$00
0FE0: 00 00          NEG    <$00
0FE2: 00 00          NEG    <$00
0FE4: 00 00          NEG    <$00
0FE6: 00 00          NEG    <$00
0FE8: 00 00          NEG    <$00
0FEA: 00 00          NEG    <$00
0FEC: 00 00          NEG    <$00
0FEE: 00 00          NEG    <$00
0FF0: 00 00          NEG    <$00
0FF2: 00 00          NEG    <$00
0FF4: 00 00          NEG    <$00
0FF6: 00 00          NEG    <$00
0FF8: 00 00          NEG    <$00
0FFA: 00 00          NEG    <$00
0FFC: 00 00          NEG    <$00
0FFE: 00 00          NEG    <$00
1000: 00 00          NEG    <$00
1002: 00 00          NEG    <$00
1004: 00 00          NEG    <$00
1006: 00 00          NEG    <$00
1008: 00 00          NEG    <$00
100A: 00 00          NEG    <$00
100C: 00 00          NEG    <$00
100E: 00 00          NEG    <$00
1010: 00 00          NEG    <$00
1012: 00 00          NEG    <$00
1014: 00 00          NEG    <$00
1016: 00 00          NEG    <$00
1018: 00 00          NEG    <$00
101A: 00 00          NEG    <$00
101C: 00 00          NEG    <$00
101E: 00 00          NEG    <$00
1020: 00 00          NEG    <$00
1022: 00 00          NEG    <$00
1024: 00 00          NEG    <$00
1026: 00 00          NEG    <$00
1028: 00 00          NEG    <$00
102A: 00 00          NEG    <$00
102C: 00 00          NEG    <$00
102E: 00 00          NEG    <$00
1030: 00 00          NEG    <$00
1032: 00 00          NEG    <$00
1034: 00 00          NEG    <$00
1036: 00 00          NEG    <$00
1038: 00 00          NEG    <$00
103A: 00 00          NEG    <$00
103C: 00 00          NEG    <$00
103E: 00 00          NEG    <$00
1040: 00 00          NEG    <$00
1042: 00 00          NEG    <$00
1044: 00 00          NEG    <$00
1046: 00 00          NEG    <$00
1048: 00 00          NEG    <$00
104A: 00 00          NEG    <$00
104C: 00 00          NEG    <$00
104E: 00 00          NEG    <$00
1050: 00 00          NEG    <$00
1052: 00 00          NEG    <$00
1054: 00 00          NEG    <$00
1056: 00 00          NEG    <$00
1058: 00 00          NEG    <$00
105A: 00 00          NEG    <$00
105C: 00 00          NEG    <$00
105E: 00 00          NEG    <$00
1060: 00 00          NEG    <$00
1062: 00 00          NEG    <$00
1064: 00 00          NEG    <$00
1066: 00 00          NEG    <$00
1068: 00 00          NEG    <$00
106A: 00 00          NEG    <$00
106C: 00 00          NEG    <$00
106E: 00 00          NEG    <$00
1070: 00 00          NEG    <$00
1072: 00 00          NEG    <$00
1074: 00 00          NEG    <$00
1076: 00 00          NEG    <$00
1078: 00 00          NEG    <$00
107A: 00 00          NEG    <$00
107C: 00 00          NEG    <$00
107E: 00 00          NEG    <$00
1080: 00 00          NEG    <$00
1082: 00 00          NEG    <$00
1084: 00 00          NEG    <$00
1086: 00 00          NEG    <$00
1088: 00 00          NEG    <$00
108A: 00 00          NEG    <$00
108C: 00 00          NEG    <$00
108E: 00 00          NEG    <$00
1090: 00 00          NEG    <$00
1092: 00 00          NEG    <$00
1094: 00 00          NEG    <$00
1096: 00 00          NEG    <$00
1098: 00 00          NEG    <$00
109A: 00 00          NEG    <$00
109C: 00 00          NEG    <$00
109E: 00 00          NEG    <$00
10A0: 00 00          NEG    <$00
10A2: 00 00          NEG    <$00
10A4: 00 00          NEG    <$00
10A6: 00 00          NEG    <$00
10A8: 00 00          NEG    <$00
10AA: 00 00          NEG    <$00
10AC: 00 00          NEG    <$00
10AE: 00 00          NEG    <$00
10B0: 00 00          NEG    <$00
10B2: 00 00          NEG    <$00
10B4: 00 00          NEG    <$00
10B6: 00 00          NEG    <$00
10B8: 00 00          NEG    <$00
10BA: 00 00          NEG    <$00
10BC: 00 00          NEG    <$00
10BE: 00 00          NEG    <$00
10C0: 00 00          NEG    <$00
10C2: 00 00          NEG    <$00
10C4: 00 00          NEG    <$00
10C6: 00 00          NEG    <$00
10C8: 00 00          NEG    <$00
10CA: 00 00          NEG    <$00
10CC: 00 00          NEG    <$00
10CE: 00 00          NEG    <$00
10D0: 00 00          NEG    <$00
10D2: 00 00          NEG    <$00
10D4: 00 00          NEG    <$00
10D6: 00 00          NEG    <$00
10D8: 00 00          NEG    <$00
10DA: 00 00          NEG    <$00
10DC: 00 00          NEG    <$00
10DE: 00 00          NEG    <$00
10E0: 00 00          NEG    <$00
10E2: 00 00          NEG    <$00
10E4: 00 00          NEG    <$00
10E6: 00 00          NEG    <$00
10E8: 00 00          NEG    <$00
10EA: 00 00          NEG    <$00
10EC: 00 00          NEG    <$00
10EE: 00 00          NEG    <$00
10F0: 00 00          NEG    <$00
10F2: 00 00          NEG    <$00
10F4: 00 00          NEG    <$00
10F6: 00 00          NEG    <$00
10F8: 00 00          NEG    <$00
10FA: 00 00          NEG    <$00
10FC: 00 00          NEG    <$00
10FE: 00 00          NEG    <$00
1100: 00 00          NEG    <$00
1102: 00 00          NEG    <$00
1104: 00 00          NEG    <$00
1106: 00 00          NEG    <$00
1108: 00 00          NEG    <$00
110A: 00 00          NEG    <$00
110C: 00 00          NEG    <$00
110E: 00 00          NEG    <$00
1110: 00 00          NEG    <$00
1112: 00 00          NEG    <$00
1114: 00 00          NEG    <$00
1116: 00 00          NEG    <$00
1118: 00 00          NEG    <$00
111A: 00 00          NEG    <$00
111C: 00 00          NEG    <$00
111E: 00 00          NEG    <$00
1120: 00 00          NEG    <$00
1122: 00 00          NEG    <$00
1124: 00 00          NEG    <$00
1126: 00 00          NEG    <$00
1128: 00 00          NEG    <$00
112A: 00 00          NEG    <$00
112C: 00 00          NEG    <$00
112E: 00 00          NEG    <$00
1130: 00 00          NEG    <$00
1132: 00 00          NEG    <$00
1134: 00 00          NEG    <$00
1136: 00 00          NEG    <$00
1138: 00 00          NEG    <$00
113A: 00 00          NEG    <$00
113C: 00 00          NEG    <$00
113E: 00 00          NEG    <$00
1140: 00 00          NEG    <$00
1142: 00 00          NEG    <$00
1144: 00 00          NEG    <$00
1146: 00 00          NEG    <$00
1148: 00 00          NEG    <$00
114A: 00 00          NEG    <$00
114C: 00 00          NEG    <$00
114E: 00 00          NEG    <$00
1150: 00 00          NEG    <$00
1152: 00 00          NEG    <$00
1154: 00 00          NEG    <$00
1156: 00 00          NEG    <$00
1158: 00 00          NEG    <$00
115A: 00 00          NEG    <$00
115C: 00 00          NEG    <$00
115E: 00 00          NEG    <$00
1160: 00 00          NEG    <$00
1162: 00 00          NEG    <$00
1164: 00 00          NEG    <$00
1166: 00 00          NEG    <$00
1168: 00 00          NEG    <$00
116A: 00 00          NEG    <$00
116C: 00 00          NEG    <$00
116E: 00 00          NEG    <$00
1170: 00 00          NEG    <$00
1172: 00 00          NEG    <$00
1174: 00 00          NEG    <$00
1176: 00 00          NEG    <$00
1178: 00 00          NEG    <$00
117A: 00 00          NEG    <$00
117C: 00 00          NEG    <$00
117E: 00 00          NEG    <$00
1180: 00 00          NEG    <$00
1182: 00 00          NEG    <$00
1184: 00 00          NEG    <$00
1186: 00 00          NEG    <$00
1188: 00 00          NEG    <$00
118A: 00 00          NEG    <$00
118C: 00 00          NEG    <$00
118E: 00 00          NEG    <$00
1190: 00 00          NEG    <$00
1192: 00 00          NEG    <$00
1194: 00 00          NEG    <$00
1196: 00 00          NEG    <$00
1198: 00 00          NEG    <$00
119A: 00 00          NEG    <$00
119C: 00 00          NEG    <$00
119E: 00 00          NEG    <$00
11A0: 00 00          NEG    <$00
11A2: 00 00          NEG    <$00
11A4: 00 00          NEG    <$00
11A6: 00 00          NEG    <$00
11A8: 00 00          NEG    <$00
11AA: 00 00          NEG    <$00
11AC: 00 00          NEG    <$00
11AE: 00 00          NEG    <$00
11B0: 00 00          NEG    <$00
11B2: 00 00          NEG    <$00
11B4: 00 00          NEG    <$00
11B6: 00 00          NEG    <$00
11B8: 00 00          NEG    <$00
11BA: 00 00          NEG    <$00
11BC: 00 00          NEG    <$00
11BE: 00 00          NEG    <$00
11C0: 00 00          NEG    <$00
11C2: 00 00          NEG    <$00
11C4: 00 00          NEG    <$00
11C6: 00 00          NEG    <$00
11C8: 00 00          NEG    <$00
11CA: 00 00          NEG    <$00
11CC: 00 00          NEG    <$00
11CE: 00 00          NEG    <$00
11D0: 00 00          NEG    <$00
11D2: 00 00          NEG    <$00
11D4: 00 00          NEG    <$00
11D6: 00 00          NEG    <$00
11D8: 00 00          NEG    <$00
11DA: 00 00          NEG    <$00
11DC: 00 00          NEG    <$00
11DE: 00 00          NEG    <$00
11E0: 00 00          NEG    <$00
11E2: 00 00          NEG    <$00
11E4: 00 00          NEG    <$00
11E6: 00 00          NEG    <$00
11E8: 00 00          NEG    <$00
11EA: 00 00          NEG    <$00
11EC: 00 00          NEG    <$00
11EE: 00 00          NEG    <$00
11F0: 00 00          NEG    <$00
11F2: 00 00          NEG    <$00
11F4: 00 00          NEG    <$00
11F6: 00 00          NEG    <$00
11F8: 00 00          NEG    <$00
11FA: 00 00          NEG    <$00
11FC: 00 00          NEG    <$00
11FE: 00 00          NEG    <$00
1200: 00 00          NEG    <$00
1202: 00 00          NEG    <$00
1204: 00 00          NEG    <$00
1206: 00 00          NEG    <$00
1208: 00 00          NEG    <$00
120A: 00 00          NEG    <$00
120C: 00 00          NEG    <$00
120E: 00 00          NEG    <$00
1210: 00 00          NEG    <$00
1212: 00 00          NEG    <$00
1214: 00 00          NEG    <$00
1216: 00 00          NEG    <$00
1218: 00 00          NEG    <$00
121A: 00 00          NEG    <$00
121C: 00 00          NEG    <$00
121E: 00 00          NEG    <$00
1220: 00 00          NEG    <$00
1222: 00 00          NEG    <$00
1224: 00 00          NEG    <$00
1226: 00 00          NEG    <$00
1228: 00 00          NEG    <$00
122A: 00 00          NEG    <$00
122C: 00 00          NEG    <$00
122E: 00 00          NEG    <$00
1230: 00 00          NEG    <$00
1232: 00 00          NEG    <$00
1234: 00 00          NEG    <$00
1236: 00 00          NEG    <$00
1238: 00 00          NEG    <$00
123A: 00 00          NEG    <$00
123C: 00 00          NEG    <$00
123E: 00 00          NEG    <$00
1240: 00 00          NEG    <$00
1242: 00 00          NEG    <$00
1244: 00 00          NEG    <$00
1246: 00 00          NEG    <$00
1248: 00 00          NEG    <$00
124A: 00 00          NEG    <$00
124C: 00 00          NEG    <$00
124E: 00 00          NEG    <$00
1250: 00 00          NEG    <$00
1252: 00 00          NEG    <$00
1254: 00 00          NEG    <$00
1256: 00 00          NEG    <$00
1258: 00 00          NEG    <$00
125A: 00 00          NEG    <$00
125C: 00 00          NEG    <$00
125E: 00 00          NEG    <$00
1260: 00 00          NEG    <$00
1262: 00 00          NEG    <$00
1264: 00 00          NEG    <$00
1266: 00 00          NEG    <$00
1268: 00 00          NEG    <$00
126A: 00 00          NEG    <$00
126C: 00 00          NEG    <$00
126E: 00 00          NEG    <$00
1270: 00 00          NEG    <$00
1272: 00 00          NEG    <$00
1274: 00 00          NEG    <$00
1276: 00 00          NEG    <$00
1278: 00 00          NEG    <$00
127A: 00 00          NEG    <$00
127C: 00 00          NEG    <$00
127E: 00 00          NEG    <$00
1280: 00 00          NEG    <$00
1282: 00 00          NEG    <$00
1284: 00 00          NEG    <$00
1286: 00 00          NEG    <$00
1288: 00 00          NEG    <$00
128A: 00 00          NEG    <$00
128C: 00 00          NEG    <$00
128E: 00 00          NEG    <$00
1290: 00 00          NEG    <$00
1292: 00 00          NEG    <$00
1294: 00 00          NEG    <$00
1296: 00 00          NEG    <$00
1298: 00 00          NEG    <$00
129A: 00 00          NEG    <$00
129C: 00 00          NEG    <$00
129E: 00 00          NEG    <$00
12A0: 00 00          NEG    <$00
12A2: 00 00          NEG    <$00
12A4: 00 00          NEG    <$00
12A6: 00 00          NEG    <$00
12A8: 00 00          NEG    <$00
12AA: 00 00          NEG    <$00
12AC: 00 00          NEG    <$00
12AE: 00 00          NEG    <$00
12B0: 00 00          NEG    <$00
12B2: 00 00          NEG    <$00
12B4: 00 00          NEG    <$00
12B6: 00 00          NEG    <$00
12B8: 00 00          NEG    <$00
12BA: 00 00          NEG    <$00
12BC: 00 00          NEG    <$00
12BE: 00 00          NEG    <$00
12C0: 00 00          NEG    <$00
12C2: 00 00          NEG    <$00
12C4: 00 00          NEG    <$00
12C6: 00 00          NEG    <$00
12C8: 00 00          NEG    <$00
12CA: 00 00          NEG    <$00
12CC: 00 00          NEG    <$00
12CE: 00 00          NEG    <$00
12D0: 00 00          NEG    <$00
12D2: 00 00          NEG    <$00
12D4: 00 00          NEG    <$00
12D6: 00 00          NEG    <$00
12D8: 00 00          NEG    <$00
12DA: 00 00          NEG    <$00
12DC: 00 00          NEG    <$00
12DE: 00 00          NEG    <$00
12E0: 00 00          NEG    <$00
12E2: 00 00          NEG    <$00
12E4: 00 00          NEG    <$00
12E6: 00 00          NEG    <$00
12E8: 00 00          NEG    <$00
12EA: 00 00          NEG    <$00
12EC: 00 00          NEG    <$00
12EE: 00 00          NEG    <$00
12F0: 00 00          NEG    <$00
12F2: 00 00          NEG    <$00
12F4: 00 00          NEG    <$00
12F6: 00 00          NEG    <$00
12F8: 00 00          NEG    <$00
12FA: 00 00          NEG    <$00
12FC: 00 00          NEG    <$00
12FE: 00 00          NEG    <$00
1300: 00 00          NEG    <$00
1302: 00 00          NEG    <$00
1304: 00 00          NEG    <$00
1306: 00 00          NEG    <$00
1308: 00 00          NEG    <$00
130A: 00 00          NEG    <$00
130C: 00 00          NEG    <$00
130E: 00 00          NEG    <$00
1310: 00 00          NEG    <$00
1312: 00 00          NEG    <$00
1314: 00 00          NEG    <$00
1316: 00 00          NEG    <$00
1318: 00 00          NEG    <$00
131A: 00 00          NEG    <$00
131C: 00 00          NEG    <$00
131E: 00 00          NEG    <$00
1320: 00 00          NEG    <$00
1322: 00 00          NEG    <$00
1324: 00 00          NEG    <$00
1326: 00 00          NEG    <$00
1328: 00 00          NEG    <$00
132A: 00 00          NEG    <$00
132C: 00 00          NEG    <$00
132E: 00 00          NEG    <$00
1330: 00 00          NEG    <$00
1332: 00 00          NEG    <$00
1334: 00 00          NEG    <$00
1336: 00 00          NEG    <$00
1338: 00 00          NEG    <$00
133A: 00 00          NEG    <$00
133C: 00 00          NEG    <$00
133E: 00 00          NEG    <$00
1340: 00 00          NEG    <$00
1342: 00 00          NEG    <$00
1344: 00 00          NEG    <$00
1346: 00 00          NEG    <$00
1348: 00 00          NEG    <$00
134A: 00 00          NEG    <$00
134C: 00 00          NEG    <$00
134E: 00 00          NEG    <$00
1350: 00 00          NEG    <$00
1352: 00 00          NEG    <$00
1354: 00 00          NEG    <$00
1356: 00 00          NEG    <$00
1358: 00 00          NEG    <$00
135A: 00 00          NEG    <$00
135C: 00 00          NEG    <$00
135E: 00 00          NEG    <$00
1360: 00 00          NEG    <$00
1362: 00 00          NEG    <$00
1364: 00 00          NEG    <$00
1366: 00 00          NEG    <$00
1368: 00 00          NEG    <$00
136A: 00 00          NEG    <$00
136C: 00 00          NEG    <$00
136E: 00 00          NEG    <$00
1370: 00 00          NEG    <$00
1372: 00 00          NEG    <$00
1374: 00 00          NEG    <$00
1376: 00 00          NEG    <$00
1378: 00 00          NEG    <$00
137A: 00 00          NEG    <$00
137C: 00 00          NEG    <$00
137E: 00 00          NEG    <$00
1380: 00 00          NEG    <$00
1382: 00 00          NEG    <$00
1384: 00 00          NEG    <$00
1386: 00 00          NEG    <$00
1388: 00 00          NEG    <$00
138A: 00 00          NEG    <$00
138C: 00 00          NEG    <$00
138E: 00 00          NEG    <$00
1390: 00 00          NEG    <$00
1392: 00 00          NEG    <$00
1394: 00 00          NEG    <$00
1396: 00 00          NEG    <$00
1398: 00 00          NEG    <$00
139A: 00 00          NEG    <$00
139C: 00 00          NEG    <$00
139E: 00 00          NEG    <$00
13A0: 00 00          NEG    <$00
13A2: 00 00          NEG    <$00
13A4: 00 00          NEG    <$00
13A6: 00 00          NEG    <$00
13A8: 00 00          NEG    <$00
13AA: 00 00          NEG    <$00
13AC: 00 00          NEG    <$00
13AE: 00 00          NEG    <$00
13B0: 00 00          NEG    <$00
13B2: 00 00          NEG    <$00
13B4: 00 00          NEG    <$00
13B6: 00 00          NEG    <$00
13B8: 00 00          NEG    <$00
13BA: 00 00          NEG    <$00
13BC: 00 00          NEG    <$00
13BE: 00 00          NEG    <$00
13C0: 00 00          NEG    <$00
13C2: 00 00          NEG    <$00
13C4: 00 00          NEG    <$00
13C6: 00 00          NEG    <$00
13C8: 00 00          NEG    <$00
13CA: 00 00          NEG    <$00
13CC: 00 00          NEG    <$00
13CE: 00 00          NEG    <$00
13D0: 00 00          NEG    <$00
13D2: 00 00          NEG    <$00
13D4: 00 00          NEG    <$00
13D6: 00 00          NEG    <$00
13D8: 00 00          NEG    <$00
13DA: 00 00          NEG    <$00
13DC: 00 00          NEG    <$00
13DE: 00 00          NEG    <$00
13E0: 00 00          NEG    <$00
13E2: 00 00          NEG    <$00
13E4: 00 00          NEG    <$00
13E6: 00 00          NEG    <$00
13E8: 00 00          NEG    <$00
13EA: 00 00          NEG    <$00
13EC: 00 00          NEG    <$00
13EE: 00 00          NEG    <$00
13F0: 00 00          NEG    <$00
13F2: 00 00          NEG    <$00
13F4: 00 00          NEG    <$00
13F6: 00 00          NEG    <$00
13F8: 00 00          NEG    <$00
13FA: 00 00          NEG    <$00
13FC: 00 00          NEG    <$00
13FE: 00 00          NEG    <$00
1400: 00 00          NEG    <$00
1402: 00 00          NEG    <$00
1404: 00 00          NEG    <$00
1406: 00 00          NEG    <$00
1408: 00 00          NEG    <$00
140A: 00 00          NEG    <$00
140C: 00 00          NEG    <$00
140E: 00 00          NEG    <$00
1410: 00 00          NEG    <$00
1412: 00 00          NEG    <$00
1414: 00 00          NEG    <$00
1416: 00 00          NEG    <$00
1418: 00 00          NEG    <$00
141A: 00 00          NEG    <$00
141C: 00 00          NEG    <$00
141E: 00 00          NEG    <$00
1420: 00 00          NEG    <$00
1422: 00 00          NEG    <$00
1424: 00 00          NEG    <$00
1426: 00 00          NEG    <$00
1428: 00 00          NEG    <$00
142A: 00 00          NEG    <$00
142C: 00 00          NEG    <$00
142E: 00 00          NEG    <$00
1430: 00 00          NEG    <$00
1432: 00 00          NEG    <$00
1434: 00 00          NEG    <$00
1436: 00 00          NEG    <$00
1438: 00 00          NEG    <$00
143A: 00 00          NEG    <$00
143C: 00 00          NEG    <$00
143E: 00 00          NEG    <$00
1440: 00 00          NEG    <$00
1442: 00 00          NEG    <$00
1444: 00 00          NEG    <$00
1446: 00 00          NEG    <$00
1448: 00 00          NEG    <$00
144A: 00 00          NEG    <$00
144C: 00 00          NEG    <$00
144E: 00 00          NEG    <$00
1450: 00 00          NEG    <$00
1452: 00 00          NEG    <$00
1454: 00 00          NEG    <$00
1456: 00 00          NEG    <$00
1458: 00 00          NEG    <$00
145A: 00 00          NEG    <$00
145C: 00 00          NEG    <$00
145E: 00 00          NEG    <$00
1460: 00 00          NEG    <$00
1462: 00 00          NEG    <$00
1464: 00 00          NEG    <$00
1466: 00 00          NEG    <$00
1468: 00 00          NEG    <$00
146A: 00 00          NEG    <$00
146C: 00 00          NEG    <$00
146E: 00 00          NEG    <$00
1470: 00 00          NEG    <$00
1472: 00 00          NEG    <$00
1474: 00 00          NEG    <$00
1476: 00 00          NEG    <$00
1478: 00 00          NEG    <$00
147A: 00 00          NEG    <$00
147C: 00 00          NEG    <$00
147E: 00 00          NEG    <$00
1480: 00 00          NEG    <$00
1482: 00 00          NEG    <$00
1484: 00 00          NEG    <$00
1486: 00 00          NEG    <$00
1488: 00 00          NEG    <$00
148A: 00 00          NEG    <$00
148C: 00 00          NEG    <$00
148E: 00 00          NEG    <$00
1490: 00 00          NEG    <$00
1492: 00 00          NEG    <$00
1494: 00 00          NEG    <$00
1496: 00 00          NEG    <$00
1498: 00 00          NEG    <$00
149A: 00 00          NEG    <$00
149C: 00 00          NEG    <$00
149E: 00 00          NEG    <$00
14A0: 00 00          NEG    <$00
14A2: 00 00          NEG    <$00
14A4: 00 00          NEG    <$00
14A6: 00 00          NEG    <$00
14A8: 00 00          NEG    <$00
14AA: 00 00          NEG    <$00
14AC: 00 00          NEG    <$00
14AE: 00 00          NEG    <$00
14B0: 00 00          NEG    <$00
14B2: 00 00          NEG    <$00
14B4: 00 00          NEG    <$00
14B6: 00 00          NEG    <$00
14B8: 00 00          NEG    <$00
14BA: 00 00          NEG    <$00
14BC: 00 00          NEG    <$00
14BE: 00 00          NEG    <$00
14C0: 00 00          NEG    <$00
14C2: 00 00          NEG    <$00
14C4: 00 00          NEG    <$00
14C6: 00 00          NEG    <$00
14C8: 00 00          NEG    <$00
14CA: 00 00          NEG    <$00
14CC: 00 00          NEG    <$00
14CE: 00 00          NEG    <$00
14D0: 00 00          NEG    <$00
14D2: 00 00          NEG    <$00
14D4: 00 00          NEG    <$00
14D6: 00 00          NEG    <$00
14D8: 00 00          NEG    <$00
14DA: 00 00          NEG    <$00
14DC: 00 00          NEG    <$00
14DE: 00 00          NEG    <$00
14E0: 00 00          NEG    <$00
14E2: 00 00          NEG    <$00
14E4: 00 00          NEG    <$00
14E6: 00 00          NEG    <$00
14E8: 00 00          NEG    <$00
14EA: 00 00          NEG    <$00
14EC: 00 00          NEG    <$00
14EE: 00 00          NEG    <$00
14F0: 00 00          NEG    <$00
14F2: 00 00          NEG    <$00
14F4: 00 00          NEG    <$00
14F6: 00 00          NEG    <$00
14F8: 00 00          NEG    <$00
14FA: 00 00          NEG    <$00
14FC: 00 00          NEG    <$00
14FE: 00 00          NEG    <$00
1500: 00 00          NEG    <$00
1502: 00 00          NEG    <$00
1504: 00 00          NEG    <$00
1506: 00 00          NEG    <$00
1508: 00 00          NEG    <$00
150A: 00 00          NEG    <$00
150C: 00 00          NEG    <$00
150E: 00 00          NEG    <$00
1510: 00 00          NEG    <$00
1512: 00 00          NEG    <$00
1514: 00 00          NEG    <$00
1516: 00 00          NEG    <$00
1518: 00 00          NEG    <$00
151A: 00 00          NEG    <$00
151C: 00 00          NEG    <$00
151E: 00 00          NEG    <$00
1520: 00 00          NEG    <$00
1522: 00 00          NEG    <$00
1524: 00 00          NEG    <$00
1526: 00 00          NEG    <$00
1528: 00 00          NEG    <$00
152A: 00 00          NEG    <$00
152C: 00 00          NEG    <$00
152E: 00 00          NEG    <$00
1530: 00 00          NEG    <$00
1532: 00 00          NEG    <$00
1534: 00 00          NEG    <$00
1536: 00 00          NEG    <$00
1538: 00 00          NEG    <$00
153A: 00 00          NEG    <$00
153C: 00 00          NEG    <$00
153E: 00 00          NEG    <$00
1540: 00 00          NEG    <$00
1542: 00 00          NEG    <$00
1544: 00 00          NEG    <$00
1546: 00 00          NEG    <$00
1548: 00 00          NEG    <$00
154A: 00 00          NEG    <$00
154C: 00 00          NEG    <$00
154E: 00 00          NEG    <$00
1550: 00 00          NEG    <$00
1552: 00 00          NEG    <$00
1554: 00 00          NEG    <$00
1556: 00 00          NEG    <$00
1558: 00 00          NEG    <$00
155A: 00 00          NEG    <$00
155C: 00 00          NEG    <$00
155E: 00 00          NEG    <$00
1560: 00 00          NEG    <$00
1562: 00 00          NEG    <$00
1564: 00 00          NEG    <$00
1566: 00 00          NEG    <$00
1568: 00 00          NEG    <$00
156A: 00 00          NEG    <$00
156C: 00 00          NEG    <$00
156E: 00 00          NEG    <$00
1570: 00 00          NEG    <$00
1572: 00 00          NEG    <$00
1574: 00 00          NEG    <$00
1576: 00 00          NEG    <$00
1578: 00 00          NEG    <$00
157A: 00 00          NEG    <$00
157C: 00 00          NEG    <$00
157E: 00 00          NEG    <$00
1580: 00 00          NEG    <$00
1582: 00 00          NEG    <$00
1584: 00 00          NEG    <$00
1586: 00 00          NEG    <$00
1588: 00 00          NEG    <$00
158A: 00 00          NEG    <$00
158C: 00 00          NEG    <$00
158E: 00 00          NEG    <$00
1590: 00 00          NEG    <$00
1592: 00 00          NEG    <$00
1594: 00 00          NEG    <$00
1596: 00 00          NEG    <$00
1598: 00 00          NEG    <$00
159A: 00 00          NEG    <$00
159C: 00 00          NEG    <$00
159E: 00 00          NEG    <$00
15A0: 00 00          NEG    <$00
15A2: 00 00          NEG    <$00
15A4: 00 00          NEG    <$00
15A6: 00 00          NEG    <$00
15A8: 00 00          NEG    <$00
15AA: 00 00          NEG    <$00
15AC: 00 00          NEG    <$00
15AE: 00 00          NEG    <$00
15B0: 00 00          NEG    <$00
15B2: 00 00          NEG    <$00
15B4: 00 00          NEG    <$00
15B6: 00 00          NEG    <$00
15B8: 00 00          NEG    <$00
15BA: 00 00          NEG    <$00
15BC: 00 00          NEG    <$00
15BE: 00 00          NEG    <$00
15C0: 00 00          NEG    <$00
15C2: 00 00          NEG    <$00
15C4: 00 00          NEG    <$00
15C6: 00 00          NEG    <$00
15C8: 00 00          NEG    <$00
15CA: 00 00          NEG    <$00
15CC: 00 00          NEG    <$00
15CE: 00 00          NEG    <$00
15D0: 00 00          NEG    <$00
15D2: 00 00          NEG    <$00
15D4: 00 00          NEG    <$00
15D6: 00 00          NEG    <$00
15D8: 00 00          NEG    <$00
15DA: 00 00          NEG    <$00
15DC: 00 00          NEG    <$00
15DE: 00 00          NEG    <$00
15E0: 00 00          NEG    <$00
15E2: 00 00          NEG    <$00
15E4: 00 00          NEG    <$00
15E6: 00 00          NEG    <$00
15E8: 00 00          NEG    <$00
15EA: 00 00          NEG    <$00
15EC: 00 00          NEG    <$00
15EE: 00 00          NEG    <$00
15F0: 00 00          NEG    <$00
15F2: 00 00          NEG    <$00
15F4: 00 00          NEG    <$00
15F6: 00 00          NEG    <$00
15F8: 00 00          NEG    <$00
15FA: 00 00          NEG    <$00
15FC: 00 00          NEG    <$00
15FE: 00 00          NEG    <$00
1600: 00 00          NEG    <$00
1602: 00 00          NEG    <$00
1604: 00 00          NEG    <$00
1606: 00 00          NEG    <$00
1608: 00 00          NEG    <$00
160A: 00 00          NEG    <$00
160C: 00 00          NEG    <$00
160E: 00 00          NEG    <$00
1610: 00 00          NEG    <$00
1612: 00 00          NEG    <$00
1614: 00 00          NEG    <$00
1616: 00 00          NEG    <$00
1618: 00 00          NEG    <$00
161A: 00 00          NEG    <$00
161C: 00 00          NEG    <$00
161E: 00 00          NEG    <$00
1620: 00 00          NEG    <$00
1622: 00 00          NEG    <$00
1624: 00 00          NEG    <$00
1626: 00 00          NEG    <$00
1628: 00 00          NEG    <$00
162A: 00 00          NEG    <$00
162C: 00 00          NEG    <$00
162E: 00 00          NEG    <$00
1630: 00 00          NEG    <$00
1632: 00 00          NEG    <$00
1634: 00 00          NEG    <$00
1636: 00 00          NEG    <$00
1638: 00 00          NEG    <$00
163A: 00 00          NEG    <$00
163C: 00 00          NEG    <$00
163E: 00 00          NEG    <$00
1640: 00 00          NEG    <$00
1642: 00 00          NEG    <$00
1644: 00 00          NEG    <$00
1646: 00 00          NEG    <$00
1648: 00 00          NEG    <$00
164A: 00 00          NEG    <$00
164C: 00 00          NEG    <$00
164E: 00 00          NEG    <$00
1650: 00 00          NEG    <$00
1652: 00 00          NEG    <$00
1654: 00 00          NEG    <$00
1656: 00 00          NEG    <$00
1658: 00 00          NEG    <$00
165A: 00 00          NEG    <$00
165C: 00 00          NEG    <$00
165E: 00 00          NEG    <$00
1660: 00 00          NEG    <$00
1662: 00 00          NEG    <$00
1664: 00 00          NEG    <$00
1666: 00 00          NEG    <$00
1668: 00 00          NEG    <$00
166A: 00 00          NEG    <$00
166C: 00 00          NEG    <$00
166E: 00 00          NEG    <$00
1670: 00 00          NEG    <$00
1672: 00 00          NEG    <$00
1674: 00 00          NEG    <$00
1676: 00 00          NEG    <$00
1678: 00 00          NEG    <$00
167A: 00 00          NEG    <$00
167C: 00 00          NEG    <$00
167E: 00 00          NEG    <$00
1680: 00 00          NEG    <$00
1682: 00 00          NEG    <$00
1684: 00 00          NEG    <$00
1686: 00 00          NEG    <$00
1688: 00 00          NEG    <$00
168A: 00 00          NEG    <$00
168C: 00 00          NEG    <$00
168E: 00 00          NEG    <$00
1690: 00 00          NEG    <$00
1692: 00 00          NEG    <$00
1694: 00 00          NEG    <$00
1696: 00 00          NEG    <$00
1698: 00 00          NEG    <$00
169A: 00 00          NEG    <$00
169C: 00 00          NEG    <$00
169E: 00 00          NEG    <$00
16A0: 00 00          NEG    <$00
16A2: 00 00          NEG    <$00
16A4: 00 00          NEG    <$00
16A6: 00 00          NEG    <$00
16A8: 00 00          NEG    <$00
16AA: 00 00          NEG    <$00
16AC: 00 00          NEG    <$00
16AE: 00 00          NEG    <$00
16B0: 00 00          NEG    <$00
16B2: 00 00          NEG    <$00
16B4: 00 00          NEG    <$00
16B6: 00 00          NEG    <$00
16B8: 00 00          NEG    <$00
16BA: 00 00          NEG    <$00
16BC: 00 00          NEG    <$00
16BE: 00 00          NEG    <$00
16C0: 00 00          NEG    <$00
16C2: 00 00          NEG    <$00
16C4: 00 00          NEG    <$00
16C6: 00 00          NEG    <$00
16C8: 00 00          NEG    <$00
16CA: 00 00          NEG    <$00
16CC: 00 00          NEG    <$00
16CE: 00 00          NEG    <$00
16D0: 00 00          NEG    <$00
16D2: 00 00          NEG    <$00
16D4: 00 00          NEG    <$00
16D6: 00 00          NEG    <$00
16D8: 00 00          NEG    <$00
16DA: 00 00          NEG    <$00
16DC: 00 00          NEG    <$00
16DE: 00 00          NEG    <$00
16E0: 00 00          NEG    <$00
16E2: 00 00          NEG    <$00
16E4: 00 00          NEG    <$00
16E6: 00 00          NEG    <$00
16E8: 00 00          NEG    <$00
16EA: 00 00          NEG    <$00
16EC: 00 00          NEG    <$00
16EE: 00 00          NEG    <$00
16F0: 00 00          NEG    <$00
16F2: 00 00          NEG    <$00
16F4: 00 00          NEG    <$00
16F6: 00 00          NEG    <$00
16F8: 00 00          NEG    <$00
16FA: 00 00          NEG    <$00
16FC: 00 00          NEG    <$00
16FE: 00 00          NEG    <$00
1700: 00 00          NEG    <$00
1702: 00 00          NEG    <$00
1704: 00 00          NEG    <$00
1706: 00 00          NEG    <$00
1708: 00 00          NEG    <$00
170A: 00 00          NEG    <$00
170C: 00 00          NEG    <$00
170E: 00 00          NEG    <$00
1710: 00 00          NEG    <$00
1712: 00 00          NEG    <$00
1714: 00 00          NEG    <$00
1716: 00 00          NEG    <$00
1718: 00 00          NEG    <$00
171A: 00 00          NEG    <$00
171C: 00 00          NEG    <$00
171E: 00 00          NEG    <$00
1720: 00 00          NEG    <$00
1722: 00 00          NEG    <$00
1724: 00 00          NEG    <$00
1726: 00 00          NEG    <$00
1728: 00 00          NEG    <$00
172A: 00 00          NEG    <$00
172C: 00 00          NEG    <$00
172E: 00 00          NEG    <$00
1730: 00 00          NEG    <$00
1732: 00 00          NEG    <$00
1734: 00 00          NEG    <$00
1736: 00 00          NEG    <$00
1738: 00 00          NEG    <$00
173A: 00 00          NEG    <$00
173C: 00 00          NEG    <$00
173E: 00 00          NEG    <$00
1740: 00 00          NEG    <$00
1742: 00 00          NEG    <$00
1744: 00 00          NEG    <$00
1746: 00 00          NEG    <$00
1748: 00 00          NEG    <$00
174A: 00 00          NEG    <$00
174C: 00 00          NEG    <$00
174E: 00 00          NEG    <$00
1750: 00 00          NEG    <$00
1752: 00 00          NEG    <$00
1754: 00 00          NEG    <$00
1756: 00 00          NEG    <$00
1758: 00 00          NEG    <$00
175A: 00 00          NEG    <$00
175C: 00 00          NEG    <$00
175E: 00 00          NEG    <$00
1760: 00 00          NEG    <$00
1762: 00 00          NEG    <$00
1764: 00 00          NEG    <$00
1766: 00 00          NEG    <$00
1768: 00 00          NEG    <$00
176A: 00 00          NEG    <$00
176C: 00 00          NEG    <$00
176E: 00 00          NEG    <$00
1770: 00 00          NEG    <$00
1772: 00 00          NEG    <$00
1774: 00 00          NEG    <$00
1776: 00 00          NEG    <$00
1778: 00 00          NEG    <$00
177A: 00 00          NEG    <$00
177C: 00 00          NEG    <$00
177E: 00 00          NEG    <$00
1780: 00 00          NEG    <$00
1782: 00 00          NEG    <$00
1784: 00 00          NEG    <$00
1786: 00 00          NEG    <$00
1788: 00 00          NEG    <$00
178A: 00 00          NEG    <$00
178C: 00 00          NEG    <$00
178E: 00 00          NEG    <$00
1790: 00 00          NEG    <$00
1792: 00 00          NEG    <$00
1794: 00 00          NEG    <$00
1796: 00 00          NEG    <$00
1798: 00 00          NEG    <$00
179A: 00 00          NEG    <$00
179C: 00 00          NEG    <$00
179E: 00 00          NEG    <$00
17A0: 00 00          NEG    <$00
17A2: 00 00          NEG    <$00
17A4: 00 00          NEG    <$00
17A6: 00 00          NEG    <$00
17A8: 00 00          NEG    <$00
17AA: 00 00          NEG    <$00
17AC: 00 00          NEG    <$00
17AE: 00 00          NEG    <$00
17B0: 00 00          NEG    <$00
17B2: 00 00          NEG    <$00
17B4: 00 00          NEG    <$00
17B6: 00 00          NEG    <$00
17B8: 00 00          NEG    <$00
17BA: 00 00          NEG    <$00
17BC: 00 00          NEG    <$00
17BE: 00 00          NEG    <$00
17C0: 00 00          NEG    <$00
17C2: 00 00          NEG    <$00
17C4: 00 00          NEG    <$00
17C6: 00 00          NEG    <$00
17C8: 00 00          NEG    <$00
17CA: 00 00          NEG    <$00
17CC: 00 00          NEG    <$00
17CE: 00 00          NEG    <$00
17D0: 00 00          NEG    <$00
17D2: 00 00          NEG    <$00
17D4: 00 00          NEG    <$00
17D6: 00 00          NEG    <$00
17D8: 00 00          NEG    <$00
17DA: 00 00          NEG    <$00
17DC: 00 00          NEG    <$00
17DE: 00 00          NEG    <$00
17E0: 00 00          NEG    <$00
17E2: 00 00          NEG    <$00
17E4: 00 00          NEG    <$00
17E6: 00 00          NEG    <$00
17E8: 00 00          NEG    <$00
17EA: 00 00          NEG    <$00
17EC: 00 00          NEG    <$00
17EE: 00 00          NEG    <$00
17F0: 00 00          NEG    <$00
17F2: 00 00          NEG    <$00
17F4: 00 00          NEG    <$00
17F6: 00 00          NEG    <$00
17F8: 00 00          NEG    <$00
17FA: 00 00          NEG    <$00
17FC: 00 00          NEG    <$00
17FE: 00 00          NEG    <$00
1800: 00 00          NEG    <$00
1802: 00 00          NEG    <$00
1804: 00 00          NEG    <$00
1806: 00 00          NEG    <$00
1808: 00 00          NEG    <$00
180A: 00 00          NEG    <$00
180C: 00 00          NEG    <$00
180E: 00 00          NEG    <$00
1810: 00 00          NEG    <$00
1812: 00 00          NEG    <$00
1814: 00 00          NEG    <$00
1816: 00 00          NEG    <$00
1818: 00 00          NEG    <$00
181A: 00 00          NEG    <$00
181C: 00 00          NEG    <$00
181E: 00 00          NEG    <$00
1820: 00 00          NEG    <$00
1822: 00 00          NEG    <$00
1824: 00 00          NEG    <$00
1826: 00 00          NEG    <$00
1828: 00 00          NEG    <$00
182A: 00 00          NEG    <$00
182C: 00 00          NEG    <$00
182E: 00 00          NEG    <$00
1830: 00 00          NEG    <$00
1832: 00 00          NEG    <$00
1834: 00 00          NEG    <$00
1836: 00 00          NEG    <$00
1838: 00 00          NEG    <$00
183A: 00 00          NEG    <$00
183C: 00 00          NEG    <$00
183E: 00 00          NEG    <$00
1840: 00 00          NEG    <$00
1842: 00 00          NEG    <$00
1844: 00 00          NEG    <$00
1846: 00 00          NEG    <$00
1848: 00 00          NEG    <$00
184A: 00 00          NEG    <$00
184C: 00 00          NEG    <$00
184E: 00 00          NEG    <$00
1850: 00 00          NEG    <$00
1852: 00 00          NEG    <$00
1854: 00 00          NEG    <$00
1856: 00 00          NEG    <$00
1858: 00 00          NEG    <$00
185A: 00 00          NEG    <$00
185C: 00 00          NEG    <$00
185E: 00 00          NEG    <$00
1860: 00 00          NEG    <$00
1862: 00 00          NEG    <$00
1864: 00 00          NEG    <$00
1866: 00 00          NEG    <$00
1868: 00 00          NEG    <$00
186A: 00 00          NEG    <$00
186C: 00 00          NEG    <$00
186E: 00 00          NEG    <$00
1870: 00 00          NEG    <$00
1872: 00 00          NEG    <$00
1874: 00 00          NEG    <$00
1876: 00 00          NEG    <$00
1878: 00 00          NEG    <$00
187A: 00 00          NEG    <$00
187C: 00 00          NEG    <$00
187E: 00 00          NEG    <$00
1880: 00 00          NEG    <$00
1882: 00 00          NEG    <$00
1884: 00 00          NEG    <$00
1886: 00 00          NEG    <$00
1888: 00 00          NEG    <$00
188A: 00 00          NEG    <$00
188C: 00 00          NEG    <$00
188E: 00 00          NEG    <$00
1890: 00 00          NEG    <$00
1892: 00 00          NEG    <$00
1894: 00 00          NEG    <$00
1896: 00 00          NEG    <$00
1898: 00 00          NEG    <$00
189A: 00 00          NEG    <$00
189C: 00 00          NEG    <$00
189E: 00 00          NEG    <$00
18A0: 00 00          NEG    <$00
18A2: 00 00          NEG    <$00
18A4: 00 00          NEG    <$00
18A6: 00 00          NEG    <$00
18A8: 00 00          NEG    <$00
18AA: 00 00          NEG    <$00
18AC: 00 00          NEG    <$00
18AE: 00 00          NEG    <$00
18B0: 00 00          NEG    <$00
18B2: 00 00          NEG    <$00
18B4: 00 00          NEG    <$00
18B6: 00 00          NEG    <$00
18B8: 00 00          NEG    <$00
18BA: 00 00          NEG    <$00
18BC: 00 00          NEG    <$00
18BE: 00 00          NEG    <$00
18C0: 00 00          NEG    <$00
18C2: 00 00          NEG    <$00
18C4: 00 00          NEG    <$00
18C6: 00 00          NEG    <$00
18C8: 00 00          NEG    <$00
18CA: 00 00          NEG    <$00
18CC: 00 00          NEG    <$00
18CE: 00 00          NEG    <$00
18D0: 00 00          NEG    <$00
18D2: 00 00          NEG    <$00
18D4: 00 00          NEG    <$00
18D6: 00 00          NEG    <$00
18D8: 00 00          NEG    <$00
18DA: 00 00          NEG    <$00
18DC: 00 00          NEG    <$00
18DE: 00 00          NEG    <$00
18E0: 00 00          NEG    <$00
18E2: 00 00          NEG    <$00
18E4: 00 00          NEG    <$00
18E6: 00 00          NEG    <$00
18E8: 00 00          NEG    <$00
18EA: 00 00          NEG    <$00
18EC: 00 00          NEG    <$00
18EE: 00 00          NEG    <$00
18F0: 00 00          NEG    <$00
18F2: 00 00          NEG    <$00
18F4: 00 00          NEG    <$00
18F6: 00 00          NEG    <$00
18F8: 00 00          NEG    <$00
18FA: 00 00          NEG    <$00
18FC: 00 00          NEG    <$00
18FE: 00 00          NEG    <$00
1900: 00 00          NEG    <$00
1902: 00 00          NEG    <$00
1904: 00 00          NEG    <$00
1906: 00 00          NEG    <$00
1908: 00 00          NEG    <$00
190A: 00 00          NEG    <$00
190C: 00 00          NEG    <$00
190E: 00 00          NEG    <$00
1910: 00 00          NEG    <$00
1912: 00 00          NEG    <$00
1914: 00 00          NEG    <$00
1916: 00 00          NEG    <$00
1918: 00 00          NEG    <$00
191A: 00 00          NEG    <$00
191C: 00 00          NEG    <$00
191E: 00 00          NEG    <$00
1920: 00 00          NEG    <$00
1922: 00 00          NEG    <$00
1924: 00 00          NEG    <$00
1926: 00 00          NEG    <$00
1928: 00 00          NEG    <$00
192A: 00 00          NEG    <$00
192C: 00 00          NEG    <$00
192E: 00 00          NEG    <$00
1930: 00 00          NEG    <$00
1932: 00 00          NEG    <$00
1934: 00 00          NEG    <$00
1936: 00 00          NEG    <$00
1938: 00 00          NEG    <$00
193A: 00 00          NEG    <$00
193C: 00 00          NEG    <$00
193E: 00 00          NEG    <$00
1940: 00 00          NEG    <$00
1942: 00 00          NEG    <$00
1944: 00 00          NEG    <$00
1946: 00 00          NEG    <$00
1948: 00 00          NEG    <$00
194A: 00 00          NEG    <$00
194C: 00 00          NEG    <$00
194E: 00 00          NEG    <$00
1950: 00 00          NEG    <$00
1952: 00 00          NEG    <$00
1954: 00 00          NEG    <$00
1956: 00 00          NEG    <$00
1958: 00 00          NEG    <$00
195A: 00 00          NEG    <$00
195C: 00 00          NEG    <$00
195E: 00 00          NEG    <$00
1960: 00 00          NEG    <$00
1962: 00 00          NEG    <$00
1964: 00 00          NEG    <$00
1966: 00 00          NEG    <$00
1968: 00 00          NEG    <$00
196A: 00 00          NEG    <$00
196C: 00 00          NEG    <$00
196E: 00 00          NEG    <$00
1970: 00 00          NEG    <$00
1972: 00 00          NEG    <$00
1974: 00 00          NEG    <$00
1976: 00 00          NEG    <$00
1978: 00 00          NEG    <$00
197A: 00 00          NEG    <$00
197C: 00 00          NEG    <$00
197E: 00 00          NEG    <$00
1980: 00 00          NEG    <$00
1982: 00 00          NEG    <$00
1984: 00 00          NEG    <$00
1986: 00 00          NEG    <$00
1988: 00 00          NEG    <$00
198A: 00 00          NEG    <$00
198C: 00 00          NEG    <$00
198E: 00 00          NEG    <$00
1990: 00 00          NEG    <$00
1992: 00 00          NEG    <$00
1994: 00 00          NEG    <$00
1996: 00 00          NEG    <$00
1998: 00 00          NEG    <$00
199A: 00 00          NEG    <$00
199C: 00 00          NEG    <$00
199E: 00 00          NEG    <$00
19A0: 00 00          NEG    <$00
19A2: 00 00          NEG    <$00
19A4: 00 00          NEG    <$00
19A6: 00 00          NEG    <$00
19A8: 00 00          NEG    <$00
19AA: 00 00          NEG    <$00
19AC: 00 00          NEG    <$00
19AE: 00 00          NEG    <$00
19B0: 00 00          NEG    <$00
19B2: 00 00          NEG    <$00
19B4: 00 00          NEG    <$00
19B6: 00 00          NEG    <$00
19B8: 00 00          NEG    <$00
19BA: 00 00          NEG    <$00
19BC: 00 00          NEG    <$00
19BE: 00 00          NEG    <$00
19C0: 00 00          NEG    <$00
19C2: 00 00          NEG    <$00
19C4: 00 00          NEG    <$00
19C6: 00 00          NEG    <$00
19C8: 00 00          NEG    <$00
19CA: 00 00          NEG    <$00
19CC: 00 00          NEG    <$00
19CE: 00 00          NEG    <$00
19D0: 00 00          NEG    <$00
19D2: 00 00          NEG    <$00
19D4: 00 00          NEG    <$00
19D6: 00 00          NEG    <$00
19D8: 00 00          NEG    <$00
19DA: 00 00          NEG    <$00
19DC: 00 00          NEG    <$00
19DE: 00 00          NEG    <$00
19E0: 00 00          NEG    <$00
19E2: 00 00          NEG    <$00
19E4: 00 00          NEG    <$00
19E6: 00 00          NEG    <$00
19E8: 00 00          NEG    <$00
19EA: 00 00          NEG    <$00
19EC: 00 00          NEG    <$00
19EE: 00 00          NEG    <$00
19F0: 00 00          NEG    <$00
19F2: 00 00          NEG    <$00
19F4: 00 00          NEG    <$00
19F6: 00 00          NEG    <$00
19F8: 00 00          NEG    <$00
19FA: 00 00          NEG    <$00
19FC: 00 00          NEG    <$00
19FE: 00 00          NEG    <$00
1A00: 00 00          NEG    <$00
1A02: 00 00          NEG    <$00
1A04: 00 00          NEG    <$00
1A06: 00 00          NEG    <$00
1A08: 00 00          NEG    <$00
1A0A: 00 00          NEG    <$00
1A0C: 00 00          NEG    <$00
1A0E: 00 00          NEG    <$00
1A10: 00 00          NEG    <$00
1A12: 00 00          NEG    <$00
1A14: 00 00          NEG    <$00
1A16: 00 00          NEG    <$00
1A18: 00 00          NEG    <$00
1A1A: 00 00          NEG    <$00
1A1C: 00 00          NEG    <$00
1A1E: 00 00          NEG    <$00
1A20: 00 00          NEG    <$00
1A22: 00 00          NEG    <$00
1A24: 00 00          NEG    <$00
1A26: 00 00          NEG    <$00
1A28: 00 00          NEG    <$00
1A2A: 00 00          NEG    <$00
1A2C: 00 00          NEG    <$00
1A2E: 00 00          NEG    <$00
1A30: 00 00          NEG    <$00
1A32: 00 00          NEG    <$00
1A34: 00 00          NEG    <$00
1A36: 00 00          NEG    <$00
1A38: 00 00          NEG    <$00
1A3A: 00 00          NEG    <$00
1A3C: 00 00          NEG    <$00
1A3E: 00 00          NEG    <$00
1A40: 00 00          NEG    <$00
1A42: 00 00          NEG    <$00
1A44: 00 00          NEG    <$00
1A46: 00 00          NEG    <$00
1A48: 00 00          NEG    <$00
1A4A: 00 00          NEG    <$00
1A4C: 00 00          NEG    <$00
1A4E: 00 00          NEG    <$00
1A50: 00 00          NEG    <$00
1A52: 00 00          NEG    <$00
1A54: 00 00          NEG    <$00
1A56: 00 00          NEG    <$00
1A58: 00 00          NEG    <$00
1A5A: 00 00          NEG    <$00
1A5C: 00 00          NEG    <$00
1A5E: 00 00          NEG    <$00
1A60: 00 00          NEG    <$00
1A62: 00 00          NEG    <$00
1A64: 00 00          NEG    <$00
1A66: 00 00          NEG    <$00
1A68: 00 00          NEG    <$00
1A6A: 00 00          NEG    <$00
1A6C: 00 00          NEG    <$00
1A6E: 00 00          NEG    <$00
1A70: 00 00          NEG    <$00
1A72: 00 00          NEG    <$00
1A74: 00 00          NEG    <$00
1A76: 00 00          NEG    <$00
1A78: 00 00          NEG    <$00
1A7A: 00 00          NEG    <$00
1A7C: 00 00          NEG    <$00
1A7E: 00 00          NEG    <$00
1A80: 00 00          NEG    <$00
1A82: 00 00          NEG    <$00
1A84: 00 00          NEG    <$00
1A86: 00 00          NEG    <$00
1A88: 00 00          NEG    <$00
1A8A: 00 00          NEG    <$00
1A8C: 00 00          NEG    <$00
1A8E: 00 00          NEG    <$00
1A90: 00 00          NEG    <$00
1A92: 00 00          NEG    <$00
1A94: 00 00          NEG    <$00
1A96: 00 00          NEG    <$00
1A98: 00 00          NEG    <$00
1A9A: 00 00          NEG    <$00
1A9C: 00 00          NEG    <$00
1A9E: 00 00          NEG    <$00
1AA0: 00 00          NEG    <$00
1AA2: 00 00          NEG    <$00
1AA4: 00 00          NEG    <$00
1AA6: 00 00          NEG    <$00
1AA8: 00 00          NEG    <$00
1AAA: 00 00          NEG    <$00
1AAC: 00 00          NEG    <$00
1AAE: 00 00          NEG    <$00
1AB0: 00 00          NEG    <$00
1AB2: 00 00          NEG    <$00
1AB4: 00 00          NEG    <$00
1AB6: 00 00          NEG    <$00
1AB8: 00 00          NEG    <$00
1ABA: 00 00          NEG    <$00
1ABC: 00 00          NEG    <$00
1ABE: 00 00          NEG    <$00
1AC0: 00 00          NEG    <$00
1AC2: 00 00          NEG    <$00
1AC4: 00 00          NEG    <$00
1AC6: 00 00          NEG    <$00
1AC8: 00 00          NEG    <$00
1ACA: 00 00          NEG    <$00
1ACC: 00 00          NEG    <$00
1ACE: 00 00          NEG    <$00
1AD0: 00 00          NEG    <$00
1AD2: 00 00          NEG    <$00
1AD4: 00 00          NEG    <$00
1AD6: 00 00          NEG    <$00
1AD8: 00 00          NEG    <$00
1ADA: 00 00          NEG    <$00
1ADC: 00 00          NEG    <$00
1ADE: 00 00          NEG    <$00
1AE0: 00 00          NEG    <$00
1AE2: 00 00          NEG    <$00
1AE4: 00 00          NEG    <$00
1AE6: 00 00          NEG    <$00
1AE8: 00 00          NEG    <$00
1AEA: 00 00          NEG    <$00
1AEC: 00 00          NEG    <$00
1AEE: 00 00          NEG    <$00
1AF0: 00 00          NEG    <$00
1AF2: 00 00          NEG    <$00
1AF4: 00 00          NEG    <$00
1AF6: 00 00          NEG    <$00
1AF8: 00 00          NEG    <$00
1AFA: 00 00          NEG    <$00
1AFC: 00 00          NEG    <$00
1AFE: 00 00          NEG    <$00
1B00: 00 00          NEG    <$00
1B02: 00 00          NEG    <$00
1B04: 00 00          NEG    <$00
1B06: 00 00          NEG    <$00
1B08: 00 00          NEG    <$00
1B0A: 00 00          NEG    <$00
1B0C: 00 00          NEG    <$00
1B0E: 00 00          NEG    <$00
1B10: 00 00          NEG    <$00
1B12: 00 00          NEG    <$00
1B14: 00 00          NEG    <$00
1B16: 00 00          NEG    <$00
1B18: 00 00          NEG    <$00
1B1A: 00 00          NEG    <$00
1B1C: 00 00          NEG    <$00
1B1E: 00 00          NEG    <$00
1B20: 00 00          NEG    <$00
1B22: 00 00          NEG    <$00
1B24: 00 00          NEG    <$00
1B26: 00 00          NEG    <$00
1B28: 00 00          NEG    <$00
1B2A: 00 00          NEG    <$00
1B2C: 00 00          NEG    <$00
1B2E: 00 00          NEG    <$00
1B30: 00 00          NEG    <$00
1B32: 00 00          NEG    <$00
1B34: 00 00          NEG    <$00
1B36: 00 00          NEG    <$00
1B38: 00 00          NEG    <$00
1B3A: 00 00          NEG    <$00
1B3C: 00 00          NEG    <$00
1B3E: 00 00          NEG    <$00
1B40: 00 00          NEG    <$00
1B42: 00 00          NEG    <$00
1B44: 00 00          NEG    <$00
1B46: 00 00          NEG    <$00
1B48: 00 00          NEG    <$00
1B4A: 00 00          NEG    <$00
1B4C: 00 00          NEG    <$00
1B4E: 00 00          NEG    <$00
1B50: 00 00          NEG    <$00
1B52: 00 00          NEG    <$00
1B54: 00 00          NEG    <$00
1B56: 00 00          NEG    <$00
1B58: 00 00          NEG    <$00
1B5A: 00 00          NEG    <$00
1B5C: 00 00          NEG    <$00
1B5E: 00 00          NEG    <$00
1B60: 00 00          NEG    <$00
1B62: 00 00          NEG    <$00
1B64: 00 00          NEG    <$00
1B66: 00 00          NEG    <$00
1B68: 00 00          NEG    <$00
1B6A: 00 00          NEG    <$00
1B6C: 00 00          NEG    <$00
1B6E: 00 00          NEG    <$00
1B70: 00 00          NEG    <$00
1B72: 00 00          NEG    <$00
1B74: 00 00          NEG    <$00
1B76: 00 00          NEG    <$00
1B78: 00 00          NEG    <$00
1B7A: 00 00          NEG    <$00
1B7C: 00 00          NEG    <$00
1B7E: 00 00          NEG    <$00
1B80: 00 00          NEG    <$00
1B82: 00 00          NEG    <$00
1B84: 00 00          NEG    <$00
1B86: 00 00          NEG    <$00
1B88: 00 00          NEG    <$00
1B8A: 00 00          NEG    <$00
1B8C: 00 00          NEG    <$00
1B8E: 00 00          NEG    <$00
1B90: 00 00          NEG    <$00
1B92: 00 00          NEG    <$00
1B94: 00 00          NEG    <$00
1B96: 00 00          NEG    <$00
1B98: 00 00          NEG    <$00
1B9A: 00 00          NEG    <$00
1B9C: 00 00          NEG    <$00
1B9E: 00 00          NEG    <$00
1BA0: 00 00          NEG    <$00
1BA2: 00 00          NEG    <$00
1BA4: 00 00          NEG    <$00
1BA6: 00 00          NEG    <$00
1BA8: 00 00          NEG    <$00
1BAA: 00 00          NEG    <$00
1BAC: 00 00          NEG    <$00
1BAE: 00 00          NEG    <$00
1BB0: 00 00          NEG    <$00
1BB2: 00 00          NEG    <$00
1BB4: 00 00          NEG    <$00
1BB6: 00 00          NEG    <$00
1BB8: 00 00          NEG    <$00
1BBA: 00 00          NEG    <$00
1BBC: 00 00          NEG    <$00
1BBE: 00 00          NEG    <$00
1BC0: 00 00          NEG    <$00
1BC2: 00 00          NEG    <$00
1BC4: 00 00          NEG    <$00
1BC6: 00 00          NEG    <$00
1BC8: 00 00          NEG    <$00
1BCA: 00 00          NEG    <$00
1BCC: 00 00          NEG    <$00
1BCE: 00 00          NEG    <$00
1BD0: 00 00          NEG    <$00
1BD2: 00 00          NEG    <$00
1BD4: 00 00          NEG    <$00
1BD6: 00 00          NEG    <$00
1BD8: 00 00          NEG    <$00
1BDA: 00 00          NEG    <$00
1BDC: 00 00          NEG    <$00
1BDE: 00 00          NEG    <$00
1BE0: 00 00          NEG    <$00
1BE2: 00 00          NEG    <$00
1BE4: 00 00          NEG    <$00
1BE6: 00 00          NEG    <$00
1BE8: 00 00          NEG    <$00
1BEA: 00 00          NEG    <$00
1BEC: 00 00          NEG    <$00
1BEE: 00 00          NEG    <$00
1BF0: 00 00          NEG    <$00
1BF2: 00 00          NEG    <$00
1BF4: 00 00          NEG    <$00
1BF6: 00 00          NEG    <$00
1BF8: 00 00          NEG    <$00
1BFA: 00 00          NEG    <$00
1BFC: 00 00          NEG    <$00
1BFE: 00 00          NEG    <$00
1C00: 00 00          NEG    <$00
1C02: 00 00          NEG    <$00
1C04: 00 00          NEG    <$00
1C06: 00 00          NEG    <$00
1C08: 00 00          NEG    <$00
1C0A: 00 00          NEG    <$00
1C0C: 00 00          NEG    <$00
1C0E: 00 00          NEG    <$00
1C10: 00 00          NEG    <$00
1C12: 00 00          NEG    <$00
1C14: 00 00          NEG    <$00
1C16: 00 00          NEG    <$00
1C18: 00 00          NEG    <$00
1C1A: 00 00          NEG    <$00
1C1C: 00 00          NEG    <$00
1C1E: 00 00          NEG    <$00
1C20: 00 00          NEG    <$00
1C22: 00 00          NEG    <$00
1C24: 00 00          NEG    <$00
1C26: 00 00          NEG    <$00
1C28: 00 00          NEG    <$00
1C2A: 00 00          NEG    <$00
1C2C: 00 00          NEG    <$00
1C2E: 00 00          NEG    <$00
1C30: 00 00          NEG    <$00
1C32: 00 00          NEG    <$00
1C34: 00 00          NEG    <$00
1C36: 00 00          NEG    <$00
1C38: 00 00          NEG    <$00
1C3A: 00 00          NEG    <$00
1C3C: 00 00          NEG    <$00
1C3E: 00 00          NEG    <$00
1C40: 00 00          NEG    <$00
1C42: 00 00          NEG    <$00
1C44: 00 00          NEG    <$00
1C46: 00 00          NEG    <$00
1C48: 00 00          NEG    <$00
1C4A: 00 00          NEG    <$00
1C4C: 00 00          NEG    <$00
1C4E: 00 00          NEG    <$00
1C50: 00 00          NEG    <$00
1C52: 00 00          NEG    <$00
1C54: 00 00          NEG    <$00
1C56: 00 00          NEG    <$00
1C58: 00 00          NEG    <$00
1C5A: 00 00          NEG    <$00
1C5C: 00 00          NEG    <$00
1C5E: 00 00          NEG    <$00
1C60: 00 00          NEG    <$00
1C62: 00 00          NEG    <$00
1C64: 00 00          NEG    <$00
1C66: 00 00          NEG    <$00
1C68: 00 00          NEG    <$00
1C6A: 00 00          NEG    <$00
1C6C: 00 00          NEG    <$00
1C6E: 00 00          NEG    <$00
1C70: 00 00          NEG    <$00
1C72: 00 00          NEG    <$00
1C74: 00 00          NEG    <$00
1C76: 00 00          NEG    <$00
1C78: 00 00          NEG    <$00
1C7A: 00 00          NEG    <$00
1C7C: 00 00          NEG    <$00
1C7E: 00 00          NEG    <$00
1C80: 00 00          NEG    <$00
1C82: 00 00          NEG    <$00
1C84: 00 00          NEG    <$00
1C86: 00 00          NEG    <$00
1C88: 00 00          NEG    <$00
1C8A: 00 00          NEG    <$00
1C8C: 00 00          NEG    <$00
1C8E: 00 00          NEG    <$00
1C90: 00 00          NEG    <$00
1C92: 00 00          NEG    <$00
1C94: 00 00          NEG    <$00
1C96: 00 00          NEG    <$00
1C98: 00 00          NEG    <$00
1C9A: 00 00          NEG    <$00
1C9C: 00 00          NEG    <$00
1C9E: 00 00          NEG    <$00
1CA0: 00 00          NEG    <$00
1CA2: 00 00          NEG    <$00
1CA4: 00 00          NEG    <$00
1CA6: 00 00          NEG    <$00
1CA8: 00 00          NEG    <$00
1CAA: 00 00          NEG    <$00
1CAC: 00 00          NEG    <$00
1CAE: 00 00          NEG    <$00
1CB0: 00 00          NEG    <$00
1CB2: 00 00          NEG    <$00
1CB4: 00 00          NEG    <$00
1CB6: 00 00          NEG    <$00
1CB8: 00 00          NEG    <$00
1CBA: 00 00          NEG    <$00
1CBC: 00 00          NEG    <$00
1CBE: 00 00          NEG    <$00
1CC0: 00 00          NEG    <$00
1CC2: 00 00          NEG    <$00
1CC4: 00 00          NEG    <$00
1CC6: 00 00          NEG    <$00
1CC8: 00 00          NEG    <$00
1CCA: 00 00          NEG    <$00
1CCC: 00 00          NEG    <$00
1CCE: 00 00          NEG    <$00
1CD0: 00 00          NEG    <$00
1CD2: 00 00          NEG    <$00
1CD4: 00 00          NEG    <$00
1CD6: 00 00          NEG    <$00
1CD8: 00 00          NEG    <$00
1CDA: 00 00          NEG    <$00
1CDC: 00 00          NEG    <$00
1CDE: 00 00          NEG    <$00
1CE0: 00 00          NEG    <$00
1CE2: 00 00          NEG    <$00
1CE4: 00 00          NEG    <$00
1CE6: 00 00          NEG    <$00
1CE8: 00 00          NEG    <$00
1CEA: 00 00          NEG    <$00
1CEC: 00 00          NEG    <$00
1CEE: 00 00          NEG    <$00
1CF0: 00 00          NEG    <$00
1CF2: 00 00          NEG    <$00
1CF4: 00 00          NEG    <$00
1CF6: 00 00          NEG    <$00
1CF8: 00 00          NEG    <$00
1CFA: 00 00          NEG    <$00
1CFC: 00 00          NEG    <$00
1CFE: 00 00          NEG    <$00
1D00: 00 00          NEG    <$00
1D02: 00 00          NEG    <$00
1D04: 00 00          NEG    <$00
1D06: 00 00          NEG    <$00
1D08: 00 00          NEG    <$00
1D0A: 00 00          NEG    <$00
1D0C: 00 00          NEG    <$00
1D0E: 00 00          NEG    <$00
1D10: 00 00          NEG    <$00
1D12: 00 00          NEG    <$00
1D14: 00 00          NEG    <$00
1D16: 00 00          NEG    <$00
1D18: 00 00          NEG    <$00
1D1A: 00 00          NEG    <$00
1D1C: 00 00          NEG    <$00
1D1E: 00 00          NEG    <$00
1D20: 00 00          NEG    <$00
1D22: 00 00          NEG    <$00
1D24: 00 00          NEG    <$00
1D26: 00 00          NEG    <$00
1D28: 00 00          NEG    <$00
1D2A: 00 00          NEG    <$00
1D2C: 00 00          NEG    <$00
1D2E: 00 00          NEG    <$00
1D30: 00 00          NEG    <$00
1D32: 00 00          NEG    <$00
1D34: 00 00          NEG    <$00
1D36: 00 00          NEG    <$00
1D38: 00 00          NEG    <$00
1D3A: 00 00          NEG    <$00
1D3C: 00 00          NEG    <$00
1D3E: 00 00          NEG    <$00
1D40: 00 00          NEG    <$00
1D42: 00 00          NEG    <$00
1D44: 00 00          NEG    <$00
1D46: 00 00          NEG    <$00
1D48: 00 00          NEG    <$00
1D4A: 00 00          NEG    <$00
1D4C: 00 00          NEG    <$00
1D4E: 00 00          NEG    <$00
1D50: 00 00          NEG    <$00
1D52: 00 00          NEG    <$00
1D54: 00 00          NEG    <$00
1D56: 00 00          NEG    <$00
1D58: 00 00          NEG    <$00
1D5A: 00 00          NEG    <$00
1D5C: 00 00          NEG    <$00
1D5E: 00 00          NEG    <$00
1D60: 00 00          NEG    <$00
1D62: 00 00          NEG    <$00
1D64: 00 00          NEG    <$00
1D66: 00 00          NEG    <$00
1D68: 00 00          NEG    <$00
1D6A: 00 00          NEG    <$00
1D6C: 00 00          NEG    <$00
1D6E: 00 00          NEG    <$00
1D70: 00 00          NEG    <$00
1D72: 00 00          NEG    <$00
1D74: 00 00          NEG    <$00
1D76: 00 00          NEG    <$00
1D78: 00 00          NEG    <$00
1D7A: 00 00          NEG    <$00
1D7C: 00 00          NEG    <$00
1D7E: 00 00          NEG    <$00
1D80: 00 00          NEG    <$00
1D82: 00 00          NEG    <$00
1D84: 00 00          NEG    <$00
1D86: 00 00          NEG    <$00
1D88: 00 00          NEG    <$00
1D8A: 00 00          NEG    <$00
1D8C: 00 00          NEG    <$00
1D8E: 00 00          NEG    <$00
1D90: 00 00          NEG    <$00
1D92: 00 00          NEG    <$00
1D94: 00 00          NEG    <$00
1D96: 00 00          NEG    <$00
1D98: 00 00          NEG    <$00
1D9A: 00 00          NEG    <$00
1D9C: 00 00          NEG    <$00
1D9E: 00 00          NEG    <$00
1DA0: 00 00          NEG    <$00
1DA2: 00 00          NEG    <$00
1DA4: 00 00          NEG    <$00
1DA6: 00 00          NEG    <$00
1DA8: 00 00          NEG    <$00
1DAA: 00 00          NEG    <$00
1DAC: 00 00          NEG    <$00
1DAE: 00 00          NEG    <$00
1DB0: 00 00          NEG    <$00
1DB2: 00 00          NEG    <$00
1DB4: 00 00          NEG    <$00
1DB6: 00 00          NEG    <$00
1DB8: 00 00          NEG    <$00
1DBA: 00 00          NEG    <$00
1DBC: 00 00          NEG    <$00
1DBE: 00 00          NEG    <$00
1DC0: 00 00          NEG    <$00
1DC2: 00 00          NEG    <$00
1DC4: 00 00          NEG    <$00
1DC6: 00 00          NEG    <$00
1DC8: 00 00          NEG    <$00
1DCA: 00 00          NEG    <$00
1DCC: 00 00          NEG    <$00
1DCE: 00 00          NEG    <$00
1DD0: 00 00          NEG    <$00
1DD2: 00 00          NEG    <$00
1DD4: 00 00          NEG    <$00
1DD6: 00 00          NEG    <$00
1DD8: 00 00          NEG    <$00
1DDA: 00 00          NEG    <$00
1DDC: 00 00          NEG    <$00
1DDE: 00 00          NEG    <$00
1DE0: 00 00          NEG    <$00
1DE2: 00 00          NEG    <$00
1DE4: 00 00          NEG    <$00
1DE6: 00 00          NEG    <$00
1DE8: 00 00          NEG    <$00
1DEA: 00 00          NEG    <$00
1DEC: 00 00          NEG    <$00
1DEE: 00 00          NEG    <$00
1DF0: 00 00          NEG    <$00
1DF2: 00 00          NEG    <$00
1DF4: 00 00          NEG    <$00
1DF6: 00 00          NEG    <$00
1DF8: 00 00          NEG    <$00
1DFA: 00 00          NEG    <$00
1DFC: 00 00          NEG    <$00
1DFE: 00 00          NEG    <$00
1E00: 00 00          NEG    <$00
1E02: 00 00          NEG    <$00
1E04: 00 00          NEG    <$00
1E06: 00 00          NEG    <$00
1E08: 00 00          NEG    <$00
1E0A: 00 00          NEG    <$00
1E0C: 00 00          NEG    <$00
1E0E: 00 00          NEG    <$00
1E10: 00 00          NEG    <$00
1E12: 00 00          NEG    <$00
1E14: 00 00          NEG    <$00
1E16: 00 00          NEG    <$00
1E18: 00 00          NEG    <$00
1E1A: 00 00          NEG    <$00
1E1C: 00 00          NEG    <$00
1E1E: 00 00          NEG    <$00
1E20: 00 00          NEG    <$00
1E22: 00 00          NEG    <$00
1E24: 00 00          NEG    <$00
1E26: 00 00          NEG    <$00
1E28: 00 00          NEG    <$00
1E2A: 00 00          NEG    <$00
1E2C: 00 00          NEG    <$00
1E2E: 00 00          NEG    <$00
1E30: 00 00          NEG    <$00
1E32: 00 00          NEG    <$00
1E34: 00 00          NEG    <$00
1E36: 00 00          NEG    <$00
1E38: 00 00          NEG    <$00
1E3A: 00 00          NEG    <$00
1E3C: 00 00          NEG    <$00
1E3E: 00 00          NEG    <$00
1E40: 00 00          NEG    <$00
1E42: 00 00          NEG    <$00
1E44: 00 00          NEG    <$00
1E46: 00 00          NEG    <$00
1E48: 00 00          NEG    <$00
1E4A: 00 00          NEG    <$00
1E4C: 00 00          NEG    <$00
1E4E: 00 00          NEG    <$00
1E50: 00 00          NEG    <$00
1E52: 00 00          NEG    <$00
1E54: 00 00          NEG    <$00
1E56: 00 00          NEG    <$00
1E58: 00 00          NEG    <$00
1E5A: 00 00          NEG    <$00
1E5C: 00 00          NEG    <$00
1E5E: 00 00          NEG    <$00
1E60: 00 00          NEG    <$00
1E62: 00 00          NEG    <$00
1E64: 00 00          NEG    <$00
1E66: 00 00          NEG    <$00
1E68: 00 00          NEG    <$00
1E6A: 00 00          NEG    <$00
1E6C: 00 00          NEG    <$00
1E6E: 00 00          NEG    <$00
1E70: 00 00          NEG    <$00
1E72: 00 00          NEG    <$00
1E74: 00 00          NEG    <$00
1E76: 00 00          NEG    <$00
1E78: 00 00          NEG    <$00
1E7A: 00 00          NEG    <$00
1E7C: 00 00          NEG    <$00
1E7E: 00 00          NEG    <$00
1E80: 00 00          NEG    <$00
1E82: 00 00          NEG    <$00
1E84: 00 00          NEG    <$00
1E86: 00 00          NEG    <$00
1E88: 00 00          NEG    <$00
1E8A: 00 00          NEG    <$00
1E8C: 00 00          NEG    <$00
1E8E: 00 00          NEG    <$00
1E90: 00 00          NEG    <$00
1E92: 00 00          NEG    <$00
1E94: 00 00          NEG    <$00
1E96: 00 00          NEG    <$00
1E98: 00 00          NEG    <$00
1E9A: 00 00          NEG    <$00
1E9C: 00 00          NEG    <$00
1E9E: 00 00          NEG    <$00
1EA0: 00 00          NEG    <$00
1EA2: 00 00          NEG    <$00
1EA4: 00 00          NEG    <$00
1EA6: 00 00          NEG    <$00
1EA8: 00 00          NEG    <$00
1EAA: 00 00          NEG    <$00
1EAC: 00 00          NEG    <$00
1EAE: 00 00          NEG    <$00
1EB0: 00 00          NEG    <$00
1EB2: 00 00          NEG    <$00
1EB4: 00 00          NEG    <$00
1EB6: 00 00          NEG    <$00
1EB8: 00 00          NEG    <$00
1EBA: 00 00          NEG    <$00
1EBC: 00 00          NEG    <$00
1EBE: 00 00          NEG    <$00
1EC0: 00 00          NEG    <$00
1EC2: 00 00          NEG    <$00
1EC4: 00 00          NEG    <$00
1EC6: 00 00          NEG    <$00
1EC8: 00 00          NEG    <$00
1ECA: 00 00          NEG    <$00
1ECC: 00 00          NEG    <$00
1ECE: 00 00          NEG    <$00
1ED0: 00 00          NEG    <$00
1ED2: 00 00          NEG    <$00
1ED4: 00 00          NEG    <$00
1ED6: 00 00          NEG    <$00
1ED8: 00 00          NEG    <$00
1EDA: 00 00          NEG    <$00
1EDC: 00 00          NEG    <$00
1EDE: 00 00          NEG    <$00
1EE0: 00 00          NEG    <$00
1EE2: 00 00          NEG    <$00
1EE4: 00 00          NEG    <$00
1EE6: 00 00          NEG    <$00
1EE8: 00 00          NEG    <$00
1EEA: 00 00          NEG    <$00
1EEC: 00 00          NEG    <$00
1EEE: 00 00          NEG    <$00
1EF0: 00 00          NEG    <$00
1EF2: 00 00          NEG    <$00
1EF4: 00 00          NEG    <$00
1EF6: 00 00          NEG    <$00
1EF8: 00 00          NEG    <$00
1EFA: 00 00          NEG    <$00
1EFC: 00 00          NEG    <$00
1EFE: 00 00          NEG    <$00
1F00: 00 00          NEG    <$00
1F02: 00 00          NEG    <$00
1F04: 00 00          NEG    <$00
1F06: 00 00          NEG    <$00
1F08: 00 00          NEG    <$00
1F0A: 00 00          NEG    <$00
1F0C: 00 00          NEG    <$00
1F0E: 00 00          NEG    <$00
1F10: 00 00          NEG    <$00
1F12: 00 00          NEG    <$00
1F14: 00 00          NEG    <$00
1F16: 00 00          NEG    <$00
1F18: 00 00          NEG    <$00
1F1A: 00 00          NEG    <$00
1F1C: 00 00          NEG    <$00
1F1E: 00 00          NEG    <$00
1F20: 00 00          NEG    <$00
1F22: 00 00          NEG    <$00
1F24: 00 00          NEG    <$00
1F26: 00 00          NEG    <$00
1F28: 00 00          NEG    <$00
1F2A: 00 00          NEG    <$00
1F2C: 00 00          NEG    <$00
1F2E: 00 00          NEG    <$00
1F30: 00 00          NEG    <$00
1F32: 00 00          NEG    <$00
1F34: 00 00          NEG    <$00
1F36: 00 00          NEG    <$00
1F38: 00 00          NEG    <$00
1F3A: 00 00          NEG    <$00
1F3C: 00 00          NEG    <$00
1F3E: 00 00          NEG    <$00
1F40: 00 00          NEG    <$00
1F42: 00 00          NEG    <$00
1F44: 00 00          NEG    <$00
1F46: 00 00          NEG    <$00
1F48: 00 00          NEG    <$00
1F4A: 00 00          NEG    <$00
1F4C: 00 00          NEG    <$00
1F4E: 00 00          NEG    <$00
1F50: 00 00          NEG    <$00
1F52: 00 00          NEG    <$00
1F54: 00 00          NEG    <$00
1F56: 00 00          NEG    <$00
1F58: 00 00          NEG    <$00
1F5A: 00 00          NEG    <$00
1F5C: 00 00          NEG    <$00
1F5E: 00 00          NEG    <$00
1F60: 00 00          NEG    <$00
1F62: 00 00          NEG    <$00
1F64: 00 00          NEG    <$00
1F66: 00 00          NEG    <$00
1F68: 00 00          NEG    <$00
1F6A: 00 00          NEG    <$00
1F6C: 00 00          NEG    <$00
1F6E: 00 00          NEG    <$00
1F70: 00 00          NEG    <$00
1F72: 00 00          NEG    <$00
1F74: 00 00          NEG    <$00
1F76: 00 00          NEG    <$00
1F78: 00 00          NEG    <$00
1F7A: 00 00          NEG    <$00
1F7C: 00 00          NEG    <$00
1F7E: 00 00          NEG    <$00
1F80: 00 00          NEG    <$00
1F82: 00 00          NEG    <$00
1F84: 00 00          NEG    <$00
1F86: 00 00          NEG    <$00
1F88: 00 00          NEG    <$00
1F8A: 00 00          NEG    <$00
1F8C: 00 00          NEG    <$00
1F8E: 00 00          NEG    <$00
1F90: 00 00          NEG    <$00
1F92: 00 00          NEG    <$00
1F94: 00 00          NEG    <$00
1F96: 00 00          NEG    <$00
1F98: 00 00          NEG    <$00
1F9A: 00 00          NEG    <$00
1F9C: 00 00          NEG    <$00
1F9E: 00 00          NEG    <$00
1FA0: 00 00          NEG    <$00
1FA2: 00 00          NEG    <$00
1FA4: 00 00          NEG    <$00
1FA6: 00 00          NEG    <$00
1FA8: 00 00          NEG    <$00
1FAA: 00 00          NEG    <$00
1FAC: 00 00          NEG    <$00
1FAE: 00 00          NEG    <$00
1FB0: 00 00          NEG    <$00
1FB2: 00 00          NEG    <$00
1FB4: 00 00          NEG    <$00
1FB6: 00 00          NEG    <$00
1FB8: 00 00          NEG    <$00
1FBA: 00 00          NEG    <$00
1FBC: 00 00          NEG    <$00
1FBE: 00 00          NEG    <$00
1FC0: 00 00          NEG    <$00
1FC2: 00 00          NEG    <$00
1FC4: 00 00          NEG    <$00
1FC6: 00 00          NEG    <$00
1FC8: 00 00          NEG    <$00
1FCA: 00 00          NEG    <$00
1FCC: 00 00          NEG    <$00
1FCE: 00 00          NEG    <$00
1FD0: 00 00          NEG    <$00
1FD2: 00 00          NEG    <$00
1FD4: 00 00          NEG    <$00
1FD6: 00 00          NEG    <$00
1FD8: 00 00          NEG    <$00
1FDA: 00 00          NEG    <$00
1FDC: 00 00          NEG    <$00
1FDE: 00 00          NEG    <$00
1FE0: 00 00          NEG    <$00
1FE2: 00 00          NEG    <$00
1FE4: 00 00          NEG    <$00
1FE6: 00 00          NEG    <$00
1FE8: 00 00          NEG    <$00
1FEA: 00 00          NEG    <$00
1FEC: 00 00          NEG    <$00
1FEE: 00 00          NEG    <$00
1FF0: 00 00          NEG    <$00
1FF2: 00 00          NEG    <$00
1FF4: 00 00          NEG    <$00
1FF6: 00 00          NEG    <$00
1FF8: 00 00          NEG    <$00
1FFA: 00 00          NEG    <$00
1FFC: 00 00          NEG    <$00
1FFE: 00 00          NEG    <$00
